

Microchip MPLAB XC8 Assembler V2.32 build 20210201212658 
                                                                                               Wed Jun 22 12:24:16 2022

Microchip MPLAB XC8 C Compiler v2.32 (Free license) build 20210201212658 Og1 
     1                           	processor	16F877A
     2                           	pagewidth 120
     3                           	opt	flic
     4                           	psect	cinit,global,class=CODE,merge=1,delta=2
     5                           	psect	bssCOMMON,global,class=COMMON,space=1,delta=1,noexec
     6                           	psect	bssBANK1,global,class=BANK1,space=1,delta=1,noexec
     7                           	psect	clrtext,global,class=CODE,delta=2
     8                           	psect	cstackBANK1,global,class=BANK1,space=1,delta=1,noexec
     9                           	psect	cstackCOMMON,global,class=COMMON,space=1,delta=1,noexec
    10                           	psect	cstackBANK0,global,class=BANK0,space=1,delta=1,noexec
    11                           	psect	maintext,global,class=CODE,split=1,delta=2
    12                           	psect	text1,local,class=CODE,merge=1,delta=2
    13                           	psect	text2,local,class=CODE,merge=1,delta=2
    14                           	psect	text3,local,class=CODE,merge=1,delta=2,group=1
    15                           	psect	text4,local,class=CODE,merge=1,delta=2
    16                           	psect	text5,local,class=CODE,merge=1,delta=2
    17                           	psect	text6,local,class=CODE,merge=1,delta=2
    18                           	psect	text7,local,class=CODE,merge=1,delta=2
    19                           	psect	text8,local,class=CODE,merge=1,delta=2
    20                           	psect	text9,local,class=CODE,merge=1,delta=2
    21                           	psect	text10,local,class=CODE,merge=1,delta=2,group=1
    22                           	psect	text11,local,class=CODE,merge=1,delta=2,group=1
    23                           	psect	text12,local,class=CODE,merge=1,delta=2,group=1
    24                           	psect	text13,local,class=CODE,merge=1,delta=2,group=1
    25                           	psect	text14,local,class=CODE,merge=1,delta=2,group=1
    26                           	psect	text15,local,class=CODE,merge=1,delta=2
    27                           	psect	intentry,global,class=CODE,delta=2
    28                           	psect	config,global,abs,ovrld,class=CONFIG,space=4,delta=2,noexec
    29                           	dabs	1,0x7E,2
    30  0000                     
    31                           ; Version 2.20
    32                           ; Generated 12/02/2020 GMT
    33                           ; 
    34                           ; Copyright © 2020, Microchip Technology Inc. and its subsidiaries ("Microchip")
    35                           ; All rights reserved.
    36                           ; 
    37                           ; This software is developed by Microchip Technology Inc. and its subsidiaries ("Microch
      +                          ip").
    38                           ; 
    39                           ; Redistribution and use in source and binary forms, with or without modification, are
    40                           ; permitted provided that the following conditions are met:
    41                           ; 
    42                           ;     1. Redistributions of source code must retain the above copyright notice, this lis
      +                          t of
    43                           ;        conditions and the following disclaimer.
    44                           ; 
    45                           ;     2. Redistributions in binary form must reproduce the above copyright notice, this 
      +                          list
    46                           ;        of conditions and the following disclaimer in the documentation and/or other
    47                           ;        materials provided with the distribution.
    48                           ; 
    49                           ;     3. Microchip's name may not be used to endorse or promote products derived from th
      +                          is
    50                           ;        software without specific prior written permission.
    51                           ; 
    52                           ; THIS SOFTWARE IS PROVIDED BY MICROCHIP "AS IS" AND ANY EXPRESS OR IMPLIED WARRANTIES,
    53                           ; INCLUDING, BUT NOT LIMITED TO, THE IMPLIED WARRANTIES OF MERCHANTABILITY AND FITNESS F
      +                          OR
    54                           ; PURPOSE ARE DISCLAIMED.  IN NO EVENT SHALL MICROCHIP BE LIABLE FOR ANY DIRECT, INDIREC
      +                          T,
    55                           ; INCIDENTAL, SPECIAL, EXEMPLARY, OR CONSEQUENTIAL DAMAGES (INCLUDING BUT NOT LIMITED TO
    56                           ; PROCUREMENT OF SUBSTITUTE GOODS OR SERVICES; LOSS OF USE, DATA OR PROFITS; OR BUSINESS
    57                           ; INTERRUPTION) HOWSOEVER CAUSED AND ON ANY THEORY OF LIABILITY, WHETHER IN CONTRACT, ST
      +                          RICT
    58                           ; LIABILITY, OR TORT (INCLUDING NEGLIGENCE OR OTHERWISE) ARISING IN ANY WAY OUT OF THE U
      +                          SE OF
    59                           ; THIS SOFTWARE, EVEN IF ADVISED OF THE POSSIBILITY OF SUCH DAMAGE.
    60                           ; 
    61                           ; 
    62                           ; Code-generator required, PIC16F877A Definitions
    63                           ; 
    64                           ; SFR Addresses
    65  0000                     	;# 
    66  0001                     	;# 
    67  0002                     	;# 
    68  0003                     	;# 
    69  0004                     	;# 
    70  0005                     	;# 
    71  0006                     	;# 
    72  0007                     	;# 
    73  0008                     	;# 
    74  0009                     	;# 
    75  000A                     	;# 
    76  000B                     	;# 
    77  000C                     	;# 
    78  000D                     	;# 
    79  000E                     	;# 
    80  000E                     	;# 
    81  000F                     	;# 
    82  0010                     	;# 
    83  0011                     	;# 
    84  0012                     	;# 
    85  0013                     	;# 
    86  0014                     	;# 
    87  0015                     	;# 
    88  0015                     	;# 
    89  0016                     	;# 
    90  0017                     	;# 
    91  0018                     	;# 
    92  0019                     	;# 
    93  001A                     	;# 
    94  001B                     	;# 
    95  001B                     	;# 
    96  001C                     	;# 
    97  001D                     	;# 
    98  001E                     	;# 
    99  001F                     	;# 
   100  0081                     	;# 
   101  0085                     	;# 
   102  0086                     	;# 
   103  0087                     	;# 
   104  0088                     	;# 
   105  0089                     	;# 
   106  008C                     	;# 
   107  008D                     	;# 
   108  008E                     	;# 
   109  0091                     	;# 
   110  0092                     	;# 
   111  0093                     	;# 
   112  0094                     	;# 
   113  0098                     	;# 
   114  0099                     	;# 
   115  009C                     	;# 
   116  009D                     	;# 
   117  009E                     	;# 
   118  009F                     	;# 
   119  010C                     	;# 
   120  010D                     	;# 
   121  010E                     	;# 
   122  010F                     	;# 
   123  018C                     	;# 
   124  018D                     	;# 
   125  0000                     	;# 
   126  0001                     	;# 
   127  0002                     	;# 
   128  0003                     	;# 
   129  0004                     	;# 
   130  0005                     	;# 
   131  0006                     	;# 
   132  0007                     	;# 
   133  0008                     	;# 
   134  0009                     	;# 
   135  000A                     	;# 
   136  000B                     	;# 
   137  000C                     	;# 
   138  000D                     	;# 
   139  000E                     	;# 
   140  000E                     	;# 
   141  000F                     	;# 
   142  0010                     	;# 
   143  0011                     	;# 
   144  0012                     	;# 
   145  0013                     	;# 
   146  0014                     	;# 
   147  0015                     	;# 
   148  0015                     	;# 
   149  0016                     	;# 
   150  0017                     	;# 
   151  0018                     	;# 
   152  0019                     	;# 
   153  001A                     	;# 
   154  001B                     	;# 
   155  001B                     	;# 
   156  001C                     	;# 
   157  001D                     	;# 
   158  001E                     	;# 
   159  001F                     	;# 
   160  0081                     	;# 
   161  0085                     	;# 
   162  0086                     	;# 
   163  0087                     	;# 
   164  0088                     	;# 
   165  0089                     	;# 
   166  008C                     	;# 
   167  008D                     	;# 
   168  008E                     	;# 
   169  0091                     	;# 
   170  0092                     	;# 
   171  0093                     	;# 
   172  0094                     	;# 
   173  0098                     	;# 
   174  0099                     	;# 
   175  009C                     	;# 
   176  009D                     	;# 
   177  009E                     	;# 
   178  009F                     	;# 
   179  010C                     	;# 
   180  010D                     	;# 
   181  010E                     	;# 
   182  010F                     	;# 
   183  018C                     	;# 
   184  018D                     	;# 
   185  0019                     _TXREG	set	25
   186  0018                     _RCSTA	set	24
   187  0001                     _TMR0	set	1
   188  000B                     _INTCON	set	11
   189  001A                     _RCREG	set	26
   190  0008                     _PORTD	set	8
   191  0064                     _TXIF	set	100
   192  0065                     _RCIF	set	101
   193  008C                     _PIE1	set	140
   194  0099                     _SPBRG	set	153
   195  0098                     _TXSTA	set	152
   196  0087                     _TRISC	set	135
   197  0081                     _OPTION_REG	set	129
   198  0088                     _TRISD	set	136
   199                           
   200                           	psect	cinit
   201  000F                     start_initialization:	
   202                           ; #config settings
   203                           
   204  000F                     __initialization:
   205                           
   206                           ; Clear objects allocated to COMMON
   207  000F  01F8               	clrf	__pbssCOMMON& (0+127)
   208  0010  01F9               	clrf	(__pbssCOMMON+1)& (0+127)
   209  0011  01FA               	clrf	(__pbssCOMMON+2)& (0+127)
   210                           
   211                           ; Clear objects allocated to BANK1
   212  0012  1383               	bcf	3,7	;select IRP bank0
   213  0013  30A0               	movlw	low __pbssBANK1
   214  0014  0084               	movwf	4
   215  0015  30B1               	movlw	low (__pbssBANK1+17)
   216  0016  120A  118A  27F8  120A  118A  	fcall	clear_ram0
   217  001B                     end_of_initialization:	
   218                           ;End of C runtime variable initialization code
   219                           
   220  001B                     __end_of__initialization:
   221  001B  0183               	clrf	3
   222  001C  120A  158A  2F6A   	ljmp	_main	;jump to C main() function
   223                           
   224                           	psect	bssCOMMON
   225  0078                     __pbssCOMMON:
   226  0078                     _i:
   227  0078                     	ds	1
   228  0079                     _partCounter:
   229  0079                     	ds	1
   230  007A                     _receivedData:
   231  007A                     	ds	1
   232                           
   233                           	psect	bssBANK1
   234  00A0                     __pbssBANK1:
   235  00A0                     _dataPacketRx:
   236  00A0                     	ds	3
   237  00A3                     _postscaler:
   238  00A3                     	ds	2
   239  00A5                     _flags:
   240  00A5                     	ds	1
   241  00A6                     _tempHumDataPacketTx:
   242  00A6                     	ds	7
   243  00AD                     _boolDataPacketTx:
   244  00AD                     	ds	4
   245                           
   246                           	psect	clrtext
   247  07F8                     clear_ram0:	
   248                           ;	Called with FSR containing the base address, and
   249                           ;	W with the last address+1
   250                           
   251  07F8  0064               	clrwdt	;clear the watchdog before getting into this loop
   252  07F9                     clrloop0:
   253  07F9  0180               	clrf	0	;clear RAM location pointed to by FSR
   254  07FA  0A84               	incf	4,f	;increment pointer
   255  07FB  0604               	xorwf	4,w	;XOR with final address
   256  07FC  1903               	btfsc	3,2	;have we reached the end yet?
   257  07FD  3400               	retlw	0	;all done for this memory range, return
   258  07FE  0604               	xorwf	4,w	;XOR again to restore value
   259  07FF  2FF9               	goto	clrloop0	;do the next byte
   260                           
   261                           	psect	cstackBANK1
   262  00B1                     __pcstackBANK1:
   263  00B1                     ?_PrepareTempHumDataPacket:
   264  00B1                     PrepareTempHumDataPacket@temp:	
   265                           ; 1 bytes @ 0x0
   266                           
   267                           
   268                           ; 4 bytes @ 0x0
   269  00B1                     	ds	4
   270  00B5                     PrepareTempHumDataPacket@hum:
   271                           
   272                           ; 4 bytes @ 0x4
   273  00B5                     	ds	4
   274  00B9                     _PrepareTempHumDataPacket$711:
   275                           
   276                           ; 4 bytes @ 0x8
   277  00B9                     	ds	4
   278                           
   279                           	psect	cstackCOMMON
   280  0070                     __pcstackCOMMON:
   281  0070                     ?_Init:
   282  0070                     ?_UART_TxBoolDataPacket:	
   283                           ; 1 bytes @ 0x0
   284                           
   285  0070                     ?_UART_TxTempHumDataPacket:	
   286                           ; 1 bytes @ 0x0
   287                           
   288  0070                     ?_HandleRequest:	
   289                           ; 1 bytes @ 0x0
   290                           
   291  0070                     ?_ISR:	
   292                           ; 1 bytes @ 0x0
   293                           
   294  0070                     ??_ISR:	
   295                           ; 1 bytes @ 0x0
   296                           
   297  0070                     ?_UART_TxChar:	
   298                           ; 1 bytes @ 0x0
   299                           
   300  0070                     ?_main:	
   301                           ; 1 bytes @ 0x0
   302                           
   303                           
   304                           ; 2 bytes @ 0x0
   305  0070                     	ds	3
   306  0073                     ??_Init:
   307  0073                     ?_PrepareBoolDataPacket:	
   308                           ; 1 bytes @ 0x3
   309                           
   310  0073                     ??_UART_TxChar:	
   311                           ; 1 bytes @ 0x3
   312                           
   313  0073                     ??___aldiv:	
   314                           ; 1 bytes @ 0x3
   315                           
   316  0073                     UART_TxChar@ch:	
   317                           ; 1 bytes @ 0x3
   318                           
   319  0073                     PrepareBoolDataPacket@state:	
   320                           ; 1 bytes @ 0x3
   321                           
   322  0073                     ___fladd@signs:	
   323                           ; 1 bytes @ 0x3
   324                           
   325                           
   326                           ; 1 bytes @ 0x3
   327  0073                     	ds	1
   328  0074                     ??_UART_Init:
   329  0074                     ??_PrepareBoolDataPacket:	
   330                           ; 1 bytes @ 0x4
   331                           
   332  0074                     ??_UART_TxBoolDataPacket:	
   333                           ; 1 bytes @ 0x4
   334                           
   335  0074                     ??_UART_TxTempHumDataPacket:	
   336                           ; 1 bytes @ 0x4
   337                           
   338  0074                     ___fladd@aexp:	
   339                           ; 1 bytes @ 0x4
   340                           
   341                           
   342                           ; 1 bytes @ 0x4
   343  0074                     	ds	1
   344  0075                     UART_TxTempHumDataPacket@dataPacket:
   345  0075                     UART_TxBoolDataPacket@dataPacket:	
   346                           ; 1 bytes @ 0x5
   347                           
   348  0075                     PrepareBoolDataPacket@type:	
   349                           ; 1 bytes @ 0x5
   350                           
   351  0075                     ___fladd@bexp:	
   352                           ; 1 bytes @ 0x5
   353                           
   354                           
   355                           ; 1 bytes @ 0x5
   356  0075                     	ds	1
   357  0076                     ___fladd@grs:
   358                           
   359                           ; 1 bytes @ 0x6
   360  0076                     	ds	1
   361  0077                     ??_HandleRequest:
   362  0077                     ??___flsub:	
   363                           ; 1 bytes @ 0x7
   364                           
   365                           
   366                           ; 1 bytes @ 0x7
   367  0077                     	ds	1
   368                           
   369                           	psect	cstackBANK0
   370  0020                     __pcstackBANK0:
   371  0020                     ?___aldiv:
   372  0020                     ?___fladd:	
   373                           ; 4 bytes @ 0x0
   374                           
   375  0020                     ___aldiv@divisor:	
   376                           ; 4 bytes @ 0x0
   377                           
   378  0020                     ___fladd@b:	
   379                           ; 4 bytes @ 0x0
   380                           
   381                           
   382                           ; 4 bytes @ 0x0
   383  0020                     	ds	4
   384  0024                     ___aldiv@dividend:
   385  0024                     ___fladd@a:	
   386                           ; 4 bytes @ 0x4
   387                           
   388                           
   389                           ; 4 bytes @ 0x4
   390  0024                     	ds	4
   391  0028                     ??___fladd:
   392  0028                     ___aldiv@counter:	
   393                           ; 1 bytes @ 0x8
   394                           
   395                           
   396                           ; 1 bytes @ 0x8
   397  0028                     	ds	1
   398  0029                     ___aldiv@sign:
   399                           
   400                           ; 1 bytes @ 0x9
   401  0029                     	ds	1
   402  002A                     ___aldiv@quotient:
   403                           
   404                           ; 4 bytes @ 0xA
   405  002A                     	ds	4
   406  002E                     ?_UART_Init:
   407  002E                     UART_Init@baudRate:	
   408                           ; 1 bytes @ 0xE
   409                           
   410                           
   411                           ; 4 bytes @ 0xE
   412  002E                     	ds	2
   413  0030                     ?___fltol:
   414  0030                     ___fltol@f1:	
   415                           ; 4 bytes @ 0x10
   416                           
   417                           
   418                           ; 4 bytes @ 0x10
   419  0030                     	ds	4
   420  0034                     ??___fltol:
   421                           
   422                           ; 1 bytes @ 0x14
   423  0034                     	ds	5
   424  0039                     ___fltol@sign1:
   425                           
   426                           ; 1 bytes @ 0x19
   427  0039                     	ds	1
   428  003A                     ___fltol@exp1:
   429                           
   430                           ; 1 bytes @ 0x1A
   431  003A                     	ds	1
   432  003B                     ?___xxtofl:
   433  003B                     ___xxtofl@val:	
   434                           ; 4 bytes @ 0x1B
   435                           
   436                           
   437                           ; 4 bytes @ 0x1B
   438  003B                     	ds	4
   439  003F                     ??___xxtofl:
   440                           
   441                           ; 1 bytes @ 0x1F
   442  003F                     	ds	4
   443  0043                     ___xxtofl@sign:
   444                           
   445                           ; 1 bytes @ 0x23
   446  0043                     	ds	1
   447  0044                     ___xxtofl@exp:
   448                           
   449                           ; 1 bytes @ 0x24
   450  0044                     	ds	1
   451  0045                     ___xxtofl@arg:
   452                           
   453                           ; 4 bytes @ 0x25
   454  0045                     	ds	4
   455  0049                     ?___flsub:
   456  0049                     ___flsub@a:	
   457                           ; 4 bytes @ 0x29
   458                           
   459                           
   460                           ; 4 bytes @ 0x29
   461  0049                     	ds	4
   462  004D                     ___flsub@b:
   463                           
   464                           ; 4 bytes @ 0x2D
   465  004D                     	ds	4
   466  0051                     ?___fldiv:
   467  0051                     ___fldiv@a:	
   468                           ; 4 bytes @ 0x31
   469                           
   470                           
   471                           ; 4 bytes @ 0x31
   472  0051                     	ds	4
   473  0055                     ___fldiv@b:
   474                           
   475                           ; 4 bytes @ 0x35
   476  0055                     	ds	4
   477  0059                     ??___fldiv:
   478                           
   479                           ; 1 bytes @ 0x39
   480  0059                     	ds	5
   481  005E                     ___fldiv@rem:
   482                           
   483                           ; 4 bytes @ 0x3E
   484  005E                     	ds	4
   485  0062                     ___fldiv@sign:
   486                           
   487                           ; 1 bytes @ 0x42
   488  0062                     	ds	1
   489  0063                     ___fldiv@new_exp:
   490                           
   491                           ; 2 bytes @ 0x43
   492  0063                     	ds	2
   493  0065                     ___fldiv@grs:
   494                           
   495                           ; 4 bytes @ 0x45
   496  0065                     	ds	4
   497  0069                     ___fldiv@bexp:
   498                           
   499                           ; 1 bytes @ 0x49
   500  0069                     	ds	1
   501  006A                     ___fldiv@aexp:
   502                           
   503                           ; 1 bytes @ 0x4A
   504  006A                     	ds	1
   505  006B                     ??_PrepareTempHumDataPacket:
   506                           
   507                           ; 1 bytes @ 0x4B
   508  006B                     	ds	4
   509  006F                     ??_main:
   510                           
   511                           ; 1 bytes @ 0x4F
   512  006F                     	ds	1
   513                           
   514                           	psect	maintext
   515  0F6A                     __pmaintext:	
   516 ;;
   517 ;;Main: autosize = 0, tempsize = 1, incstack = 0, save=0
   518 ;;
   519 ;; *************** function _main *****************
   520 ;; Defined at:
   521 ;;		line 56 in file "main.c"
   522 ;; Parameters:    Size  Location     Type
   523 ;;		None
   524 ;; Auto vars:     Size  Location     Type
   525 ;;		None
   526 ;; Return value:  Size  Location     Type
   527 ;;                  2   62[None  ] int 
   528 ;; Registers used:
   529 ;;		wreg, fsr0l, fsr0h, status,2, status,0, btemp+1, pclath, cstack
   530 ;; Tracked objects:
   531 ;;		On entry : B00/0
   532 ;;		On exit  : 0/0
   533 ;;		Unchanged: 0/0
   534 ;; Data sizes:     COMMON   BANK0   BANK1   BANK3   BANK2
   535 ;;      Params:         0       0       0       0       0
   536 ;;      Locals:         0       0       0       0       0
   537 ;;      Temps:          0       1       0       0       0
   538 ;;      Totals:         0       1       0       0       0
   539 ;;Total ram usage:        1 bytes
   540 ;; Hardware stack levels required when called: 5
   541 ;; This function calls:
   542 ;;		_HandleRequest
   543 ;;		_Init
   544 ;;		_PrepareBoolDataPacket
   545 ;;		_PrepareTempHumDataPacket
   546 ;;		_UART_Init
   547 ;;		_UART_TxBoolDataPacket
   548 ;;		_UART_TxTempHumDataPacket
   549 ;; This function is called by:
   550 ;;		Startup code after reset
   551 ;; This function uses a non-reentrant model
   552 ;;
   553                           
   554                           
   555                           ;psect for function _main
   556  0F6A                     _main:
   557  0F6A                     l2149:	
   558                           ;incstack = 0
   559                           ; Regs used in _main: [wreg-fsr0h+status,2+status,0+btemp+1+pclath+cstack]
   560                           
   561                           
   562                           ;main.c: 58:     Init();
   563  0F6A  120A  158A  2646  120A  158A  	fcall	_Init
   564                           
   565                           ;main.c: 59:     UART_Init(115200);
   566  0F6F  3000               	movlw	0
   567  0F70  1283               	bcf	3,5	;RP0=0, select bank0
   568  0F71  1303               	bcf	3,6	;RP1=0, select bank0
   569  0F72  00B1               	movwf	UART_Init@baudRate+3
   570  0F73  3001               	movlw	1
   571  0F74  00B0               	movwf	UART_Init@baudRate+2
   572  0F75  30C2               	movlw	194
   573  0F76  00AF               	movwf	UART_Init@baudRate+1
   574  0F77  3000               	movlw	0
   575  0F78  00AE               	movwf	UART_Init@baudRate
   576  0F79  120A  118A  278C  120A  158A  	fcall	_UART_Init
   577  0F7E                     l2151:
   578                           
   579                           ;main.c: 60:     TRISD=0x00;
   580  0F7E  1683               	bsf	3,5	;RP0=1, select bank1
   581  0F7F  1303               	bcf	3,6	;RP1=0, select bank1
   582  0F80  0188               	clrf	8	;volatile
   583  0F81                     l2153:
   584                           
   585                           ;main.c: 61:     PORTD=0x00;
   586  0F81  1283               	bcf	3,5	;RP0=0, select bank0
   587  0F82  1303               	bcf	3,6	;RP1=0, select bank0
   588  0F83  0188               	clrf	8	;volatile
   589                           
   590                           ;main.c: 63:     PrepareBoolDataPacket(0x08, 0x01);
   591  0F84  01F3               	clrf	PrepareBoolDataPacket@state
   592  0F85  0AF3               	incf	PrepareBoolDataPacket@state,f
   593  0F86  3008               	movlw	8
   594  0F87  120A  158A  2659  120A  158A  	fcall	_PrepareBoolDataPacket
   595  0F8C                     l2155:
   596                           
   597                           ;main.c: 64:     UART_TxBoolDataPacket(boolDataPacketTx);
   598  0F8C  30AD               	movlw	(low (_boolDataPacketTx| 0))& (0+255)
   599  0F8D  120A  158A  2686  120A  158A  	fcall	_UART_TxBoolDataPacket
   600  0F92                     l2157:
   601                           
   602                           ;main.c: 65:     PrepareBoolDataPacket(0x10, 0x00);
   603  0F92  01F3               	clrf	PrepareBoolDataPacket@state
   604  0F93  3010               	movlw	16
   605  0F94  120A  158A  2659  120A  158A  	fcall	_PrepareBoolDataPacket
   606                           
   607                           ;main.c: 66:     UART_TxBoolDataPacket(boolDataPacketTx);
   608  0F99  30AD               	movlw	(low (_boolDataPacketTx| 0))& (0+255)
   609  0F9A  120A  158A  2686  120A  158A  	fcall	_UART_TxBoolDataPacket
   610  0F9F                     l2159:
   611                           
   612                           ;main.c: 67:     PrepareTempHumDataPacket(20.5, 99.9);
   613  0F9F  3041               	movlw	65
   614  0FA0  1683               	bsf	3,5	;RP0=1, select bank1
   615  0FA1  1303               	bcf	3,6	;RP1=0, select bank1
   616  0FA2  00B4               	movwf	(PrepareTempHumDataPacket@temp+3)^(0+128)
   617  0FA3  30A4               	movlw	164
   618  0FA4  00B3               	movwf	(PrepareTempHumDataPacket@temp+2)^(0+128)
   619  0FA5  3000               	movlw	0
   620  0FA6  00B2               	movwf	(PrepareTempHumDataPacket@temp+1)^(0+128)
   621  0FA7  3000               	movlw	0
   622  0FA8  00B1               	movwf	PrepareTempHumDataPacket@temp^(0+128)
   623  0FA9  3042               	movlw	66
   624  0FAA  00B8               	movwf	(PrepareTempHumDataPacket@hum+3)^(0+128)
   625  0FAB  30C7               	movlw	199
   626  0FAC  00B7               	movwf	(PrepareTempHumDataPacket@hum+2)^(0+128)
   627  0FAD  30CC               	movlw	204
   628  0FAE  00B6               	movwf	(PrepareTempHumDataPacket@hum+1)^(0+128)
   629  0FAF  30CD               	movlw	205
   630  0FB0  00B5               	movwf	PrepareTempHumDataPacket@hum^(0+128)
   631  0FB1  120A  118A  248C  120A  158A  	fcall	_PrepareTempHumDataPacket
   632  0FB6                     l2161:
   633                           
   634                           ;main.c: 68:     UART_TxTempHumDataPacket(tempHumDataPacketTx);
   635  0FB6  30A6               	movlw	(low (_tempHumDataPacketTx| 0))& (0+255)
   636  0FB7  120A  158A  266B  120A  158A  	fcall	_UART_TxTempHumDataPacket
   637  0FBC                     l2163:
   638                           
   639                           ;main.c: 71:     {;main.c: 72:         if(flags &= 1<<0)
   640  0FBC  3001               	movlw	1
   641  0FBD  1283               	bcf	3,5	;RP0=0, select bank0
   642  0FBE  1303               	bcf	3,6	;RP1=0, select bank0
   643  0FBF  00EF               	movwf	??_main
   644  0FC0  086F               	movf	??_main,w
   645  0FC1  1683               	bsf	3,5	;RP0=1, select bank1
   646  0FC2  1303               	bcf	3,6	;RP1=0, select bank1
   647  0FC3  05A5               	andwf	_flags^(0+128),f
   648  0FC4  1903               	btfsc	3,2
   649  0FC5  2FC7               	goto	u3021
   650  0FC6  2FC8               	goto	u3020
   651  0FC7                     u3021:
   652  0FC7  2FEF               	goto	l2179
   653  0FC8                     u3020:
   654  0FC8                     l2165:
   655                           
   656                           ;main.c: 73:         {;main.c: 74:             flags &= ~(1<<0);
   657  0FC8  30FE               	movlw	254
   658  0FC9  1283               	bcf	3,5	;RP0=0, select bank0
   659  0FCA  1303               	bcf	3,6	;RP1=0, select bank0
   660  0FCB  00EF               	movwf	??_main
   661  0FCC  086F               	movf	??_main,w
   662  0FCD  1683               	bsf	3,5	;RP0=1, select bank1
   663  0FCE  1303               	bcf	3,6	;RP1=0, select bank1
   664  0FCF  05A5               	andwf	_flags^(0+128),f
   665  0FD0                     l2167:
   666                           
   667                           ;main.c: 75:             dataPacketRx[partCounter] = receivedData;
   668  0FD0  087A               	movf	_receivedData,w
   669  0FD1  1283               	bcf	3,5	;RP0=0, select bank0
   670  0FD2  1303               	bcf	3,6	;RP1=0, select bank0
   671  0FD3  00EF               	movwf	??_main
   672  0FD4  0879               	movf	_partCounter,w
   673  0FD5  3EA0               	addlw	(low (_dataPacketRx| 0))& (0+255)
   674  0FD6  0084               	movwf	4
   675  0FD7  086F               	movf	??_main,w
   676  0FD8  1383               	bcf	3,7	;select IRP bank1
   677  0FD9  0080               	movwf	0
   678  0FDA                     l2169:
   679                           
   680                           ;main.c: 76:             partCounter ++;
   681  0FDA  3001               	movlw	1
   682  0FDB  00EF               	movwf	??_main
   683  0FDC  086F               	movf	??_main,w
   684  0FDD  07F9               	addwf	_partCounter,f
   685  0FDE                     l2171:
   686                           
   687                           ;main.c: 78:             if(receivedData == 0xFF || partCounter > 3)
   688  0FDE  0A7A               	incf	_receivedData,w
   689  0FDF  1903               	btfsc	3,2
   690  0FE0  2FE2               	goto	u3031
   691  0FE1  2FE3               	goto	u3030
   692  0FE2                     u3031:
   693  0FE2  2FE9               	goto	l2175
   694  0FE3                     u3030:
   695  0FE3                     l2173:
   696  0FE3  3004               	movlw	4
   697  0FE4  0279               	subwf	_partCounter,w
   698  0FE5  1C03               	skipc
   699  0FE6  2FE8               	goto	u3041
   700  0FE7  2FE9               	goto	u3040
   701  0FE8                     u3041:
   702  0FE8  2FEF               	goto	l2179
   703  0FE9                     u3040:
   704  0FE9                     l2175:
   705                           
   706                           ;main.c: 79:             {;main.c: 80:                 partCounter = 0;
   707  0FE9  01F9               	clrf	_partCounter
   708  0FEA                     l2177:
   709                           
   710                           ;main.c: 81:                 HandleRequest();
   711  0FEA  120A  158A  26C5  120A  158A  	fcall	_HandleRequest
   712  0FEF                     l2179:
   713                           
   714                           ;main.c: 84:         if(postscaler>500)
   715  0FEF  3001               	movlw	1
   716  0FF0  1683               	bsf	3,5	;RP0=1, select bank1
   717  0FF1  1303               	bcf	3,6	;RP1=0, select bank1
   718  0FF2  0224               	subwf	(_postscaler+1)^(0+128),w
   719  0FF3  30F5               	movlw	245
   720  0FF4  1903               	skipnz
   721  0FF5  0223               	subwf	_postscaler^(0+128),w
   722  0FF6  1C03               	skipc
   723  0FF7  2FF9               	goto	u3051
   724  0FF8  2FFA               	goto	u3050
   725  0FF9                     u3051:
   726  0FF9  2FBC               	goto	l2163
   727  0FFA                     u3050:
   728  0FFA                     l2181:
   729                           
   730                           ;main.c: 85:         {;main.c: 86:             postscaler = 0;
   731  0FFA  01A3               	clrf	_postscaler^(0+128)
   732  0FFB  01A4               	clrf	(_postscaler+1)^(0+128)
   733  0FFC  2FBC               	goto	l2163
   734  0FFD  120A  118A  280C   	ljmp	start
   735  1000                     __end_of_main:
   736                           
   737                           	psect	text1
   738  0E86                     __ptext1:	
   739 ;; *************** function _UART_TxBoolDataPacket *****************
   740 ;; Defined at:
   741 ;;		line 150 in file "main.c"
   742 ;; Parameters:    Size  Location     Type
   743 ;;  dataPacket      1    wreg     PTR unsigned char 
   744 ;;		 -> boolDataPacketTx(4), 
   745 ;; Auto vars:     Size  Location     Type
   746 ;;  dataPacket      1    5[COMMON] PTR unsigned char 
   747 ;;		 -> boolDataPacketTx(4), 
   748 ;; Return value:  Size  Location     Type
   749 ;;                  1    wreg      void 
   750 ;; Registers used:
   751 ;;		wreg, fsr0l, fsr0h, status,2, status,0, pclath, cstack
   752 ;; Tracked objects:
   753 ;;		On entry : 0/0
   754 ;;		On exit  : 0/0
   755 ;;		Unchanged: 0/0
   756 ;; Data sizes:     COMMON   BANK0   BANK1   BANK3   BANK2
   757 ;;      Params:         0       0       0       0       0
   758 ;;      Locals:         1       0       0       0       0
   759 ;;      Temps:          1       0       0       0       0
   760 ;;      Totals:         2       0       0       0       0
   761 ;;Total ram usage:        2 bytes
   762 ;; Hardware stack levels used: 1
   763 ;; Hardware stack levels required when called: 2
   764 ;; This function calls:
   765 ;;		_UART_TxChar
   766 ;; This function is called by:
   767 ;;		_main
   768 ;; This function uses a non-reentrant model
   769 ;;
   770                           
   771                           
   772                           ;psect for function _UART_TxBoolDataPacket
   773  0E86                     _UART_TxBoolDataPacket:
   774                           
   775                           ;incstack = 0
   776                           ; Regs used in _UART_TxBoolDataPacket: [wreg-fsr0h+status,2+status,0+pclath+cstack]
   777                           ;UART_TxBoolDataPacket@dataPacket stored from wreg
   778  0E86  00F5               	movwf	UART_TxBoolDataPacket@dataPacket
   779  0E87                     l1799:
   780                           
   781                           ;main.c: 150: void UART_TxBoolDataPacket(unsigned char dataPacket[4]);main.c: 151: {;mai
      +                          n.c: 152:     for(i=0;i<4;i++)
   782  0E87  01F8               	clrf	_i
   783  0E88                     l1801:
   784  0E88  3004               	movlw	4
   785  0E89  0278               	subwf	_i,w
   786  0E8A  1C03               	skipc
   787  0E8B  2E8D               	goto	u2341
   788  0E8C  2E8E               	goto	u2340
   789  0E8D                     u2341:
   790  0E8D  2E8F               	goto	l1805
   791  0E8E                     u2340:
   792  0E8E  2EA0               	goto	l101
   793  0E8F                     l1805:
   794                           
   795                           ;main.c: 153:     {;main.c: 154:         UART_TxChar(dataPacket[i]);
   796  0E8F  0878               	movf	_i,w
   797  0E90  0775               	addwf	UART_TxBoolDataPacket@dataPacket,w
   798  0E91  00F4               	movwf	??_UART_TxBoolDataPacket
   799  0E92  0874               	movf	??_UART_TxBoolDataPacket,w
   800  0E93  0084               	movwf	4
   801  0E94  1383               	bcf	3,7	;select IRP bank0
   802  0E95  0800               	movf	0,w
   803  0E96  120A  158A  264F  120A  158A  	fcall	_UART_TxChar
   804  0E9B                     l1807:
   805                           
   806                           ;main.c: 155:     }
   807  0E9B  3001               	movlw	1
   808  0E9C  00F4               	movwf	??_UART_TxBoolDataPacket
   809  0E9D  0874               	movf	??_UART_TxBoolDataPacket,w
   810  0E9E  07F8               	addwf	_i,f
   811  0E9F  2E88               	goto	l1801
   812  0EA0                     l101:
   813  0EA0  0008               	return
   814  0EA1                     __end_of_UART_TxBoolDataPacket:
   815                           
   816                           	psect	text2
   817  078C                     __ptext2:	
   818 ;; *************** function _UART_Init *****************
   819 ;; Defined at:
   820 ;;		line 114 in file "main.c"
   821 ;; Parameters:    Size  Location     Type
   822 ;;  baudRate        4   14[BANK0 ] unsigned long 
   823 ;; Auto vars:     Size  Location     Type
   824 ;;		None
   825 ;; Return value:  Size  Location     Type
   826 ;;                  1    wreg      void 
   827 ;; Registers used:
   828 ;;		wreg, status,2, status,0, pclath, cstack
   829 ;; Tracked objects:
   830 ;;		On entry : 0/0
   831 ;;		On exit  : 0/0
   832 ;;		Unchanged: 0/0
   833 ;; Data sizes:     COMMON   BANK0   BANK1   BANK3   BANK2
   834 ;;      Params:         0       4       0       0       0
   835 ;;      Locals:         0       0       0       0       0
   836 ;;      Temps:          4       0       0       0       0
   837 ;;      Totals:         4       4       0       0       0
   838 ;;Total ram usage:        8 bytes
   839 ;; Hardware stack levels used: 1
   840 ;; Hardware stack levels required when called: 2
   841 ;; This function calls:
   842 ;;		___aldiv
   843 ;; This function is called by:
   844 ;;		_main
   845 ;; This function uses a non-reentrant model
   846 ;;
   847                           
   848                           
   849                           ;psect for function _UART_Init
   850  078C                     _UART_Init:
   851  078C                     l2127:	
   852                           ;incstack = 0
   853                           ; Regs used in _UART_Init: [wreg+status,2+status,0+pclath+cstack]
   854                           
   855                           
   856                           ;main.c: 114: void UART_Init(unsigned long baudRate);main.c: 115: {;main.c: 116:     TRI
      +                          SC=0x80;
   857  078C  3080               	movlw	128
   858  078D  1683               	bsf	3,5	;RP0=1, select bank1
   859  078E  1303               	bcf	3,6	;RP1=0, select bank1
   860  078F  0087               	movwf	7	;volatile
   861                           
   862                           ;main.c: 117:     TXSTA=(1<<5);
   863  0790  3020               	movlw	32
   864  0791  0098               	movwf	24	;volatile
   865                           
   866                           ;main.c: 118:     RCSTA=(1<<7) | (1<<4);
   867  0792  3090               	movlw	144
   868  0793  1283               	bcf	3,5	;RP0=0, select bank0
   869  0794  1303               	bcf	3,6	;RP1=0, select bank0
   870  0795  0098               	movwf	24	;volatile
   871  0796                     l2129:
   872                           
   873                           ;main.c: 119:     SPBRG = (char)(20000000/(long)(64UL*baudRate))-1;
   874  0796  082E               	movf	UART_Init@baudRate,w
   875  0797  00F4               	movwf	??_UART_Init
   876  0798  082F               	movf	UART_Init@baudRate+1,w
   877  0799  00F5               	movwf	??_UART_Init+1
   878  079A  0830               	movf	UART_Init@baudRate+2,w
   879  079B  00F6               	movwf	??_UART_Init+2
   880  079C  0831               	movf	UART_Init@baudRate+3,w
   881  079D  00F7               	movwf	??_UART_Init+3
   882  079E  3006               	movlw	6
   883  079F                     u2995:
   884  079F  1003               	clrc
   885  07A0  0DF4               	rlf	??_UART_Init,f
   886  07A1  0DF5               	rlf	??_UART_Init+1,f
   887  07A2  0DF6               	rlf	??_UART_Init+2,f
   888  07A3  0DF7               	rlf	??_UART_Init+3,f
   889  07A4                     u2990:
   890  07A4  3EFF               	addlw	-1
   891  07A5  1D03               	skipz
   892  07A6  2F9F               	goto	u2995
   893  07A7  0877               	movf	??_UART_Init+3,w
   894  07A8  00A3               	movwf	___aldiv@divisor+3
   895  07A9  0876               	movf	??_UART_Init+2,w
   896  07AA  00A2               	movwf	___aldiv@divisor+2
   897  07AB  0875               	movf	??_UART_Init+1,w
   898  07AC  00A1               	movwf	___aldiv@divisor+1
   899  07AD  0874               	movf	??_UART_Init,w
   900  07AE  00A0               	movwf	___aldiv@divisor
   901  07AF  3001               	movlw	1
   902  07B0  00A7               	movwf	___aldiv@dividend+3
   903  07B1  3031               	movlw	49
   904  07B2  00A6               	movwf	___aldiv@dividend+2
   905  07B3  302D               	movlw	45
   906  07B4  00A5               	movwf	___aldiv@dividend+1
   907  07B5  3000               	movlw	0
   908  07B6  00A4               	movwf	___aldiv@dividend
   909  07B7  120A  118A  26EF  120A  118A  	fcall	___aldiv
   910  07BC  1283               	bcf	3,5	;RP0=0, select bank0
   911  07BD  1303               	bcf	3,6	;RP1=0, select bank0
   912  07BE  0820               	movf	?___aldiv,w
   913  07BF  3EFF               	addlw	255
   914  07C0  1683               	bsf	3,5	;RP0=1, select bank1
   915  07C1  1303               	bcf	3,6	;RP1=0, select bank1
   916  07C2  0099               	movwf	25	;volatile
   917  07C3                     l2131:
   918                           
   919                           ;main.c: 121:     INTCON |= 0xC0;
   920  07C3  30C0               	movlw	192
   921  07C4  00F4               	movwf	??_UART_Init
   922  07C5  0874               	movf	??_UART_Init,w
   923  07C6  048B               	iorwf	11,f	;volatile
   924  07C7                     l2133:
   925                           
   926                           ;main.c: 122:     PIE1 |= 0x22;
   927  07C7  3022               	movlw	34
   928  07C8  00F4               	movwf	??_UART_Init
   929  07C9  0874               	movf	??_UART_Init,w
   930  07CA  048C               	iorwf	12,f	;volatile
   931  07CB                     l2135:
   932                           
   933                           ;main.c: 124:     flags = 0;
   934  07CB  01A5               	clrf	_flags^(0+128)
   935  07CC                     l85:
   936  07CC  0008               	return
   937  07CD                     __end_of_UART_Init:
   938                           
   939                           	psect	text3
   940  06EF                     __ptext3:	
   941 ;; *************** function ___aldiv *****************
   942 ;; Defined at:
   943 ;;		line 5 in file "C:\Program Files\Microchip\xc8\v2.32\pic\sources\c90\common\aldiv.c"
   944 ;; Parameters:    Size  Location     Type
   945 ;;  divisor         4    0[BANK0 ] long 
   946 ;;  dividend        4    4[BANK0 ] long 
   947 ;; Auto vars:     Size  Location     Type
   948 ;;  quotient        4   10[BANK0 ] long 
   949 ;;  sign            1    9[BANK0 ] unsigned char 
   950 ;;  counter         1    8[BANK0 ] unsigned char 
   951 ;; Return value:  Size  Location     Type
   952 ;;                  4    0[BANK0 ] long 
   953 ;; Registers used:
   954 ;;		wreg, status,2, status,0
   955 ;; Tracked objects:
   956 ;;		On entry : 0/0
   957 ;;		On exit  : 0/0
   958 ;;		Unchanged: 0/0
   959 ;; Data sizes:     COMMON   BANK0   BANK1   BANK3   BANK2
   960 ;;      Params:         0       8       0       0       0
   961 ;;      Locals:         0       6       0       0       0
   962 ;;      Temps:          1       0       0       0       0
   963 ;;      Totals:         1      14       0       0       0
   964 ;;Total ram usage:       15 bytes
   965 ;; Hardware stack levels used: 1
   966 ;; Hardware stack levels required when called: 1
   967 ;; This function calls:
   968 ;;		Nothing
   969 ;; This function is called by:
   970 ;;		_UART_Init
   971 ;; This function uses a non-reentrant model
   972 ;;
   973                           
   974                           
   975                           ;psect for function ___aldiv
   976  06EF                     ___aldiv:
   977  06EF                     l2087:	
   978                           ;incstack = 0
   979                           ; Regs used in ___aldiv: [wreg+status,2+status,0]
   980                           
   981  06EF  1283               	bcf	3,5	;RP0=0, select bank0
   982  06F0  1303               	bcf	3,6	;RP1=0, select bank0
   983  06F1  01A9               	clrf	___aldiv@sign
   984  06F2                     l2089:
   985  06F2  1FA3               	btfss	___aldiv@divisor+3,7
   986  06F3  2EF5               	goto	u2891
   987  06F4  2EF6               	goto	u2890
   988  06F5                     u2891:
   989  06F5  2F03               	goto	l264
   990  06F6                     u2890:
   991  06F6                     l2091:
   992  06F6  09A0               	comf	___aldiv@divisor,f
   993  06F7  09A1               	comf	___aldiv@divisor+1,f
   994  06F8  09A2               	comf	___aldiv@divisor+2,f
   995  06F9  09A3               	comf	___aldiv@divisor+3,f
   996  06FA  0AA0               	incf	___aldiv@divisor,f
   997  06FB  1903               	skipnz
   998  06FC  0AA1               	incf	___aldiv@divisor+1,f
   999  06FD  1903               	skipnz
  1000  06FE  0AA2               	incf	___aldiv@divisor+2,f
  1001  06FF  1903               	skipnz
  1002  0700  0AA3               	incf	___aldiv@divisor+3,f
  1003  0701  01A9               	clrf	___aldiv@sign
  1004  0702  0AA9               	incf	___aldiv@sign,f
  1005  0703                     l264:
  1006  0703  1FA7               	btfss	___aldiv@dividend+3,7
  1007  0704  2F06               	goto	u2901
  1008  0705  2F07               	goto	u2900
  1009  0706                     u2901:
  1010  0706  2F16               	goto	l2097
  1011  0707                     u2900:
  1012  0707                     l2093:
  1013  0707  09A4               	comf	___aldiv@dividend,f
  1014  0708  09A5               	comf	___aldiv@dividend+1,f
  1015  0709  09A6               	comf	___aldiv@dividend+2,f
  1016  070A  09A7               	comf	___aldiv@dividend+3,f
  1017  070B  0AA4               	incf	___aldiv@dividend,f
  1018  070C  1903               	skipnz
  1019  070D  0AA5               	incf	___aldiv@dividend+1,f
  1020  070E  1903               	skipnz
  1021  070F  0AA6               	incf	___aldiv@dividend+2,f
  1022  0710  1903               	skipnz
  1023  0711  0AA7               	incf	___aldiv@dividend+3,f
  1024  0712                     l2095:
  1025  0712  3001               	movlw	1
  1026  0713  00F3               	movwf	??___aldiv
  1027  0714  0873               	movf	??___aldiv,w
  1028  0715  06A9               	xorwf	___aldiv@sign,f
  1029  0716                     l2097:
  1030  0716  3000               	movlw	0
  1031  0717  00AD               	movwf	___aldiv@quotient+3
  1032  0718  3000               	movlw	0
  1033  0719  00AC               	movwf	___aldiv@quotient+2
  1034  071A  3000               	movlw	0
  1035  071B  00AB               	movwf	___aldiv@quotient+1
  1036  071C  3000               	movlw	0
  1037  071D  00AA               	movwf	___aldiv@quotient
  1038  071E                     l2099:
  1039  071E  0823               	movf	___aldiv@divisor+3,w
  1040  071F  0422               	iorwf	___aldiv@divisor+2,w
  1041  0720  0421               	iorwf	___aldiv@divisor+1,w
  1042  0721  0420               	iorwf	___aldiv@divisor,w
  1043  0722  1903               	skipnz
  1044  0723  2F25               	goto	u2911
  1045  0724  2F26               	goto	u2910
  1046  0725                     u2911:
  1047  0725  2F73               	goto	l2119
  1048  0726                     u2910:
  1049  0726                     l2101:
  1050  0726  01A8               	clrf	___aldiv@counter
  1051  0727  0AA8               	incf	___aldiv@counter,f
  1052  0728  2F36               	goto	l2105
  1053  0729                     l2103:
  1054  0729  3001               	movlw	1
  1055  072A  00F3               	movwf	??___aldiv
  1056  072B                     u2925:
  1057  072B  1003               	clrc
  1058  072C  0DA0               	rlf	___aldiv@divisor,f
  1059  072D  0DA1               	rlf	___aldiv@divisor+1,f
  1060  072E  0DA2               	rlf	___aldiv@divisor+2,f
  1061  072F  0DA3               	rlf	___aldiv@divisor+3,f
  1062  0730  0BF3               	decfsz	??___aldiv,f
  1063  0731  2F2B               	goto	u2925
  1064  0732  3001               	movlw	1
  1065  0733  00F3               	movwf	??___aldiv
  1066  0734  0873               	movf	??___aldiv,w
  1067  0735  07A8               	addwf	___aldiv@counter,f
  1068  0736                     l2105:
  1069  0736  1FA3               	btfss	___aldiv@divisor+3,7
  1070  0737  2F39               	goto	u2931
  1071  0738  2F3A               	goto	u2930
  1072  0739                     u2931:
  1073  0739  2F29               	goto	l2103
  1074  073A                     u2930:
  1075  073A                     l2107:
  1076  073A  3001               	movlw	1
  1077  073B  00F3               	movwf	??___aldiv
  1078  073C                     u2945:
  1079  073C  1003               	clrc
  1080  073D  0DAA               	rlf	___aldiv@quotient,f
  1081  073E  0DAB               	rlf	___aldiv@quotient+1,f
  1082  073F  0DAC               	rlf	___aldiv@quotient+2,f
  1083  0740  0DAD               	rlf	___aldiv@quotient+3,f
  1084  0741  0BF3               	decfsz	??___aldiv,f
  1085  0742  2F3C               	goto	u2945
  1086  0743                     l2109:
  1087  0743  0823               	movf	___aldiv@divisor+3,w
  1088  0744  0227               	subwf	___aldiv@dividend+3,w
  1089  0745  1D03               	skipz
  1090  0746  2F51               	goto	u2955
  1091  0747  0822               	movf	___aldiv@divisor+2,w
  1092  0748  0226               	subwf	___aldiv@dividend+2,w
  1093  0749  1D03               	skipz
  1094  074A  2F51               	goto	u2955
  1095  074B  0821               	movf	___aldiv@divisor+1,w
  1096  074C  0225               	subwf	___aldiv@dividend+1,w
  1097  074D  1D03               	skipz
  1098  074E  2F51               	goto	u2955
  1099  074F  0820               	movf	___aldiv@divisor,w
  1100  0750  0224               	subwf	___aldiv@dividend,w
  1101  0751                     u2955:
  1102  0751  1C03               	skipc
  1103  0752  2F54               	goto	u2951
  1104  0753  2F55               	goto	u2950
  1105  0754                     u2951:
  1106  0754  2F64               	goto	l2115
  1107  0755                     u2950:
  1108  0755                     l2111:
  1109  0755  0820               	movf	___aldiv@divisor,w
  1110  0756  02A4               	subwf	___aldiv@dividend,f
  1111  0757  0821               	movf	___aldiv@divisor+1,w
  1112  0758  1C03               	skipc
  1113  0759  0F21               	incfsz	___aldiv@divisor+1,w
  1114  075A  02A5               	subwf	___aldiv@dividend+1,f
  1115  075B  0822               	movf	___aldiv@divisor+2,w
  1116  075C  1C03               	skipc
  1117  075D  0F22               	incfsz	___aldiv@divisor+2,w
  1118  075E  02A6               	subwf	___aldiv@dividend+2,f
  1119  075F  0823               	movf	___aldiv@divisor+3,w
  1120  0760  1C03               	skipc
  1121  0761  0F23               	incfsz	___aldiv@divisor+3,w
  1122  0762  02A7               	subwf	___aldiv@dividend+3,f
  1123  0763                     l2113:
  1124  0763  142A               	bsf	___aldiv@quotient,0
  1125  0764                     l2115:
  1126  0764  3001               	movlw	1
  1127  0765                     u2965:
  1128  0765  1003               	clrc
  1129  0766  0CA3               	rrf	___aldiv@divisor+3,f
  1130  0767  0CA2               	rrf	___aldiv@divisor+2,f
  1131  0768  0CA1               	rrf	___aldiv@divisor+1,f
  1132  0769  0CA0               	rrf	___aldiv@divisor,f
  1133  076A  3EFF               	addlw	-1
  1134  076B  1D03               	skipz
  1135  076C  2F65               	goto	u2965
  1136  076D                     l2117:
  1137  076D  3001               	movlw	1
  1138  076E  02A8               	subwf	___aldiv@counter,f
  1139  076F  1D03               	btfss	3,2
  1140  0770  2F72               	goto	u2971
  1141  0771  2F73               	goto	u2970
  1142  0772                     u2971:
  1143  0772  2F3A               	goto	l2107
  1144  0773                     u2970:
  1145  0773                     l2119:
  1146  0773  0829               	movf	___aldiv@sign,w
  1147  0774  1903               	btfsc	3,2
  1148  0775  2F77               	goto	u2981
  1149  0776  2F78               	goto	u2980
  1150  0777                     u2981:
  1151  0777  2F83               	goto	l2123
  1152  0778                     u2980:
  1153  0778                     l2121:
  1154  0778  09AA               	comf	___aldiv@quotient,f
  1155  0779  09AB               	comf	___aldiv@quotient+1,f
  1156  077A  09AC               	comf	___aldiv@quotient+2,f
  1157  077B  09AD               	comf	___aldiv@quotient+3,f
  1158  077C  0AAA               	incf	___aldiv@quotient,f
  1159  077D  1903               	skipnz
  1160  077E  0AAB               	incf	___aldiv@quotient+1,f
  1161  077F  1903               	skipnz
  1162  0780  0AAC               	incf	___aldiv@quotient+2,f
  1163  0781  1903               	skipnz
  1164  0782  0AAD               	incf	___aldiv@quotient+3,f
  1165  0783                     l2123:
  1166  0783  082D               	movf	___aldiv@quotient+3,w
  1167  0784  00A3               	movwf	?___aldiv+3
  1168  0785  082C               	movf	___aldiv@quotient+2,w
  1169  0786  00A2               	movwf	?___aldiv+2
  1170  0787  082B               	movf	___aldiv@quotient+1,w
  1171  0788  00A1               	movwf	?___aldiv+1
  1172  0789  082A               	movf	___aldiv@quotient,w
  1173  078A  00A0               	movwf	?___aldiv
  1174  078B                     l274:
  1175  078B  0008               	return
  1176  078C                     __end_of___aldiv:
  1177                           
  1178                           	psect	text4
  1179  0E59                     __ptext4:	
  1180 ;; *************** function _PrepareBoolDataPacket *****************
  1181 ;; Defined at:
  1182 ;;		line 172 in file "main.c"
  1183 ;; Parameters:    Size  Location     Type
  1184 ;;  type            1    wreg     unsigned char 
  1185 ;;  state           1    3[COMMON] unsigned char 
  1186 ;; Auto vars:     Size  Location     Type
  1187 ;;  type            1    5[COMMON] unsigned char 
  1188 ;; Return value:  Size  Location     Type
  1189 ;;                  1    wreg      void 
  1190 ;; Registers used:
  1191 ;;		wreg
  1192 ;; Tracked objects:
  1193 ;;		On entry : 0/0
  1194 ;;		On exit  : 0/0
  1195 ;;		Unchanged: 0/0
  1196 ;; Data sizes:     COMMON   BANK0   BANK1   BANK3   BANK2
  1197 ;;      Params:         1       0       0       0       0
  1198 ;;      Locals:         1       0       0       0       0
  1199 ;;      Temps:          1       0       0       0       0
  1200 ;;      Totals:         3       0       0       0       0
  1201 ;;Total ram usage:        3 bytes
  1202 ;; Hardware stack levels used: 1
  1203 ;; Hardware stack levels required when called: 1
  1204 ;; This function calls:
  1205 ;;		Nothing
  1206 ;; This function is called by:
  1207 ;;		_main
  1208 ;; This function uses a non-reentrant model
  1209 ;;
  1210                           
  1211                           
  1212                           ;psect for function _PrepareBoolDataPacket
  1213  0E59                     _PrepareBoolDataPacket:
  1214                           
  1215                           ;incstack = 0
  1216                           ; Regs used in _PrepareBoolDataPacket: [wreg]
  1217                           ;PrepareBoolDataPacket@type stored from wreg
  1218  0E59  00F5               	movwf	PrepareBoolDataPacket@type
  1219  0E5A                     l1795:
  1220                           
  1221                           ;main.c: 172: void PrepareBoolDataPacket(char type, char state);main.c: 173: {;main.c: 1
      +                          74:     boolDataPacketTx[0] = 1;
  1222  0E5A  1683               	bsf	3,5	;RP0=1, select bank1
  1223  0E5B  1303               	bcf	3,6	;RP1=0, select bank1
  1224  0E5C  01AD               	clrf	_boolDataPacketTx^(0+128)
  1225  0E5D  0AAD               	incf	_boolDataPacketTx^(0+128),f
  1226  0E5E                     l1797:
  1227                           
  1228                           ;main.c: 175:     boolDataPacketTx[1] = type;
  1229  0E5E  0875               	movf	PrepareBoolDataPacket@type,w
  1230  0E5F  00F4               	movwf	??_PrepareBoolDataPacket
  1231  0E60  0874               	movf	??_PrepareBoolDataPacket,w
  1232  0E61  00AE               	movwf	(_boolDataPacketTx^(0+128)+1)
  1233                           
  1234                           ;main.c: 176:     boolDataPacketTx[2] = state;
  1235  0E62  0873               	movf	PrepareBoolDataPacket@state,w
  1236  0E63  00F4               	movwf	??_PrepareBoolDataPacket
  1237  0E64  0874               	movf	??_PrepareBoolDataPacket,w
  1238  0E65  00AF               	movwf	(_boolDataPacketTx^(0+128)+2)
  1239                           
  1240                           ;main.c: 177:     boolDataPacketTx[3] = 0xFF;
  1241  0E66  30FF               	movlw	255
  1242  0E67  00F4               	movwf	??_PrepareBoolDataPacket
  1243  0E68  0874               	movf	??_PrepareBoolDataPacket,w
  1244  0E69  00B0               	movwf	(_boolDataPacketTx^(0+128)+3)
  1245  0E6A                     l107:
  1246  0E6A  0008               	return
  1247  0E6B                     __end_of_PrepareBoolDataPacket:
  1248                           
  1249                           	psect	text5
  1250  0E46                     __ptext5:	
  1251 ;; *************** function _Init *****************
  1252 ;; Defined at:
  1253 ;;		line 108 in file "main.c"
  1254 ;; Parameters:    Size  Location     Type
  1255 ;;		None
  1256 ;; Auto vars:     Size  Location     Type
  1257 ;;		None
  1258 ;; Return value:  Size  Location     Type
  1259 ;;                  1    wreg      void 
  1260 ;; Registers used:
  1261 ;;		wreg, status,2, status,0
  1262 ;; Tracked objects:
  1263 ;;		On entry : 0/0
  1264 ;;		On exit  : 0/0
  1265 ;;		Unchanged: 0/0
  1266 ;; Data sizes:     COMMON   BANK0   BANK1   BANK3   BANK2
  1267 ;;      Params:         0       0       0       0       0
  1268 ;;      Locals:         0       0       0       0       0
  1269 ;;      Temps:          1       0       0       0       0
  1270 ;;      Totals:         1       0       0       0       0
  1271 ;;Total ram usage:        1 bytes
  1272 ;; Hardware stack levels used: 1
  1273 ;; Hardware stack levels required when called: 1
  1274 ;; This function calls:
  1275 ;;		Nothing
  1276 ;; This function is called by:
  1277 ;;		_main
  1278 ;; This function uses a non-reentrant model
  1279 ;;
  1280                           
  1281                           
  1282                           ;psect for function _Init
  1283  0E46                     _Init:
  1284  0E46                     l1781:	
  1285                           ;incstack = 0
  1286                           ; Regs used in _Init: [wreg+status,2+status,0]
  1287                           
  1288                           
  1289                           ;main.c: 110:     INTCON |= 0xA0;
  1290  0E46  30A0               	movlw	160
  1291  0E47  00F3               	movwf	??_Init
  1292  0E48  0873               	movf	??_Init,w
  1293  0E49  048B               	iorwf	11,f	;volatile
  1294  0E4A                     l1783:
  1295                           
  1296                           ;main.c: 111:     OPTION_REG = 0x05;
  1297  0E4A  3005               	movlw	5
  1298  0E4B  1683               	bsf	3,5	;RP0=1, select bank1
  1299  0E4C  1303               	bcf	3,6	;RP1=0, select bank1
  1300  0E4D  0081               	movwf	1	;volatile
  1301  0E4E                     l82:
  1302  0E4E  0008               	return
  1303  0E4F                     __end_of_Init:
  1304                           
  1305                           	psect	text6
  1306  0EC5                     __ptext6:	
  1307 ;; *************** function _HandleRequest *****************
  1308 ;; Defined at:
  1309 ;;		line 180 in file "main.c"
  1310 ;; Parameters:    Size  Location     Type
  1311 ;;		None
  1312 ;; Auto vars:     Size  Location     Type
  1313 ;;		None
  1314 ;; Return value:  Size  Location     Type
  1315 ;;                  1    wreg      void 
  1316 ;; Registers used:
  1317 ;;		wreg, fsr0l, fsr0h, status,2, status,0, btemp+1, pclath, cstack
  1318 ;; Tracked objects:
  1319 ;;		On entry : 0/0
  1320 ;;		On exit  : 0/0
  1321 ;;		Unchanged: 0/0
  1322 ;; Data sizes:     COMMON   BANK0   BANK1   BANK3   BANK2
  1323 ;;      Params:         0       0       0       0       0
  1324 ;;      Locals:         0       0       0       0       0
  1325 ;;      Temps:          0       0       0       0       0
  1326 ;;      Totals:         0       0       0       0       0
  1327 ;;Total ram usage:        0 bytes
  1328 ;; Hardware stack levels used: 1
  1329 ;; Hardware stack levels required when called: 4
  1330 ;; This function calls:
  1331 ;;		_PrepareTempHumDataPacket
  1332 ;;		_UART_TxTempHumDataPacket
  1333 ;; This function is called by:
  1334 ;;		_main
  1335 ;; This function uses a non-reentrant model
  1336 ;;
  1337                           
  1338                           
  1339                           ;psect for function _HandleRequest
  1340  0EC5                     _HandleRequest:
  1341  0EC5                     l2137:	
  1342                           ;incstack = 0
  1343                           ; Regs used in _HandleRequest: [wreg-fsr0h+status,2+status,0+btemp+1+pclath+cstack]
  1344                           
  1345                           
  1346                           ;main.c: 182:     if(dataPacketRx[0] != 1)
  1347  0EC5  1683               	bsf	3,5	;RP0=1, select bank1
  1348  0EC6  1303               	bcf	3,6	;RP1=0, select bank1
  1349  0EC7  0320               	decf	_dataPacketRx^(0+128),w
  1350  0EC8  1903               	btfsc	3,2
  1351  0EC9  2ECB               	goto	u3001
  1352  0ECA  2ECC               	goto	u3000
  1353  0ECB                     u3001:
  1354  0ECB  2ECD               	goto	l2143
  1355  0ECC                     u3000:
  1356  0ECC  2EED               	goto	l111
  1357  0ECD                     l2143:
  1358                           
  1359                           ;main.c: 187:     {;main.c: 188:         if(dataPacketRx[1] == 0x01)
  1360  0ECD  0321               	decf	(_dataPacketRx^(0+128)+1),w
  1361  0ECE  1D03               	btfss	3,2
  1362  0ECF  2ED1               	goto	u3011
  1363  0ED0  2ED2               	goto	u3010
  1364  0ED1                     u3011:
  1365  0ED1  2EED               	goto	l111
  1366  0ED2                     u3010:
  1367  0ED2                     l2145:
  1368                           
  1369                           ;main.c: 189:         {;main.c: 191:             PrepareTempHumDataPacket(20.5, 99.9);
  1370  0ED2  3041               	movlw	65
  1371  0ED3  00B4               	movwf	(PrepareTempHumDataPacket@temp+3)^(0+128)
  1372  0ED4  30A4               	movlw	164
  1373  0ED5  00B3               	movwf	(PrepareTempHumDataPacket@temp+2)^(0+128)
  1374  0ED6  3000               	movlw	0
  1375  0ED7  00B2               	movwf	(PrepareTempHumDataPacket@temp+1)^(0+128)
  1376  0ED8  3000               	movlw	0
  1377  0ED9  00B1               	movwf	PrepareTempHumDataPacket@temp^(0+128)
  1378  0EDA  3042               	movlw	66
  1379  0EDB  00B8               	movwf	(PrepareTempHumDataPacket@hum+3)^(0+128)
  1380  0EDC  30C7               	movlw	199
  1381  0EDD  00B7               	movwf	(PrepareTempHumDataPacket@hum+2)^(0+128)
  1382  0EDE  30CC               	movlw	204
  1383  0EDF  00B6               	movwf	(PrepareTempHumDataPacket@hum+1)^(0+128)
  1384  0EE0  30CD               	movlw	205
  1385  0EE1  00B5               	movwf	PrepareTempHumDataPacket@hum^(0+128)
  1386  0EE2  120A  118A  248C  120A  158A  	fcall	_PrepareTempHumDataPacket
  1387  0EE7                     l2147:
  1388                           
  1389                           ;main.c: 192:             UART_TxTempHumDataPacket(tempHumDataPacketTx);
  1390  0EE7  30A6               	movlw	(low (_tempHumDataPacketTx| 0))& (0+255)
  1391  0EE8  120A  158A  266B  120A  158A  	fcall	_UART_TxTempHumDataPacket
  1392  0EED                     l111:
  1393  0EED  0008               	return
  1394  0EEE                     __end_of_HandleRequest:
  1395                           
  1396                           	psect	text7
  1397  0E6B                     __ptext7:	
  1398 ;; *************** function _UART_TxTempHumDataPacket *****************
  1399 ;; Defined at:
  1400 ;;		line 142 in file "main.c"
  1401 ;; Parameters:    Size  Location     Type
  1402 ;;  dataPacket      1    wreg     PTR unsigned char 
  1403 ;;		 -> tempHumDataPacketTx(7), 
  1404 ;; Auto vars:     Size  Location     Type
  1405 ;;  dataPacket      1    5[COMMON] PTR unsigned char 
  1406 ;;		 -> tempHumDataPacketTx(7), 
  1407 ;; Return value:  Size  Location     Type
  1408 ;;                  1    wreg      void 
  1409 ;; Registers used:
  1410 ;;		wreg, fsr0l, fsr0h, status,2, status,0, pclath, cstack
  1411 ;; Tracked objects:
  1412 ;;		On entry : 0/0
  1413 ;;		On exit  : 0/0
  1414 ;;		Unchanged: 0/0
  1415 ;; Data sizes:     COMMON   BANK0   BANK1   BANK3   BANK2
  1416 ;;      Params:         0       0       0       0       0
  1417 ;;      Locals:         1       0       0       0       0
  1418 ;;      Temps:          1       0       0       0       0
  1419 ;;      Totals:         2       0       0       0       0
  1420 ;;Total ram usage:        2 bytes
  1421 ;; Hardware stack levels used: 1
  1422 ;; Hardware stack levels required when called: 2
  1423 ;; This function calls:
  1424 ;;		_UART_TxChar
  1425 ;; This function is called by:
  1426 ;;		_main
  1427 ;;		_HandleRequest
  1428 ;; This function uses a non-reentrant model
  1429 ;;
  1430                           
  1431                           
  1432                           ;psect for function _UART_TxTempHumDataPacket
  1433  0E6B                     _UART_TxTempHumDataPacket:
  1434                           
  1435                           ;incstack = 0
  1436                           ; Regs used in _UART_TxTempHumDataPacket: [wreg-fsr0h+status,2+status,0+pclath+cstack]
  1437                           ;UART_TxTempHumDataPacket@dataPacket stored from wreg
  1438  0E6B  00F5               	movwf	UART_TxTempHumDataPacket@dataPacket
  1439  0E6C                     l1729:
  1440                           
  1441                           ;main.c: 142: void UART_TxTempHumDataPacket(unsigned char dataPacket[7]);main.c: 143: {;
      +                          main.c: 144:     for(i=0;i<7;i++)
  1442  0E6C  01F8               	clrf	_i
  1443  0E6D                     l1731:
  1444  0E6D  3007               	movlw	7
  1445  0E6E  0278               	subwf	_i,w
  1446  0E6F  1C03               	skipc
  1447  0E70  2E72               	goto	u2221
  1448  0E71  2E73               	goto	u2220
  1449  0E72                     u2221:
  1450  0E72  2E74               	goto	l1735
  1451  0E73                     u2220:
  1452  0E73  2E85               	goto	l96
  1453  0E74                     l1735:
  1454                           
  1455                           ;main.c: 145:     {;main.c: 146:         UART_TxChar(dataPacket[i]);
  1456  0E74  0878               	movf	_i,w
  1457  0E75  0775               	addwf	UART_TxTempHumDataPacket@dataPacket,w
  1458  0E76  00F4               	movwf	??_UART_TxTempHumDataPacket
  1459  0E77  0874               	movf	??_UART_TxTempHumDataPacket,w
  1460  0E78  0084               	movwf	4
  1461  0E79  1383               	bcf	3,7	;select IRP bank0
  1462  0E7A  0800               	movf	0,w
  1463  0E7B  120A  158A  264F  120A  158A  	fcall	_UART_TxChar
  1464  0E80                     l1737:
  1465                           
  1466                           ;main.c: 147:     }
  1467  0E80  3001               	movlw	1
  1468  0E81  00F4               	movwf	??_UART_TxTempHumDataPacket
  1469  0E82  0874               	movf	??_UART_TxTempHumDataPacket,w
  1470  0E83  07F8               	addwf	_i,f
  1471  0E84  2E6D               	goto	l1731
  1472  0E85                     l96:
  1473  0E85  0008               	return
  1474  0E86                     __end_of_UART_TxTempHumDataPacket:
  1475                           
  1476                           	psect	text8
  1477  0E4F                     __ptext8:	
  1478 ;; *************** function _UART_TxChar *****************
  1479 ;; Defined at:
  1480 ;;		line 127 in file "main.c"
  1481 ;; Parameters:    Size  Location     Type
  1482 ;;  ch              1    wreg     unsigned char 
  1483 ;; Auto vars:     Size  Location     Type
  1484 ;;  ch              1    3[COMMON] unsigned char 
  1485 ;; Return value:  Size  Location     Type
  1486 ;;                  1    wreg      void 
  1487 ;; Registers used:
  1488 ;;		wreg
  1489 ;; Tracked objects:
  1490 ;;		On entry : 0/0
  1491 ;;		On exit  : 0/0
  1492 ;;		Unchanged: 0/0
  1493 ;; Data sizes:     COMMON   BANK0   BANK1   BANK3   BANK2
  1494 ;;      Params:         0       0       0       0       0
  1495 ;;      Locals:         1       0       0       0       0
  1496 ;;      Temps:          0       0       0       0       0
  1497 ;;      Totals:         1       0       0       0       0
  1498 ;;Total ram usage:        1 bytes
  1499 ;; Hardware stack levels used: 1
  1500 ;; Hardware stack levels required when called: 1
  1501 ;; This function calls:
  1502 ;;		Nothing
  1503 ;; This function is called by:
  1504 ;;		_UART_TxTempHumDataPacket
  1505 ;;		_UART_TxBoolDataPacket
  1506 ;; This function uses a non-reentrant model
  1507 ;;
  1508                           
  1509                           
  1510                           ;psect for function _UART_TxChar
  1511  0E4F                     _UART_TxChar:
  1512                           
  1513                           ;incstack = 0
  1514                           ; Regs used in _UART_TxChar: [wreg]
  1515                           ;UART_TxChar@ch stored from wreg
  1516  0E4F  00F3               	movwf	UART_TxChar@ch
  1517  0E50                     l1483:
  1518  0E50                     l88:	
  1519                           ;main.c: 127: void UART_TxChar(unsigned char ch);main.c: 128: {;main.c: 129:     while(!
      +                          TXIF);
  1520                           
  1521  0E50  1283               	bcf	3,5	;RP0=0, select bank0
  1522  0E51  1303               	bcf	3,6	;RP1=0, select bank0
  1523  0E52  1E0C               	btfss	12,4	;volatile
  1524  0E53  2E55               	goto	u1681
  1525  0E54  2E56               	goto	u1680
  1526  0E55                     u1681:
  1527  0E55  2E50               	goto	l88
  1528  0E56                     u1680:
  1529  0E56                     l1485:
  1530                           
  1531                           ;main.c: 130:     TXREG=ch;
  1532  0E56  0873               	movf	UART_TxChar@ch,w
  1533  0E57  0099               	movwf	25	;volatile
  1534  0E58                     l91:
  1535  0E58  0008               	return
  1536  0E59                     __end_of_UART_TxChar:
  1537                           
  1538                           	psect	text9
  1539  048C                     __ptext9:	
  1540 ;; *************** function _PrepareTempHumDataPacket *****************
  1541 ;; Defined at:
  1542 ;;		line 161 in file "main.c"
  1543 ;; Parameters:    Size  Location     Type
  1544 ;;  temp            4    0[BANK1 ] float 
  1545 ;;  hum             4    4[BANK1 ] float 
  1546 ;; Auto vars:     Size  Location     Type
  1547 ;;		None
  1548 ;; Return value:  Size  Location     Type
  1549 ;;                  1    wreg      void 
  1550 ;; Registers used:
  1551 ;;		wreg, status,2, status,0, btemp+1, pclath, cstack
  1552 ;; Tracked objects:
  1553 ;;		On entry : 0/0
  1554 ;;		On exit  : 0/0
  1555 ;;		Unchanged: 0/0
  1556 ;; Data sizes:     COMMON   BANK0   BANK1   BANK3   BANK2
  1557 ;;      Params:         0       0       8       0       0
  1558 ;;      Locals:         0       0       4       0       0
  1559 ;;      Temps:          0       4       0       0       0
  1560 ;;      Totals:         0       4      12       0       0
  1561 ;;Total ram usage:       16 bytes
  1562 ;; Hardware stack levels used: 1
  1563 ;; Hardware stack levels required when called: 3
  1564 ;; This function calls:
  1565 ;;		___fldiv
  1566 ;;		___flsub
  1567 ;;		___fltol
  1568 ;;		___xxtofl
  1569 ;; This function is called by:
  1570 ;;		_main
  1571 ;;		_HandleRequest
  1572 ;; This function uses a non-reentrant model
  1573 ;;
  1574                           
  1575                           
  1576                           ;psect for function _PrepareTempHumDataPacket
  1577  048C                     _PrepareTempHumDataPacket:
  1578  048C                     l2073:	
  1579                           ;incstack = 0
  1580                           ; Regs used in _PrepareTempHumDataPacket: [wreg+status,2+status,0+btemp+1+pclath+cstack]
  1581                           
  1582                           
  1583                           ;main.c: 161: void PrepareTempHumDataPacket(float temp, float hum);main.c: 162: {;main.c
      +                          : 163:     tempHumDataPacketTx[0] = 1;
  1584  048C  1683               	bsf	3,5	;RP0=1, select bank1
  1585  048D  1303               	bcf	3,6	;RP1=0, select bank1
  1586  048E  01A6               	clrf	_tempHumDataPacketTx^(0+128)
  1587  048F  0AA6               	incf	_tempHumDataPacketTx^(0+128),f
  1588                           
  1589                           ;main.c: 164:     tempHumDataPacketTx[1] = 0x01;
  1590  0490  01A7               	clrf	(_tempHumDataPacketTx^(0+128)+1)
  1591  0491  0AA7               	incf	(_tempHumDataPacketTx^(0+128)+1),f
  1592  0492                     l2075:
  1593                           
  1594                           ;main.c: 165:     tempHumDataPacketTx[2] = (char)temp;
  1595  0492  0834               	movf	(PrepareTempHumDataPacket@temp+3)^(0+128),w
  1596  0493  1283               	bcf	3,5	;RP0=0, select bank0
  1597  0494  1303               	bcf	3,6	;RP1=0, select bank0
  1598  0495  00B3               	movwf	___fltol@f1+3
  1599  0496  1683               	bsf	3,5	;RP0=1, select bank1
  1600  0497  1303               	bcf	3,6	;RP1=0, select bank1
  1601  0498  0833               	movf	(PrepareTempHumDataPacket@temp+2)^(0+128),w
  1602  0499  1283               	bcf	3,5	;RP0=0, select bank0
  1603  049A  1303               	bcf	3,6	;RP1=0, select bank0
  1604  049B  00B2               	movwf	___fltol@f1+2
  1605  049C  1683               	bsf	3,5	;RP0=1, select bank1
  1606  049D  1303               	bcf	3,6	;RP1=0, select bank1
  1607  049E  0832               	movf	(PrepareTempHumDataPacket@temp+1)^(0+128),w
  1608  049F  1283               	bcf	3,5	;RP0=0, select bank0
  1609  04A0  1303               	bcf	3,6	;RP1=0, select bank0
  1610  04A1  00B1               	movwf	___fltol@f1+1
  1611  04A2  1683               	bsf	3,5	;RP0=1, select bank1
  1612  04A3  1303               	bcf	3,6	;RP1=0, select bank1
  1613  04A4  0831               	movf	PrepareTempHumDataPacket@temp^(0+128),w
  1614  04A5  1283               	bcf	3,5	;RP0=0, select bank0
  1615  04A6  1303               	bcf	3,6	;RP1=0, select bank0
  1616  04A7  00B0               	movwf	___fltol@f1
  1617  04A8  120A  158A  26EE  120A  118A  	fcall	___fltol
  1618  04AD  1283               	bcf	3,5	;RP0=0, select bank0
  1619  04AE  1303               	bcf	3,6	;RP1=0, select bank0
  1620  04AF  0830               	movf	?___fltol,w
  1621  04B0  00EB               	movwf	??_PrepareTempHumDataPacket
  1622  04B1  086B               	movf	??_PrepareTempHumDataPacket,w
  1623  04B2  1683               	bsf	3,5	;RP0=1, select bank1
  1624  04B3  1303               	bcf	3,6	;RP1=0, select bank1
  1625  04B4  00A8               	movwf	(_tempHumDataPacketTx^(0+128)+2)
  1626  04B5                     l2077:
  1627                           
  1628                           ;main.c: 166:     tempHumDataPacketTx[3] = (char)((temp-(char)temp)/0.1);
  1629  04B5  0834               	movf	(PrepareTempHumDataPacket@temp+3)^(0+128),w
  1630  04B6  1283               	bcf	3,5	;RP0=0, select bank0
  1631  04B7  1303               	bcf	3,6	;RP1=0, select bank0
  1632  04B8  00D0               	movwf	___flsub@b+3
  1633  04B9  1683               	bsf	3,5	;RP0=1, select bank1
  1634  04BA  1303               	bcf	3,6	;RP1=0, select bank1
  1635  04BB  0833               	movf	(PrepareTempHumDataPacket@temp+2)^(0+128),w
  1636  04BC  1283               	bcf	3,5	;RP0=0, select bank0
  1637  04BD  1303               	bcf	3,6	;RP1=0, select bank0
  1638  04BE  00CF               	movwf	___flsub@b+2
  1639  04BF  1683               	bsf	3,5	;RP0=1, select bank1
  1640  04C0  1303               	bcf	3,6	;RP1=0, select bank1
  1641  04C1  0832               	movf	(PrepareTempHumDataPacket@temp+1)^(0+128),w
  1642  04C2  1283               	bcf	3,5	;RP0=0, select bank0
  1643  04C3  1303               	bcf	3,6	;RP1=0, select bank0
  1644  04C4  00CE               	movwf	___flsub@b+1
  1645  04C5  1683               	bsf	3,5	;RP0=1, select bank1
  1646  04C6  1303               	bcf	3,6	;RP1=0, select bank1
  1647  04C7  0831               	movf	PrepareTempHumDataPacket@temp^(0+128),w
  1648  04C8  1283               	bcf	3,5	;RP0=0, select bank0
  1649  04C9  1303               	bcf	3,6	;RP1=0, select bank0
  1650  04CA  00CD               	movwf	___flsub@b
  1651  04CB  1683               	bsf	3,5	;RP0=1, select bank1
  1652  04CC  1303               	bcf	3,6	;RP1=0, select bank1
  1653  04CD  0834               	movf	(PrepareTempHumDataPacket@temp+3)^(0+128),w
  1654  04CE  1283               	bcf	3,5	;RP0=0, select bank0
  1655  04CF  1303               	bcf	3,6	;RP1=0, select bank0
  1656  04D0  00B3               	movwf	___fltol@f1+3
  1657  04D1  1683               	bsf	3,5	;RP0=1, select bank1
  1658  04D2  1303               	bcf	3,6	;RP1=0, select bank1
  1659  04D3  0833               	movf	(PrepareTempHumDataPacket@temp+2)^(0+128),w
  1660  04D4  1283               	bcf	3,5	;RP0=0, select bank0
  1661  04D5  1303               	bcf	3,6	;RP1=0, select bank0
  1662  04D6  00B2               	movwf	___fltol@f1+2
  1663  04D7  1683               	bsf	3,5	;RP0=1, select bank1
  1664  04D8  1303               	bcf	3,6	;RP1=0, select bank1
  1665  04D9  0832               	movf	(PrepareTempHumDataPacket@temp+1)^(0+128),w
  1666  04DA  1283               	bcf	3,5	;RP0=0, select bank0
  1667  04DB  1303               	bcf	3,6	;RP1=0, select bank0
  1668  04DC  00B1               	movwf	___fltol@f1+1
  1669  04DD  1683               	bsf	3,5	;RP0=1, select bank1
  1670  04DE  1303               	bcf	3,6	;RP1=0, select bank1
  1671  04DF  0831               	movf	PrepareTempHumDataPacket@temp^(0+128),w
  1672  04E0  1283               	bcf	3,5	;RP0=0, select bank0
  1673  04E1  1303               	bcf	3,6	;RP1=0, select bank0
  1674  04E2  00B0               	movwf	___fltol@f1
  1675  04E3  120A  158A  26EE  120A  118A  	fcall	___fltol
  1676  04E8  1283               	bcf	3,5	;RP0=0, select bank0
  1677  04E9  1303               	bcf	3,6	;RP1=0, select bank0
  1678  04EA  0830               	movf	?___fltol,w
  1679  04EB  00EB               	movwf	??_PrepareTempHumDataPacket
  1680  04EC  01EC               	clrf	??_PrepareTempHumDataPacket+1
  1681  04ED  01ED               	clrf	??_PrepareTempHumDataPacket+2
  1682  04EE  01EE               	clrf	??_PrepareTempHumDataPacket+3
  1683  04EF  086E               	movf	??_PrepareTempHumDataPacket+3,w
  1684  04F0  00BE               	movwf	___xxtofl@val+3
  1685  04F1  086D               	movf	??_PrepareTempHumDataPacket+2,w
  1686  04F2  00BD               	movwf	___xxtofl@val+2
  1687  04F3  086C               	movf	??_PrepareTempHumDataPacket+1,w
  1688  04F4  00BC               	movwf	___xxtofl@val+1
  1689  04F5  086B               	movf	??_PrepareTempHumDataPacket,w
  1690  04F6  00BB               	movwf	___xxtofl@val
  1691  04F7  3001               	movlw	1
  1692  04F8  120A  118A  2633  120A  118A  	fcall	___xxtofl
  1693  04FD  1283               	bcf	3,5	;RP0=0, select bank0
  1694  04FE  1303               	bcf	3,6	;RP1=0, select bank0
  1695  04FF  083E               	movf	?___xxtofl+3,w
  1696  0500  00CC               	movwf	___flsub@a+3
  1697  0501  083D               	movf	?___xxtofl+2,w
  1698  0502  00CB               	movwf	___flsub@a+2
  1699  0503  083C               	movf	?___xxtofl+1,w
  1700  0504  00CA               	movwf	___flsub@a+1
  1701  0505  083B               	movf	?___xxtofl,w
  1702  0506  00C9               	movwf	___flsub@a
  1703  0507  120A  158A  26A1  120A  118A  	fcall	___flsub
  1704  050C  1283               	bcf	3,5	;RP0=0, select bank0
  1705  050D  1303               	bcf	3,6	;RP1=0, select bank0
  1706  050E  084C               	movf	?___flsub+3,w
  1707  050F  00D8               	movwf	___fldiv@b+3
  1708  0510  084B               	movf	?___flsub+2,w
  1709  0511  00D7               	movwf	___fldiv@b+2
  1710  0512  084A               	movf	?___flsub+1,w
  1711  0513  00D6               	movwf	___fldiv@b+1
  1712  0514  0849               	movf	?___flsub,w
  1713  0515  00D5               	movwf	___fldiv@b
  1714  0516  303D               	movlw	61
  1715  0517  00D4               	movwf	___fldiv@a+3
  1716  0518  30CC               	movlw	204
  1717  0519  00D3               	movwf	___fldiv@a+2
  1718  051A  30CC               	movlw	204
  1719  051B  00D2               	movwf	___fldiv@a+1
  1720  051C  30CD               	movlw	205
  1721  051D  00D1               	movwf	___fldiv@a
  1722  051E  120A  118A  22AF  120A  118A  	fcall	___fldiv
  1723  0523  1283               	bcf	3,5	;RP0=0, select bank0
  1724  0524  1303               	bcf	3,6	;RP1=0, select bank0
  1725  0525  0854               	movf	?___fldiv+3,w
  1726  0526  1683               	bsf	3,5	;RP0=1, select bank1
  1727  0527  1303               	bcf	3,6	;RP1=0, select bank1
  1728  0528  00BC               	movwf	(_PrepareTempHumDataPacket$711+3)^(0+128)
  1729  0529  1283               	bcf	3,5	;RP0=0, select bank0
  1730  052A  1303               	bcf	3,6	;RP1=0, select bank0
  1731  052B  0853               	movf	?___fldiv+2,w
  1732  052C  1683               	bsf	3,5	;RP0=1, select bank1
  1733  052D  1303               	bcf	3,6	;RP1=0, select bank1
  1734  052E  00BB               	movwf	(_PrepareTempHumDataPacket$711+2)^(0+128)
  1735  052F  1283               	bcf	3,5	;RP0=0, select bank0
  1736  0530  1303               	bcf	3,6	;RP1=0, select bank0
  1737  0531  0852               	movf	?___fldiv+1,w
  1738  0532  1683               	bsf	3,5	;RP0=1, select bank1
  1739  0533  1303               	bcf	3,6	;RP1=0, select bank1
  1740  0534  00BA               	movwf	(_PrepareTempHumDataPacket$711+1)^(0+128)
  1741  0535  1283               	bcf	3,5	;RP0=0, select bank0
  1742  0536  1303               	bcf	3,6	;RP1=0, select bank0
  1743  0537  0851               	movf	?___fldiv,w
  1744  0538  1683               	bsf	3,5	;RP0=1, select bank1
  1745  0539  1303               	bcf	3,6	;RP1=0, select bank1
  1746  053A  00B9               	movwf	_PrepareTempHumDataPacket$711^(0+128)
  1747  053B                     l2079:
  1748                           
  1749                           ;main.c: 166:     tempHumDataPacketTx[3] = (char)((temp-(char)temp)/0.1);
  1750  053B  083C               	movf	(_PrepareTempHumDataPacket$711+3)^(0+128),w
  1751  053C  1283               	bcf	3,5	;RP0=0, select bank0
  1752  053D  1303               	bcf	3,6	;RP1=0, select bank0
  1753  053E  00B3               	movwf	___fltol@f1+3
  1754  053F  1683               	bsf	3,5	;RP0=1, select bank1
  1755  0540  1303               	bcf	3,6	;RP1=0, select bank1
  1756  0541  083B               	movf	(_PrepareTempHumDataPacket$711+2)^(0+128),w
  1757  0542  1283               	bcf	3,5	;RP0=0, select bank0
  1758  0543  1303               	bcf	3,6	;RP1=0, select bank0
  1759  0544  00B2               	movwf	___fltol@f1+2
  1760  0545  1683               	bsf	3,5	;RP0=1, select bank1
  1761  0546  1303               	bcf	3,6	;RP1=0, select bank1
  1762  0547  083A               	movf	(_PrepareTempHumDataPacket$711+1)^(0+128),w
  1763  0548  1283               	bcf	3,5	;RP0=0, select bank0
  1764  0549  1303               	bcf	3,6	;RP1=0, select bank0
  1765  054A  00B1               	movwf	___fltol@f1+1
  1766  054B  1683               	bsf	3,5	;RP0=1, select bank1
  1767  054C  1303               	bcf	3,6	;RP1=0, select bank1
  1768  054D  0839               	movf	_PrepareTempHumDataPacket$711^(0+128),w
  1769  054E  1283               	bcf	3,5	;RP0=0, select bank0
  1770  054F  1303               	bcf	3,6	;RP1=0, select bank0
  1771  0550  00B0               	movwf	___fltol@f1
  1772  0551  120A  158A  26EE  120A  118A  	fcall	___fltol
  1773  0556  1283               	bcf	3,5	;RP0=0, select bank0
  1774  0557  1303               	bcf	3,6	;RP1=0, select bank0
  1775  0558  0830               	movf	?___fltol,w
  1776  0559  00EB               	movwf	??_PrepareTempHumDataPacket
  1777  055A  086B               	movf	??_PrepareTempHumDataPacket,w
  1778  055B  1683               	bsf	3,5	;RP0=1, select bank1
  1779  055C  1303               	bcf	3,6	;RP1=0, select bank1
  1780  055D  00A9               	movwf	(_tempHumDataPacketTx^(0+128)+3)
  1781  055E                     l2081:
  1782                           
  1783                           ;main.c: 167:     tempHumDataPacketTx[4] = (char)hum;
  1784  055E  0838               	movf	(PrepareTempHumDataPacket@hum+3)^(0+128),w
  1785  055F  1283               	bcf	3,5	;RP0=0, select bank0
  1786  0560  1303               	bcf	3,6	;RP1=0, select bank0
  1787  0561  00B3               	movwf	___fltol@f1+3
  1788  0562  1683               	bsf	3,5	;RP0=1, select bank1
  1789  0563  1303               	bcf	3,6	;RP1=0, select bank1
  1790  0564  0837               	movf	(PrepareTempHumDataPacket@hum+2)^(0+128),w
  1791  0565  1283               	bcf	3,5	;RP0=0, select bank0
  1792  0566  1303               	bcf	3,6	;RP1=0, select bank0
  1793  0567  00B2               	movwf	___fltol@f1+2
  1794  0568  1683               	bsf	3,5	;RP0=1, select bank1
  1795  0569  1303               	bcf	3,6	;RP1=0, select bank1
  1796  056A  0836               	movf	(PrepareTempHumDataPacket@hum+1)^(0+128),w
  1797  056B  1283               	bcf	3,5	;RP0=0, select bank0
  1798  056C  1303               	bcf	3,6	;RP1=0, select bank0
  1799  056D  00B1               	movwf	___fltol@f1+1
  1800  056E  1683               	bsf	3,5	;RP0=1, select bank1
  1801  056F  1303               	bcf	3,6	;RP1=0, select bank1
  1802  0570  0835               	movf	PrepareTempHumDataPacket@hum^(0+128),w
  1803  0571  1283               	bcf	3,5	;RP0=0, select bank0
  1804  0572  1303               	bcf	3,6	;RP1=0, select bank0
  1805  0573  00B0               	movwf	___fltol@f1
  1806  0574  120A  158A  26EE  120A  118A  	fcall	___fltol
  1807  0579  1283               	bcf	3,5	;RP0=0, select bank0
  1808  057A  1303               	bcf	3,6	;RP1=0, select bank0
  1809  057B  0830               	movf	?___fltol,w
  1810  057C  00EB               	movwf	??_PrepareTempHumDataPacket
  1811  057D  086B               	movf	??_PrepareTempHumDataPacket,w
  1812  057E  1683               	bsf	3,5	;RP0=1, select bank1
  1813  057F  1303               	bcf	3,6	;RP1=0, select bank1
  1814  0580  00AA               	movwf	(_tempHumDataPacketTx^(0+128)+4)
  1815  0581                     l2083:
  1816                           
  1817                           ;main.c: 168:     tempHumDataPacketTx[5] = (char)((hum-(char)hum)/0.1);
  1818  0581  0838               	movf	(PrepareTempHumDataPacket@hum+3)^(0+128),w
  1819  0582  1283               	bcf	3,5	;RP0=0, select bank0
  1820  0583  1303               	bcf	3,6	;RP1=0, select bank0
  1821  0584  00D0               	movwf	___flsub@b+3
  1822  0585  1683               	bsf	3,5	;RP0=1, select bank1
  1823  0586  1303               	bcf	3,6	;RP1=0, select bank1
  1824  0587  0837               	movf	(PrepareTempHumDataPacket@hum+2)^(0+128),w
  1825  0588  1283               	bcf	3,5	;RP0=0, select bank0
  1826  0589  1303               	bcf	3,6	;RP1=0, select bank0
  1827  058A  00CF               	movwf	___flsub@b+2
  1828  058B  1683               	bsf	3,5	;RP0=1, select bank1
  1829  058C  1303               	bcf	3,6	;RP1=0, select bank1
  1830  058D  0836               	movf	(PrepareTempHumDataPacket@hum+1)^(0+128),w
  1831  058E  1283               	bcf	3,5	;RP0=0, select bank0
  1832  058F  1303               	bcf	3,6	;RP1=0, select bank0
  1833  0590  00CE               	movwf	___flsub@b+1
  1834  0591  1683               	bsf	3,5	;RP0=1, select bank1
  1835  0592  1303               	bcf	3,6	;RP1=0, select bank1
  1836  0593  0835               	movf	PrepareTempHumDataPacket@hum^(0+128),w
  1837  0594  1283               	bcf	3,5	;RP0=0, select bank0
  1838  0595  1303               	bcf	3,6	;RP1=0, select bank0
  1839  0596  00CD               	movwf	___flsub@b
  1840  0597  1683               	bsf	3,5	;RP0=1, select bank1
  1841  0598  1303               	bcf	3,6	;RP1=0, select bank1
  1842  0599  0838               	movf	(PrepareTempHumDataPacket@hum+3)^(0+128),w
  1843  059A  1283               	bcf	3,5	;RP0=0, select bank0
  1844  059B  1303               	bcf	3,6	;RP1=0, select bank0
  1845  059C  00B3               	movwf	___fltol@f1+3
  1846  059D  1683               	bsf	3,5	;RP0=1, select bank1
  1847  059E  1303               	bcf	3,6	;RP1=0, select bank1
  1848  059F  0837               	movf	(PrepareTempHumDataPacket@hum+2)^(0+128),w
  1849  05A0  1283               	bcf	3,5	;RP0=0, select bank0
  1850  05A1  1303               	bcf	3,6	;RP1=0, select bank0
  1851  05A2  00B2               	movwf	___fltol@f1+2
  1852  05A3  1683               	bsf	3,5	;RP0=1, select bank1
  1853  05A4  1303               	bcf	3,6	;RP1=0, select bank1
  1854  05A5  0836               	movf	(PrepareTempHumDataPacket@hum+1)^(0+128),w
  1855  05A6  1283               	bcf	3,5	;RP0=0, select bank0
  1856  05A7  1303               	bcf	3,6	;RP1=0, select bank0
  1857  05A8  00B1               	movwf	___fltol@f1+1
  1858  05A9  1683               	bsf	3,5	;RP0=1, select bank1
  1859  05AA  1303               	bcf	3,6	;RP1=0, select bank1
  1860  05AB  0835               	movf	PrepareTempHumDataPacket@hum^(0+128),w
  1861  05AC  1283               	bcf	3,5	;RP0=0, select bank0
  1862  05AD  1303               	bcf	3,6	;RP1=0, select bank0
  1863  05AE  00B0               	movwf	___fltol@f1
  1864  05AF  120A  158A  26EE  120A  118A  	fcall	___fltol
  1865  05B4  1283               	bcf	3,5	;RP0=0, select bank0
  1866  05B5  1303               	bcf	3,6	;RP1=0, select bank0
  1867  05B6  0830               	movf	?___fltol,w
  1868  05B7  00EB               	movwf	??_PrepareTempHumDataPacket
  1869  05B8  01EC               	clrf	??_PrepareTempHumDataPacket+1
  1870  05B9  01ED               	clrf	??_PrepareTempHumDataPacket+2
  1871  05BA  01EE               	clrf	??_PrepareTempHumDataPacket+3
  1872  05BB  086E               	movf	??_PrepareTempHumDataPacket+3,w
  1873  05BC  00BE               	movwf	___xxtofl@val+3
  1874  05BD  086D               	movf	??_PrepareTempHumDataPacket+2,w
  1875  05BE  00BD               	movwf	___xxtofl@val+2
  1876  05BF  086C               	movf	??_PrepareTempHumDataPacket+1,w
  1877  05C0  00BC               	movwf	___xxtofl@val+1
  1878  05C1  086B               	movf	??_PrepareTempHumDataPacket,w
  1879  05C2  00BB               	movwf	___xxtofl@val
  1880  05C3  3001               	movlw	1
  1881  05C4  120A  118A  2633  120A  118A  	fcall	___xxtofl
  1882  05C9  1283               	bcf	3,5	;RP0=0, select bank0
  1883  05CA  1303               	bcf	3,6	;RP1=0, select bank0
  1884  05CB  083E               	movf	?___xxtofl+3,w
  1885  05CC  00CC               	movwf	___flsub@a+3
  1886  05CD  083D               	movf	?___xxtofl+2,w
  1887  05CE  00CB               	movwf	___flsub@a+2
  1888  05CF  083C               	movf	?___xxtofl+1,w
  1889  05D0  00CA               	movwf	___flsub@a+1
  1890  05D1  083B               	movf	?___xxtofl,w
  1891  05D2  00C9               	movwf	___flsub@a
  1892  05D3  120A  158A  26A1  120A  118A  	fcall	___flsub
  1893  05D8  1283               	bcf	3,5	;RP0=0, select bank0
  1894  05D9  1303               	bcf	3,6	;RP1=0, select bank0
  1895  05DA  084C               	movf	?___flsub+3,w
  1896  05DB  00D8               	movwf	___fldiv@b+3
  1897  05DC  084B               	movf	?___flsub+2,w
  1898  05DD  00D7               	movwf	___fldiv@b+2
  1899  05DE  084A               	movf	?___flsub+1,w
  1900  05DF  00D6               	movwf	___fldiv@b+1
  1901  05E0  0849               	movf	?___flsub,w
  1902  05E1  00D5               	movwf	___fldiv@b
  1903  05E2  303D               	movlw	61
  1904  05E3  00D4               	movwf	___fldiv@a+3
  1905  05E4  30CC               	movlw	204
  1906  05E5  00D3               	movwf	___fldiv@a+2
  1907  05E6  30CC               	movlw	204
  1908  05E7  00D2               	movwf	___fldiv@a+1
  1909  05E8  30CD               	movlw	205
  1910  05E9  00D1               	movwf	___fldiv@a
  1911  05EA  120A  118A  22AF  120A  118A  	fcall	___fldiv
  1912  05EF  1283               	bcf	3,5	;RP0=0, select bank0
  1913  05F0  1303               	bcf	3,6	;RP1=0, select bank0
  1914  05F1  0854               	movf	?___fldiv+3,w
  1915  05F2  1683               	bsf	3,5	;RP0=1, select bank1
  1916  05F3  1303               	bcf	3,6	;RP1=0, select bank1
  1917  05F4  00BC               	movwf	(_PrepareTempHumDataPacket$711+3)^(0+128)
  1918  05F5  1283               	bcf	3,5	;RP0=0, select bank0
  1919  05F6  1303               	bcf	3,6	;RP1=0, select bank0
  1920  05F7  0853               	movf	?___fldiv+2,w
  1921  05F8  1683               	bsf	3,5	;RP0=1, select bank1
  1922  05F9  1303               	bcf	3,6	;RP1=0, select bank1
  1923  05FA  00BB               	movwf	(_PrepareTempHumDataPacket$711+2)^(0+128)
  1924  05FB  1283               	bcf	3,5	;RP0=0, select bank0
  1925  05FC  1303               	bcf	3,6	;RP1=0, select bank0
  1926  05FD  0852               	movf	?___fldiv+1,w
  1927  05FE  1683               	bsf	3,5	;RP0=1, select bank1
  1928  05FF  1303               	bcf	3,6	;RP1=0, select bank1
  1929  0600  00BA               	movwf	(_PrepareTempHumDataPacket$711+1)^(0+128)
  1930  0601  1283               	bcf	3,5	;RP0=0, select bank0
  1931  0602  1303               	bcf	3,6	;RP1=0, select bank0
  1932  0603  0851               	movf	?___fldiv,w
  1933  0604  1683               	bsf	3,5	;RP0=1, select bank1
  1934  0605  1303               	bcf	3,6	;RP1=0, select bank1
  1935  0606  00B9               	movwf	_PrepareTempHumDataPacket$711^(0+128)
  1936                           
  1937                           ;main.c: 168:     tempHumDataPacketTx[5] = (char)((hum-(char)hum)/0.1);
  1938  0607  083C               	movf	(_PrepareTempHumDataPacket$711+3)^(0+128),w
  1939  0608  1283               	bcf	3,5	;RP0=0, select bank0
  1940  0609  1303               	bcf	3,6	;RP1=0, select bank0
  1941  060A  00B3               	movwf	___fltol@f1+3
  1942  060B  1683               	bsf	3,5	;RP0=1, select bank1
  1943  060C  1303               	bcf	3,6	;RP1=0, select bank1
  1944  060D  083B               	movf	(_PrepareTempHumDataPacket$711+2)^(0+128),w
  1945  060E  1283               	bcf	3,5	;RP0=0, select bank0
  1946  060F  1303               	bcf	3,6	;RP1=0, select bank0
  1947  0610  00B2               	movwf	___fltol@f1+2
  1948  0611  1683               	bsf	3,5	;RP0=1, select bank1
  1949  0612  1303               	bcf	3,6	;RP1=0, select bank1
  1950  0613  083A               	movf	(_PrepareTempHumDataPacket$711+1)^(0+128),w
  1951  0614  1283               	bcf	3,5	;RP0=0, select bank0
  1952  0615  1303               	bcf	3,6	;RP1=0, select bank0
  1953  0616  00B1               	movwf	___fltol@f1+1
  1954  0617  1683               	bsf	3,5	;RP0=1, select bank1
  1955  0618  1303               	bcf	3,6	;RP1=0, select bank1
  1956  0619  0839               	movf	_PrepareTempHumDataPacket$711^(0+128),w
  1957  061A  1283               	bcf	3,5	;RP0=0, select bank0
  1958  061B  1303               	bcf	3,6	;RP1=0, select bank0
  1959  061C  00B0               	movwf	___fltol@f1
  1960  061D  120A  158A  26EE  120A  118A  	fcall	___fltol
  1961  0622  1283               	bcf	3,5	;RP0=0, select bank0
  1962  0623  1303               	bcf	3,6	;RP1=0, select bank0
  1963  0624  0830               	movf	?___fltol,w
  1964  0625  00EB               	movwf	??_PrepareTempHumDataPacket
  1965  0626  086B               	movf	??_PrepareTempHumDataPacket,w
  1966  0627  1683               	bsf	3,5	;RP0=1, select bank1
  1967  0628  1303               	bcf	3,6	;RP1=0, select bank1
  1968  0629  00AB               	movwf	(_tempHumDataPacketTx^(0+128)+5)
  1969  062A                     l2085:
  1970                           
  1971                           ;main.c: 169:     tempHumDataPacketTx[6] = 0xFF;
  1972  062A  30FF               	movlw	255
  1973  062B  1283               	bcf	3,5	;RP0=0, select bank0
  1974  062C  1303               	bcf	3,6	;RP1=0, select bank0
  1975  062D  00EB               	movwf	??_PrepareTempHumDataPacket
  1976  062E  086B               	movf	??_PrepareTempHumDataPacket,w
  1977  062F  1683               	bsf	3,5	;RP0=1, select bank1
  1978  0630  1303               	bcf	3,6	;RP1=0, select bank1
  1979  0631  00AC               	movwf	(_tempHumDataPacketTx^(0+128)+6)
  1980  0632                     l104:
  1981  0632  0008               	return
  1982  0633                     __end_of_PrepareTempHumDataPacket:
  1983                           
  1984                           	psect	text10
  1985  0633                     __ptext10:	
  1986 ;; *************** function ___xxtofl *****************
  1987 ;; Defined at:
  1988 ;;		line 10 in file "C:\Program Files\Microchip\xc8\v2.32\pic\sources\c90\common\xxtofl.c"
  1989 ;; Parameters:    Size  Location     Type
  1990 ;;  sign            1    wreg     unsigned char 
  1991 ;;  val             4   27[BANK0 ] long 
  1992 ;; Auto vars:     Size  Location     Type
  1993 ;;  sign            1   35[BANK0 ] unsigned char 
  1994 ;;  arg             4   37[BANK0 ] unsigned long 
  1995 ;;  exp             1   36[BANK0 ] unsigned char 
  1996 ;; Return value:  Size  Location     Type
  1997 ;;                  4   27[BANK0 ] unsigned char 
  1998 ;; Registers used:
  1999 ;;		wreg, status,2, status,0
  2000 ;; Tracked objects:
  2001 ;;		On entry : 0/0
  2002 ;;		On exit  : 0/0
  2003 ;;		Unchanged: 0/0
  2004 ;; Data sizes:     COMMON   BANK0   BANK1   BANK3   BANK2
  2005 ;;      Params:         0       4       0       0       0
  2006 ;;      Locals:         0       6       0       0       0
  2007 ;;      Temps:          0       4       0       0       0
  2008 ;;      Totals:         0      14       0       0       0
  2009 ;;Total ram usage:       14 bytes
  2010 ;; Hardware stack levels used: 1
  2011 ;; Hardware stack levels required when called: 1
  2012 ;; This function calls:
  2013 ;;		Nothing
  2014 ;; This function is called by:
  2015 ;;		_PrepareTempHumDataPacket
  2016 ;; This function uses a non-reentrant model
  2017 ;;
  2018                           
  2019                           
  2020                           ;psect for function ___xxtofl
  2021  0633                     ___xxtofl:
  2022                           
  2023                           ;incstack = 0
  2024                           ; Regs used in ___xxtofl: [wreg+status,2+status,0]
  2025                           ;___xxtofl@sign stored from wreg
  2026  0633  1283               	bcf	3,5	;RP0=0, select bank0
  2027  0634  1303               	bcf	3,6	;RP1=0, select bank0
  2028  0635  00C3               	movwf	___xxtofl@sign
  2029  0636                     l1671:
  2030  0636  0843               	movf	___xxtofl@sign,w
  2031  0637  1903               	btfsc	3,2
  2032  0638  2E3A               	goto	u2081
  2033  0639  2E3B               	goto	u2080
  2034  063A                     u2081:
  2035  063A  2E4F               	goto	l1677
  2036  063B                     u2080:
  2037  063B                     l1673:
  2038  063B  1FBE               	btfss	___xxtofl@val+3,7
  2039  063C  2E3E               	goto	u2091
  2040  063D  2E3F               	goto	u2090
  2041  063E                     u2091:
  2042  063E  2E4F               	goto	l1677
  2043  063F                     u2090:
  2044  063F                     l1675:
  2045  063F  093B               	comf	___xxtofl@val,w
  2046  0640  00C5               	movwf	___xxtofl@arg
  2047  0641  093C               	comf	___xxtofl@val+1,w
  2048  0642  00C6               	movwf	___xxtofl@arg+1
  2049  0643  093D               	comf	___xxtofl@val+2,w
  2050  0644  00C7               	movwf	___xxtofl@arg+2
  2051  0645  093E               	comf	___xxtofl@val+3,w
  2052  0646  00C8               	movwf	___xxtofl@arg+3
  2053  0647  0AC5               	incf	___xxtofl@arg,f
  2054  0648  1903               	skipnz
  2055  0649  0AC6               	incf	___xxtofl@arg+1,f
  2056  064A  1903               	skipnz
  2057  064B  0AC7               	incf	___xxtofl@arg+2,f
  2058  064C  1903               	skipnz
  2059  064D  0AC8               	incf	___xxtofl@arg+3,f
  2060  064E  2E57               	goto	l632
  2061  064F                     l1677:
  2062  064F  083E               	movf	___xxtofl@val+3,w
  2063  0650  00C8               	movwf	___xxtofl@arg+3
  2064  0651  083D               	movf	___xxtofl@val+2,w
  2065  0652  00C7               	movwf	___xxtofl@arg+2
  2066  0653  083C               	movf	___xxtofl@val+1,w
  2067  0654  00C6               	movwf	___xxtofl@arg+1
  2068  0655  083B               	movf	___xxtofl@val,w
  2069  0656  00C5               	movwf	___xxtofl@arg
  2070  0657                     l632:
  2071  0657  083E               	movf	___xxtofl@val+3,w
  2072  0658  043D               	iorwf	___xxtofl@val+2,w
  2073  0659  043C               	iorwf	___xxtofl@val+1,w
  2074  065A  043B               	iorwf	___xxtofl@val,w
  2075  065B  1D03               	skipz
  2076  065C  2E5E               	goto	u2101
  2077  065D  2E5F               	goto	u2100
  2078  065E                     u2101:
  2079  065E  2E68               	goto	l1683
  2080  065F                     u2100:
  2081  065F                     l1679:
  2082  065F  3000               	movlw	0
  2083  0660  00BE               	movwf	?___xxtofl+3
  2084  0661  3000               	movlw	0
  2085  0662  00BD               	movwf	?___xxtofl+2
  2086  0663  3000               	movlw	0
  2087  0664  00BC               	movwf	?___xxtofl+1
  2088  0665  3000               	movlw	0
  2089  0666  00BB               	movwf	?___xxtofl
  2090  0667  2EEE               	goto	l634
  2091  0668                     l1683:
  2092  0668  3096               	movlw	150
  2093  0669  00BF               	movwf	??___xxtofl
  2094  066A  083F               	movf	??___xxtofl,w
  2095  066B  00C4               	movwf	___xxtofl@exp
  2096  066C  2E7A               	goto	l1687
  2097  066D                     l1685:
  2098  066D  3001               	movlw	1
  2099  066E  00BF               	movwf	??___xxtofl
  2100  066F  083F               	movf	??___xxtofl,w
  2101  0670  07C4               	addwf	___xxtofl@exp,f
  2102  0671  3001               	movlw	1
  2103  0672                     u2115:
  2104  0672  1003               	clrc
  2105  0673  0CC8               	rrf	___xxtofl@arg+3,f
  2106  0674  0CC7               	rrf	___xxtofl@arg+2,f
  2107  0675  0CC6               	rrf	___xxtofl@arg+1,f
  2108  0676  0CC5               	rrf	___xxtofl@arg,f
  2109  0677  3EFF               	addlw	-1
  2110  0678  1D03               	skipz
  2111  0679  2E72               	goto	u2115
  2112  067A                     l1687:
  2113  067A  30FE               	movlw	254
  2114  067B  0548               	andwf	___xxtofl@arg+3,w
  2115  067C  1D03               	btfss	3,2
  2116  067D  2E7F               	goto	u2121
  2117  067E  2E80               	goto	u2120
  2118  067F                     u2121:
  2119  067F  2E6D               	goto	l1685
  2120  0680                     u2120:
  2121  0680  2E9C               	goto	l638
  2122  0681                     l1689:
  2123  0681  3001               	movlw	1
  2124  0682  00BF               	movwf	??___xxtofl
  2125  0683  083F               	movf	??___xxtofl,w
  2126  0684  07C4               	addwf	___xxtofl@exp,f
  2127  0685                     l1691:
  2128  0685  3001               	movlw	1
  2129  0686  07C5               	addwf	___xxtofl@arg,f
  2130  0687  3000               	movlw	0
  2131  0688  1803               	skipnc
  2132  0689  3001               	movlw	1
  2133  068A  07C6               	addwf	___xxtofl@arg+1,f
  2134  068B  3000               	movlw	0
  2135  068C  1803               	skipnc
  2136  068D  3001               	movlw	1
  2137  068E  07C7               	addwf	___xxtofl@arg+2,f
  2138  068F  3000               	movlw	0
  2139  0690  1803               	skipnc
  2140  0691  3001               	movlw	1
  2141  0692  07C8               	addwf	___xxtofl@arg+3,f
  2142  0693                     l1693:
  2143  0693  3001               	movlw	1
  2144  0694                     u2135:
  2145  0694  1003               	clrc
  2146  0695  0CC8               	rrf	___xxtofl@arg+3,f
  2147  0696  0CC7               	rrf	___xxtofl@arg+2,f
  2148  0697  0CC6               	rrf	___xxtofl@arg+1,f
  2149  0698  0CC5               	rrf	___xxtofl@arg,f
  2150  0699  3EFF               	addlw	-1
  2151  069A  1D03               	skipz
  2152  069B  2E94               	goto	u2135
  2153  069C                     l638:
  2154  069C  30FF               	movlw	255
  2155  069D  0548               	andwf	___xxtofl@arg+3,w
  2156  069E  1D03               	btfss	3,2
  2157  069F  2EA1               	goto	u2141
  2158  06A0  2EA2               	goto	u2140
  2159  06A1                     u2141:
  2160  06A1  2E81               	goto	l1689
  2161  06A2                     u2140:
  2162  06A2  2EAE               	goto	l1697
  2163  06A3                     l1695:
  2164  06A3  3001               	movlw	1
  2165  06A4  02C4               	subwf	___xxtofl@exp,f
  2166  06A5  3001               	movlw	1
  2167  06A6  00BF               	movwf	??___xxtofl
  2168  06A7                     u2155:
  2169  06A7  1003               	clrc
  2170  06A8  0DC5               	rlf	___xxtofl@arg,f
  2171  06A9  0DC6               	rlf	___xxtofl@arg+1,f
  2172  06AA  0DC7               	rlf	___xxtofl@arg+2,f
  2173  06AB  0DC8               	rlf	___xxtofl@arg+3,f
  2174  06AC  0BBF               	decfsz	??___xxtofl,f
  2175  06AD  2EA7               	goto	u2155
  2176  06AE                     l1697:
  2177  06AE  1BC7               	btfsc	___xxtofl@arg+2,7
  2178  06AF  2EB1               	goto	u2161
  2179  06B0  2EB2               	goto	u2160
  2180  06B1                     u2161:
  2181  06B1  2EB8               	goto	l645
  2182  06B2                     u2160:
  2183  06B2                     l1699:
  2184  06B2  3002               	movlw	2
  2185  06B3  0244               	subwf	___xxtofl@exp,w
  2186  06B4  1803               	skipnc
  2187  06B5  2EB7               	goto	u2171
  2188  06B6  2EB8               	goto	u2170
  2189  06B7                     u2171:
  2190  06B7  2EA3               	goto	l1695
  2191  06B8                     u2170:
  2192  06B8                     l645:
  2193  06B8  1844               	btfsc	___xxtofl@exp,0
  2194  06B9  2EBB               	goto	u2181
  2195  06BA  2EBC               	goto	u2180
  2196  06BB                     u2181:
  2197  06BB  2EC4               	goto	l646
  2198  06BC                     u2180:
  2199  06BC                     l1701:
  2200  06BC  30FF               	movlw	255
  2201  06BD  05C5               	andwf	___xxtofl@arg,f
  2202  06BE  30FF               	movlw	255
  2203  06BF  05C6               	andwf	___xxtofl@arg+1,f
  2204  06C0  307F               	movlw	127
  2205  06C1  05C7               	andwf	___xxtofl@arg+2,f
  2206  06C2  30FF               	movlw	255
  2207  06C3  05C8               	andwf	___xxtofl@arg+3,f
  2208  06C4                     l646:
  2209  06C4  1003               	clrc
  2210  06C5  0CC4               	rrf	___xxtofl@exp,f
  2211  06C6                     l1703:
  2212  06C6  0844               	movf	___xxtofl@exp,w
  2213  06C7  00BF               	movwf	??___xxtofl
  2214  06C8  01C0               	clrf	??___xxtofl+1
  2215  06C9  01C1               	clrf	??___xxtofl+2
  2216  06CA  01C2               	clrf	??___xxtofl+3
  2217  06CB  3018               	movlw	24
  2218  06CC                     u2195:
  2219  06CC  1003               	clrc
  2220  06CD  0DBF               	rlf	??___xxtofl,f
  2221  06CE  0DC0               	rlf	??___xxtofl+1,f
  2222  06CF  0DC1               	rlf	??___xxtofl+2,f
  2223  06D0  0DC2               	rlf	??___xxtofl+3,f
  2224  06D1                     u2190:
  2225  06D1  3EFF               	addlw	-1
  2226  06D2  1D03               	skipz
  2227  06D3  2ECC               	goto	u2195
  2228  06D4  083F               	movf	??___xxtofl,w
  2229  06D5  04C5               	iorwf	___xxtofl@arg,f
  2230  06D6  0840               	movf	??___xxtofl+1,w
  2231  06D7  04C6               	iorwf	___xxtofl@arg+1,f
  2232  06D8  0841               	movf	??___xxtofl+2,w
  2233  06D9  04C7               	iorwf	___xxtofl@arg+2,f
  2234  06DA  0842               	movf	??___xxtofl+3,w
  2235  06DB  04C8               	iorwf	___xxtofl@arg+3,f
  2236  06DC                     l1705:
  2237  06DC  0843               	movf	___xxtofl@sign,w
  2238  06DD  1903               	btfsc	3,2
  2239  06DE  2EE0               	goto	u2201
  2240  06DF  2EE1               	goto	u2200
  2241  06E0                     u2201:
  2242  06E0  2EE6               	goto	l1711
  2243  06E1                     u2200:
  2244  06E1                     l1707:
  2245  06E1  1FBE               	btfss	___xxtofl@val+3,7
  2246  06E2  2EE4               	goto	u2211
  2247  06E3  2EE5               	goto	u2210
  2248  06E4                     u2211:
  2249  06E4  2EE6               	goto	l1711
  2250  06E5                     u2210:
  2251  06E5                     l1709:
  2252  06E5  17C8               	bsf	___xxtofl@arg+3,7
  2253  06E6                     l1711:
  2254  06E6  0848               	movf	___xxtofl@arg+3,w
  2255  06E7  00BE               	movwf	?___xxtofl+3
  2256  06E8  0847               	movf	___xxtofl@arg+2,w
  2257  06E9  00BD               	movwf	?___xxtofl+2
  2258  06EA  0846               	movf	___xxtofl@arg+1,w
  2259  06EB  00BC               	movwf	?___xxtofl+1
  2260  06EC  0845               	movf	___xxtofl@arg,w
  2261  06ED  00BB               	movwf	?___xxtofl
  2262  06EE                     l634:
  2263  06EE  0008               	return
  2264  06EF                     __end_of___xxtofl:
  2265                           
  2266                           	psect	text11
  2267  0EEE                     __ptext11:	
  2268 ;; *************** function ___fltol *****************
  2269 ;; Defined at:
  2270 ;;		line 43 in file "C:\Program Files\Microchip\xc8\v2.32\pic\sources\c90\common\fltol.c"
  2271 ;; Parameters:    Size  Location     Type
  2272 ;;  f1              4   16[BANK0 ] unsigned char 
  2273 ;; Auto vars:     Size  Location     Type
  2274 ;;  exp1            1   26[BANK0 ] unsigned char 
  2275 ;;  sign1           1   25[BANK0 ] unsigned char 
  2276 ;; Return value:  Size  Location     Type
  2277 ;;                  4   16[BANK0 ] long 
  2278 ;; Registers used:
  2279 ;;		wreg, status,2, status,0
  2280 ;; Tracked objects:
  2281 ;;		On entry : 0/0
  2282 ;;		On exit  : 0/0
  2283 ;;		Unchanged: 0/0
  2284 ;; Data sizes:     COMMON   BANK0   BANK1   BANK3   BANK2
  2285 ;;      Params:         0       4       0       0       0
  2286 ;;      Locals:         0       2       0       0       0
  2287 ;;      Temps:          0       5       0       0       0
  2288 ;;      Totals:         0      11       0       0       0
  2289 ;;Total ram usage:       11 bytes
  2290 ;; Hardware stack levels used: 1
  2291 ;; Hardware stack levels required when called: 1
  2292 ;; This function calls:
  2293 ;;		Nothing
  2294 ;; This function is called by:
  2295 ;;		_PrepareTempHumDataPacket
  2296 ;; This function uses a non-reentrant model
  2297 ;;
  2298                           
  2299                           
  2300                           ;psect for function ___fltol
  2301  0EEE                     ___fltol:
  2302  0EEE                     l1487:	
  2303                           ;incstack = 0
  2304                           ; Regs used in ___fltol: [wreg+status,2+status,0]
  2305                           
  2306  0EEE  1003               	clrc
  2307  0EEF  1283               	bcf	3,5	;RP0=0, select bank0
  2308  0EF0  1303               	bcf	3,6	;RP1=0, select bank0
  2309  0EF1  0D32               	rlf	___fltol@f1+2,w
  2310  0EF2  0D33               	rlf	___fltol@f1+3,w
  2311  0EF3  00B4               	movwf	??___fltol
  2312  0EF4  0834               	movf	??___fltol,w
  2313  0EF5  00BA               	movwf	___fltol@exp1
  2314  0EF6  083A               	movf	___fltol@exp1,w
  2315  0EF7  1D03               	btfss	3,2
  2316  0EF8  2EFA               	goto	u1691
  2317  0EF9  2EFB               	goto	u1690
  2318  0EFA                     u1691:
  2319  0EFA  2F04               	goto	l1493
  2320  0EFB                     u1690:
  2321  0EFB                     l1489:
  2322  0EFB  3000               	movlw	0
  2323  0EFC  00B3               	movwf	?___fltol+3
  2324  0EFD  3000               	movlw	0
  2325  0EFE  00B2               	movwf	?___fltol+2
  2326  0EFF  3000               	movlw	0
  2327  0F00  00B1               	movwf	?___fltol+1
  2328  0F01  3000               	movlw	0
  2329  0F02  00B0               	movwf	?___fltol
  2330  0F03  2F69               	goto	l385
  2331  0F04                     l1493:
  2332  0F04  0830               	movf	___fltol@f1,w
  2333  0F05  00B4               	movwf	??___fltol
  2334  0F06  0831               	movf	___fltol@f1+1,w
  2335  0F07  00B5               	movwf	??___fltol+1
  2336  0F08  0832               	movf	___fltol@f1+2,w
  2337  0F09  00B6               	movwf	??___fltol+2
  2338  0F0A  0833               	movf	___fltol@f1+3,w
  2339  0F0B  00B7               	movwf	??___fltol+3
  2340  0F0C  301F               	movlw	31
  2341  0F0D                     u1705:
  2342  0F0D  1003               	clrc
  2343  0F0E  0CB7               	rrf	??___fltol+3,f
  2344  0F0F  0CB6               	rrf	??___fltol+2,f
  2345  0F10  0CB5               	rrf	??___fltol+1,f
  2346  0F11  0CB4               	rrf	??___fltol,f
  2347  0F12                     u1700:
  2348  0F12  3EFF               	addlw	-1
  2349  0F13  1D03               	skipz
  2350  0F14  2F0D               	goto	u1705
  2351  0F15  0834               	movf	??___fltol,w
  2352  0F16  00B8               	movwf	??___fltol+4
  2353  0F17  0838               	movf	??___fltol+4,w
  2354  0F18  00B9               	movwf	___fltol@sign1
  2355  0F19                     l1495:
  2356  0F19  17B2               	bsf	___fltol@f1+2,7
  2357  0F1A                     l1497:
  2358  0F1A  30FF               	movlw	255
  2359  0F1B  05B0               	andwf	___fltol@f1,f
  2360  0F1C  30FF               	movlw	255
  2361  0F1D  05B1               	andwf	___fltol@f1+1,f
  2362  0F1E  30FF               	movlw	255
  2363  0F1F  05B2               	andwf	___fltol@f1+2,f
  2364  0F20  3000               	movlw	0
  2365  0F21  05B3               	andwf	___fltol@f1+3,f
  2366  0F22                     l1499:
  2367  0F22  3096               	movlw	150
  2368  0F23  02BA               	subwf	___fltol@exp1,f
  2369  0F24                     l1501:
  2370  0F24  1FBA               	btfss	___fltol@exp1,7
  2371  0F25  2F27               	goto	u1711
  2372  0F26  2F28               	goto	u1710
  2373  0F27                     u1711:
  2374  0F27  2F42               	goto	l1511
  2375  0F28                     u1710:
  2376  0F28                     l1503:
  2377  0F28  083A               	movf	___fltol@exp1,w
  2378  0F29  3A80               	xorlw	128
  2379  0F2A  3E97               	addlw	151
  2380  0F2B  1803               	skipnc
  2381  0F2C  2F2E               	goto	u1721
  2382  0F2D  2F2F               	goto	u1720
  2383  0F2E                     u1721:
  2384  0F2E  2F30               	goto	l1509
  2385  0F2F                     u1720:
  2386  0F2F  2EFB               	goto	l1489
  2387  0F30                     l1509:
  2388  0F30  3001               	movlw	1
  2389  0F31                     u1735:
  2390  0F31  1003               	clrc
  2391  0F32  0CB3               	rrf	___fltol@f1+3,f
  2392  0F33  0CB2               	rrf	___fltol@f1+2,f
  2393  0F34  0CB1               	rrf	___fltol@f1+1,f
  2394  0F35  0CB0               	rrf	___fltol@f1,f
  2395  0F36  3EFF               	addlw	-1
  2396  0F37  1D03               	skipz
  2397  0F38  2F31               	goto	u1735
  2398  0F39  3001               	movlw	1
  2399  0F3A  00B4               	movwf	??___fltol
  2400  0F3B  0834               	movf	??___fltol,w
  2401  0F3C  07BA               	addwf	___fltol@exp1,f
  2402  0F3D  1D03               	btfss	3,2
  2403  0F3E  2F40               	goto	u1741
  2404  0F3F  2F41               	goto	u1740
  2405  0F40                     u1741:
  2406  0F40  2F30               	goto	l1509
  2407  0F41                     u1740:
  2408  0F41  2F59               	goto	l1519
  2409  0F42                     l1511:
  2410  0F42  3020               	movlw	32
  2411  0F43  023A               	subwf	___fltol@exp1,w
  2412  0F44  1C03               	skipc
  2413  0F45  2F47               	goto	u1751
  2414  0F46  2F48               	goto	u1750
  2415  0F47                     u1751:
  2416  0F47  2F54               	goto	l392
  2417  0F48                     u1750:
  2418  0F48  2EFB               	goto	l1489
  2419  0F49                     l1517:
  2420  0F49  3001               	movlw	1
  2421  0F4A  00B4               	movwf	??___fltol
  2422  0F4B                     u1765:
  2423  0F4B  1003               	clrc
  2424  0F4C  0DB0               	rlf	___fltol@f1,f
  2425  0F4D  0DB1               	rlf	___fltol@f1+1,f
  2426  0F4E  0DB2               	rlf	___fltol@f1+2,f
  2427  0F4F  0DB3               	rlf	___fltol@f1+3,f
  2428  0F50  0BB4               	decfsz	??___fltol,f
  2429  0F51  2F4B               	goto	u1765
  2430  0F52  3001               	movlw	1
  2431  0F53  02BA               	subwf	___fltol@exp1,f
  2432  0F54                     l392:
  2433  0F54  083A               	movf	___fltol@exp1,w
  2434  0F55  1D03               	btfss	3,2
  2435  0F56  2F58               	goto	u1771
  2436  0F57  2F59               	goto	u1770
  2437  0F58                     u1771:
  2438  0F58  2F49               	goto	l1517
  2439  0F59                     u1770:
  2440  0F59                     l1519:
  2441  0F59  0839               	movf	___fltol@sign1,w
  2442  0F5A  1903               	btfsc	3,2
  2443  0F5B  2F5D               	goto	u1781
  2444  0F5C  2F5E               	goto	u1780
  2445  0F5D                     u1781:
  2446  0F5D  2F69               	goto	l395
  2447  0F5E                     u1780:
  2448  0F5E                     l1521:
  2449  0F5E  09B0               	comf	___fltol@f1,f
  2450  0F5F  09B1               	comf	___fltol@f1+1,f
  2451  0F60  09B2               	comf	___fltol@f1+2,f
  2452  0F61  09B3               	comf	___fltol@f1+3,f
  2453  0F62  0AB0               	incf	___fltol@f1,f
  2454  0F63  1903               	skipnz
  2455  0F64  0AB1               	incf	___fltol@f1+1,f
  2456  0F65  1903               	skipnz
  2457  0F66  0AB2               	incf	___fltol@f1+2,f
  2458  0F67  1903               	skipnz
  2459  0F68  0AB3               	incf	___fltol@f1+3,f
  2460  0F69                     l395:
  2461  0F69                     l385:
  2462  0F69  0008               	return
  2463  0F6A                     __end_of___fltol:
  2464                           
  2465                           	psect	text12
  2466  0EA1                     __ptext12:	
  2467 ;; *************** function ___flsub *****************
  2468 ;; Defined at:
  2469 ;;		line 242 in file "C:\Program Files\Microchip\xc8\v2.32\pic\sources\c90\common\sprcadd.c"
  2470 ;; Parameters:    Size  Location     Type
  2471 ;;  a               4   41[BANK0 ] long 
  2472 ;;  b               4   45[BANK0 ] long 
  2473 ;; Auto vars:     Size  Location     Type
  2474 ;;		None
  2475 ;; Return value:  Size  Location     Type
  2476 ;;                  4   41[BANK0 ] long 
  2477 ;; Registers used:
  2478 ;;		wreg, status,2, status,0, btemp+1, pclath, cstack
  2479 ;; Tracked objects:
  2480 ;;		On entry : 0/0
  2481 ;;		On exit  : 0/0
  2482 ;;		Unchanged: 0/0
  2483 ;; Data sizes:     COMMON   BANK0   BANK1   BANK3   BANK2
  2484 ;;      Params:         0       8       0       0       0
  2485 ;;      Locals:         0       0       0       0       0
  2486 ;;      Temps:          0       0       0       0       0
  2487 ;;      Totals:         0       8       0       0       0
  2488 ;;Total ram usage:        8 bytes
  2489 ;; Hardware stack levels used: 1
  2490 ;; Hardware stack levels required when called: 2
  2491 ;; This function calls:
  2492 ;;		___fladd
  2493 ;; This function is called by:
  2494 ;;		_PrepareTempHumDataPacket
  2495 ;; This function uses a non-reentrant model
  2496 ;;
  2497                           
  2498                           
  2499                           ;psect for function ___flsub
  2500  0EA1                     ___flsub:
  2501  0EA1                     l2067:	
  2502                           ;incstack = 0
  2503                           ; Regs used in ___flsub: [wreg+status,2+status,0+btemp+1+pclath+cstack]
  2504                           
  2505  0EA1  3080               	movlw	128
  2506  0EA2  1283               	bcf	3,5	;RP0=0, select bank0
  2507  0EA3  1303               	bcf	3,6	;RP1=0, select bank0
  2508  0EA4  06CC               	xorwf	___flsub@a+3,f
  2509  0EA5                     l2069:
  2510  0EA5  0850               	movf	___flsub@b+3,w
  2511  0EA6  00A3               	movwf	___fladd@b+3
  2512  0EA7  084F               	movf	___flsub@b+2,w
  2513  0EA8  00A2               	movwf	___fladd@b+2
  2514  0EA9  084E               	movf	___flsub@b+1,w
  2515  0EAA  00A1               	movwf	___fladd@b+1
  2516  0EAB  084D               	movf	___flsub@b,w
  2517  0EAC  00A0               	movwf	___fladd@b
  2518  0EAD  084C               	movf	___flsub@a+3,w
  2519  0EAE  00A7               	movwf	___fladd@a+3
  2520  0EAF  084B               	movf	___flsub@a+2,w
  2521  0EB0  00A6               	movwf	___fladd@a+2
  2522  0EB1  084A               	movf	___flsub@a+1,w
  2523  0EB2  00A5               	movwf	___fladd@a+1
  2524  0EB3  0849               	movf	___flsub@a,w
  2525  0EB4  00A4               	movwf	___fladd@a
  2526  0EB5  120A  118A  201F  120A  158A  	fcall	___fladd
  2527  0EBA  1283               	bcf	3,5	;RP0=0, select bank0
  2528  0EBB  1303               	bcf	3,6	;RP1=0, select bank0
  2529  0EBC  0823               	movf	?___fladd+3,w
  2530  0EBD  00CC               	movwf	?___flsub+3
  2531  0EBE  0822               	movf	?___fladd+2,w
  2532  0EBF  00CB               	movwf	?___flsub+2
  2533  0EC0  0821               	movf	?___fladd+1,w
  2534  0EC1  00CA               	movwf	?___flsub+1
  2535  0EC2  0820               	movf	?___fladd,w
  2536  0EC3  00C9               	movwf	?___flsub
  2537  0EC4                     l538:
  2538  0EC4  0008               	return
  2539  0EC5                     __end_of___flsub:
  2540                           
  2541                           	psect	text13
  2542  001F                     __ptext13:	
  2543 ;; *************** function ___fladd *****************
  2544 ;; Defined at:
  2545 ;;		line 10 in file "C:\Program Files\Microchip\xc8\v2.32\pic\sources\c90\common\sprcadd.c"
  2546 ;; Parameters:    Size  Location     Type
  2547 ;;  b               4    0[BANK0 ] long 
  2548 ;;  a               4    4[BANK0 ] long 
  2549 ;; Auto vars:     Size  Location     Type
  2550 ;;  grs             1    6[COMMON] unsigned char 
  2551 ;;  bexp            1    5[COMMON] unsigned char 
  2552 ;;  aexp            1    4[COMMON] unsigned char 
  2553 ;;  signs           1    3[COMMON] unsigned char 
  2554 ;; Return value:  Size  Location     Type
  2555 ;;                  4    0[BANK0 ] unsigned char 
  2556 ;; Registers used:
  2557 ;;		wreg, status,2, status,0, btemp+1
  2558 ;; Tracked objects:
  2559 ;;		On entry : 0/0
  2560 ;;		On exit  : 0/0
  2561 ;;		Unchanged: 0/0
  2562 ;; Data sizes:     COMMON   BANK0   BANK1   BANK3   BANK2
  2563 ;;      Params:         0       8       0       0       0
  2564 ;;      Locals:         4       0       0       0       0
  2565 ;;      Temps:          0       8       0       0       0
  2566 ;;      Totals:         4      16       0       0       0
  2567 ;;Total ram usage:       20 bytes
  2568 ;; Hardware stack levels used: 1
  2569 ;; Hardware stack levels required when called: 1
  2570 ;; This function calls:
  2571 ;;		Nothing
  2572 ;; This function is called by:
  2573 ;;		___flsub
  2574 ;; This function uses a non-reentrant model
  2575 ;;
  2576                           
  2577                           
  2578                           ;psect for function ___fladd
  2579  001F                     ___fladd:
  2580  001F                     l1873:	
  2581                           ;incstack = 0
  2582                           ; Regs used in ___fladd: [wreg+status,2+status,0+btemp+1]
  2583                           
  2584  001F  1283               	bcf	3,5	;RP0=0, select bank0
  2585  0020  1303               	bcf	3,6	;RP1=0, select bank0
  2586  0021  0823               	movf	___fladd@b+3,w
  2587  0022  3980               	andlw	128
  2588  0023  00A8               	movwf	??___fladd
  2589  0024  0828               	movf	??___fladd,w
  2590  0025  00F3               	movwf	___fladd@signs
  2591  0026                     l1875:
  2592  0026  0823               	movf	___fladd@b+3,w
  2593  0027  00A8               	movwf	??___fladd
  2594  0028  0728               	addwf	??___fladd,w
  2595  0029  00A9               	movwf	??___fladd+1
  2596  002A  0829               	movf	??___fladd+1,w
  2597  002B  00F5               	movwf	___fladd@bexp
  2598  002C                     l1877:
  2599  002C  1FA2               	btfss	___fladd@b+2,7
  2600  002D  282F               	goto	u2431
  2601  002E  2830               	goto	u2430
  2602  002F                     u2431:
  2603  002F  2831               	goto	l1881
  2604  0030                     u2430:
  2605  0030                     l1879:
  2606  0030  1475               	bsf	___fladd@bexp,0
  2607  0031                     l1881:
  2608  0031  0875               	movf	___fladd@bexp,w
  2609  0032  1903               	btfsc	3,2
  2610  0033  2835               	goto	u2441
  2611  0034  2836               	goto	u2440
  2612  0035                     u2441:
  2613  0035  2846               	goto	l1891
  2614  0036                     u2440:
  2615  0036                     l1883:
  2616  0036  0A75               	incf	___fladd@bexp,w
  2617  0037  1D03               	btfss	3,2
  2618  0038  283A               	goto	u2451
  2619  0039  283B               	goto	u2450
  2620  003A                     u2451:
  2621  003A  2843               	goto	l1887
  2622  003B                     u2450:
  2623  003B                     l1885:
  2624  003B  3000               	movlw	0
  2625  003C  00A3               	movwf	___fladd@b+3
  2626  003D  3000               	movlw	0
  2627  003E  00A2               	movwf	___fladd@b+2
  2628  003F  3000               	movlw	0
  2629  0040  00A1               	movwf	___fladd@b+1
  2630  0041  3000               	movlw	0
  2631  0042  00A0               	movwf	___fladd@b
  2632  0043                     l1887:
  2633  0043  17A2               	bsf	___fladd@b+2,7
  2634  0044                     l1889:
  2635  0044  01A3               	clrf	___fladd@b+3
  2636  0045  284E               	goto	l1893
  2637  0046                     l1891:
  2638  0046  3000               	movlw	0
  2639  0047  00A3               	movwf	___fladd@b+3
  2640  0048  3000               	movlw	0
  2641  0049  00A2               	movwf	___fladd@b+2
  2642  004A  3000               	movlw	0
  2643  004B  00A1               	movwf	___fladd@b+1
  2644  004C  3000               	movlw	0
  2645  004D  00A0               	movwf	___fladd@b
  2646  004E                     l1893:
  2647  004E  0827               	movf	___fladd@a+3,w
  2648  004F  3980               	andlw	128
  2649  0050  00A8               	movwf	??___fladd
  2650  0051  0828               	movf	??___fladd,w
  2651  0052  00F4               	movwf	___fladd@aexp
  2652  0053                     l1895:
  2653  0053  0874               	movf	___fladd@aexp,w
  2654  0054  0673               	xorwf	___fladd@signs,w
  2655  0055  1903               	skipnz
  2656  0056  2858               	goto	u2461
  2657  0057  2859               	goto	u2460
  2658  0058                     u2461:
  2659  0058  285A               	goto	l1899
  2660  0059                     u2460:
  2661  0059                     l1897:
  2662  0059  1773               	bsf	___fladd@signs,6
  2663  005A                     l1899:
  2664  005A  0827               	movf	___fladd@a+3,w
  2665  005B  00A8               	movwf	??___fladd
  2666  005C  0728               	addwf	??___fladd,w
  2667  005D  00A9               	movwf	??___fladd+1
  2668  005E  0829               	movf	??___fladd+1,w
  2669  005F  00F4               	movwf	___fladd@aexp
  2670  0060                     l1901:
  2671  0060  1FA6               	btfss	___fladd@a+2,7
  2672  0061  2863               	goto	u2471
  2673  0062  2864               	goto	u2470
  2674  0063                     u2471:
  2675  0063  2865               	goto	l1905
  2676  0064                     u2470:
  2677  0064                     l1903:
  2678  0064  1474               	bsf	___fladd@aexp,0
  2679  0065                     l1905:
  2680  0065  0874               	movf	___fladd@aexp,w
  2681  0066  1903               	btfsc	3,2
  2682  0067  2869               	goto	u2481
  2683  0068  286A               	goto	u2480
  2684  0069                     u2481:
  2685  0069  287A               	goto	l1915
  2686  006A                     u2480:
  2687  006A                     l1907:
  2688  006A  0A74               	incf	___fladd@aexp,w
  2689  006B  1D03               	btfss	3,2
  2690  006C  286E               	goto	u2491
  2691  006D  286F               	goto	u2490
  2692  006E                     u2491:
  2693  006E  2877               	goto	l1911
  2694  006F                     u2490:
  2695  006F                     l1909:
  2696  006F  3000               	movlw	0
  2697  0070  00A7               	movwf	___fladd@a+3
  2698  0071  3000               	movlw	0
  2699  0072  00A6               	movwf	___fladd@a+2
  2700  0073  3000               	movlw	0
  2701  0074  00A5               	movwf	___fladd@a+1
  2702  0075  3000               	movlw	0
  2703  0076  00A4               	movwf	___fladd@a
  2704  0077                     l1911:
  2705  0077  17A6               	bsf	___fladd@a+2,7
  2706  0078                     l1913:
  2707  0078  01A7               	clrf	___fladd@a+3
  2708  0079  2882               	goto	l492
  2709  007A                     l1915:
  2710  007A  3000               	movlw	0
  2711  007B  00A7               	movwf	___fladd@a+3
  2712  007C  3000               	movlw	0
  2713  007D  00A6               	movwf	___fladd@a+2
  2714  007E  3000               	movlw	0
  2715  007F  00A5               	movwf	___fladd@a+1
  2716  0080  3000               	movlw	0
  2717  0081  00A4               	movwf	___fladd@a
  2718  0082                     l492:
  2719  0082  0875               	movf	___fladd@bexp,w
  2720  0083  0274               	subwf	___fladd@aexp,w
  2721  0084  1803               	skipnc
  2722  0085  2887               	goto	u2501
  2723  0086  2888               	goto	u2500
  2724  0087                     u2501:
  2725  0087  28CC               	goto	l1951
  2726  0088                     u2500:
  2727  0088                     l1917:
  2728  0088  1F73               	btfss	___fladd@signs,6
  2729  0089  288B               	goto	u2511
  2730  008A  288C               	goto	u2510
  2731  008B                     u2511:
  2732  008B  2890               	goto	l1921
  2733  008C                     u2510:
  2734  008C                     l1919:
  2735  008C  3080               	movlw	128
  2736  008D  00A8               	movwf	??___fladd
  2737  008E  0828               	movf	??___fladd,w
  2738  008F  06F3               	xorwf	___fladd@signs,f
  2739  0090                     l1921:
  2740  0090  0875               	movf	___fladd@bexp,w
  2741  0091  00A8               	movwf	??___fladd
  2742  0092  0828               	movf	??___fladd,w
  2743  0093  00F6               	movwf	___fladd@grs
  2744  0094                     l1923:
  2745  0094  0874               	movf	___fladd@aexp,w
  2746  0095  00A8               	movwf	??___fladd
  2747  0096  0828               	movf	??___fladd,w
  2748  0097  00F5               	movwf	___fladd@bexp
  2749  0098                     l1925:
  2750  0098  0876               	movf	___fladd@grs,w
  2751  0099  00A8               	movwf	??___fladd
  2752  009A  0828               	movf	??___fladd,w
  2753  009B  00F4               	movwf	___fladd@aexp
  2754  009C                     l1927:
  2755  009C  0820               	movf	___fladd@b,w
  2756  009D  00A8               	movwf	??___fladd
  2757  009E  0828               	movf	??___fladd,w
  2758  009F  00F6               	movwf	___fladd@grs
  2759  00A0                     l1929:
  2760  00A0  0824               	movf	___fladd@a,w
  2761  00A1  00A8               	movwf	??___fladd
  2762  00A2  0828               	movf	??___fladd,w
  2763  00A3  00A0               	movwf	___fladd@b
  2764  00A4                     l1931:
  2765  00A4  0876               	movf	___fladd@grs,w
  2766  00A5  00A8               	movwf	??___fladd
  2767  00A6  0828               	movf	??___fladd,w
  2768  00A7  00A4               	movwf	___fladd@a
  2769  00A8                     l1933:
  2770  00A8  0821               	movf	___fladd@b+1,w
  2771  00A9  00A8               	movwf	??___fladd
  2772  00AA  0828               	movf	??___fladd,w
  2773  00AB  00F6               	movwf	___fladd@grs
  2774  00AC                     l1935:
  2775  00AC  0825               	movf	___fladd@a+1,w
  2776  00AD  00A8               	movwf	??___fladd
  2777  00AE  0828               	movf	??___fladd,w
  2778  00AF  00A1               	movwf	___fladd@b+1
  2779  00B0                     l1937:
  2780  00B0  0876               	movf	___fladd@grs,w
  2781  00B1  00A8               	movwf	??___fladd
  2782  00B2  0828               	movf	??___fladd,w
  2783  00B3  00A5               	movwf	___fladd@a+1
  2784  00B4                     l1939:
  2785  00B4  0822               	movf	___fladd@b+2,w
  2786  00B5  00A8               	movwf	??___fladd
  2787  00B6  0828               	movf	??___fladd,w
  2788  00B7  00F6               	movwf	___fladd@grs
  2789  00B8                     l1941:
  2790  00B8  0826               	movf	___fladd@a+2,w
  2791  00B9  00A8               	movwf	??___fladd
  2792  00BA  0828               	movf	??___fladd,w
  2793  00BB  00A2               	movwf	___fladd@b+2
  2794  00BC                     l1943:
  2795  00BC  0876               	movf	___fladd@grs,w
  2796  00BD  00A8               	movwf	??___fladd
  2797  00BE  0828               	movf	??___fladd,w
  2798  00BF  00A6               	movwf	___fladd@a+2
  2799  00C0                     l1945:
  2800  00C0  0823               	movf	___fladd@b+3,w
  2801  00C1  00A8               	movwf	??___fladd
  2802  00C2  0828               	movf	??___fladd,w
  2803  00C3  00F6               	movwf	___fladd@grs
  2804  00C4                     l1947:
  2805  00C4  0827               	movf	___fladd@a+3,w
  2806  00C5  00A8               	movwf	??___fladd
  2807  00C6  0828               	movf	??___fladd,w
  2808  00C7  00A3               	movwf	___fladd@b+3
  2809  00C8                     l1949:
  2810  00C8  0876               	movf	___fladd@grs,w
  2811  00C9  00A8               	movwf	??___fladd
  2812  00CA  0828               	movf	??___fladd,w
  2813  00CB  00A7               	movwf	___fladd@a+3
  2814  00CC                     l1951:
  2815  00CC  01F6               	clrf	___fladd@grs
  2816  00CD                     l1953:
  2817  00CD  0874               	movf	___fladd@aexp,w
  2818  00CE  00A8               	movwf	??___fladd
  2819  00CF  01A9               	clrf	??___fladd+1
  2820  00D0  0829               	movf	??___fladd+1,w
  2821  00D1  00AB               	movwf	??___fladd+3
  2822  00D2  0875               	movf	___fladd@bexp,w
  2823  00D3  0228               	subwf	??___fladd,w
  2824  00D4  00AA               	movwf	??___fladd+2
  2825  00D5  1C03               	skipc
  2826  00D6  03AB               	decf	??___fladd+3,f
  2827  00D7  082B               	movf	??___fladd+3,w
  2828  00D8  3A80               	xorlw	128
  2829  00D9  00FF               	movwf	btemp+1
  2830  00DA  3080               	movlw	128
  2831  00DB  027F               	subwf	btemp+1,w
  2832  00DC  1D03               	skipz
  2833  00DD  28E0               	goto	u2525
  2834  00DE  301A               	movlw	26
  2835  00DF  022A               	subwf	??___fladd+2,w
  2836  00E0                     u2525:
  2837  00E0  1C03               	skipc
  2838  00E1  28E3               	goto	u2521
  2839  00E2  28E4               	goto	u2520
  2840  00E3                     u2521:
  2841  00E3  2925               	goto	l1969
  2842  00E4                     u2520:
  2843  00E4                     l1955:
  2844  00E4  1283               	bcf	3,5	;RP0=0, select bank0
  2845  00E5  1303               	bcf	3,6	;RP1=0, select bank0
  2846  00E6  0823               	movf	___fladd@b+3,w
  2847  00E7  0422               	iorwf	___fladd@b+2,w
  2848  00E8  0421               	iorwf	___fladd@b+1,w
  2849  00E9  0420               	iorwf	___fladd@b,w
  2850  00EA  1D03               	skipz
  2851  00EB  28ED               	goto	u2531
  2852  00EC  28EF               	goto	u2530
  2853  00ED                     u2531:
  2854  00ED  3001               	movlw	1
  2855  00EE  28F0               	goto	u2540
  2856  00EF                     u2530:
  2857  00EF  3000               	movlw	0
  2858  00F0                     u2540:
  2859  00F0  00A8               	movwf	??___fladd
  2860  00F1  0828               	movf	??___fladd,w
  2861  00F2  00F6               	movwf	___fladd@grs
  2862  00F3  3000               	movlw	0
  2863  00F4  00A3               	movwf	___fladd@b+3
  2864  00F5  3000               	movlw	0
  2865  00F6  00A2               	movwf	___fladd@b+2
  2866  00F7  3000               	movlw	0
  2867  00F8  00A1               	movwf	___fladd@b+1
  2868  00F9  3000               	movlw	0
  2869  00FA  00A0               	movwf	___fladd@b
  2870  00FB  0874               	movf	___fladd@aexp,w
  2871  00FC  00A8               	movwf	??___fladd
  2872  00FD  0828               	movf	??___fladd,w
  2873  00FE  00F5               	movwf	___fladd@bexp
  2874  00FF  292B               	goto	l496
  2875  0100                     l498:
  2876  0100  1C76               	btfss	___fladd@grs,0
  2877  0101  2903               	goto	u2551
  2878  0102  2904               	goto	u2550
  2879  0103                     u2551:
  2880  0103  290F               	goto	l1959
  2881  0104                     u2550:
  2882  0104                     l1957:
  2883  0104  0876               	movf	___fladd@grs,w
  2884  0105  1283               	bcf	3,5	;RP0=0, select bank0
  2885  0106  1303               	bcf	3,6	;RP1=0, select bank0
  2886  0107  00A8               	movwf	??___fladd
  2887  0108  1003               	clrc
  2888  0109  0C28               	rrf	??___fladd,w
  2889  010A  3801               	iorlw	1
  2890  010B  00A9               	movwf	??___fladd+1
  2891  010C  0829               	movf	??___fladd+1,w
  2892  010D  00F6               	movwf	___fladd@grs
  2893  010E  2911               	goto	l1961
  2894  010F                     l1959:
  2895  010F  1003               	clrc
  2896  0110  0CF6               	rrf	___fladd@grs,f
  2897  0111                     l1961:
  2898  0111  1283               	bcf	3,5	;RP0=0, select bank0
  2899  0112  1303               	bcf	3,6	;RP1=0, select bank0
  2900  0113  1C20               	btfss	___fladd@b,0
  2901  0114  2916               	goto	u2561
  2902  0115  2917               	goto	u2560
  2903  0116                     u2561:
  2904  0116  2918               	goto	l1965
  2905  0117                     u2560:
  2906  0117                     l1963:
  2907  0117  17F6               	bsf	___fladd@grs,7
  2908  0118                     l1965:
  2909  0118  3001               	movlw	1
  2910  0119  00A8               	movwf	??___fladd
  2911  011A                     u2575:
  2912  011A  0D23               	rlf	___fladd@b+3,w
  2913  011B  0CA3               	rrf	___fladd@b+3,f
  2914  011C  0CA2               	rrf	___fladd@b+2,f
  2915  011D  0CA1               	rrf	___fladd@b+1,f
  2916  011E  0CA0               	rrf	___fladd@b,f
  2917  011F  0BA8               	decfsz	??___fladd& (0+127),f
  2918  0120  291A               	goto	u2575
  2919  0121                     l1967:
  2920  0121  3001               	movlw	1
  2921  0122  00A8               	movwf	??___fladd
  2922  0123  0828               	movf	??___fladd,w
  2923  0124  07F5               	addwf	___fladd@bexp,f
  2924  0125                     l1969:
  2925  0125  0874               	movf	___fladd@aexp,w
  2926  0126  0275               	subwf	___fladd@bexp,w
  2927  0127  1C03               	skipc
  2928  0128  292A               	goto	u2581
  2929  0129  292B               	goto	u2580
  2930  012A                     u2581:
  2931  012A  2900               	goto	l498
  2932  012B                     u2580:
  2933  012B                     l496:
  2934  012B  1B73               	btfsc	___fladd@signs,6
  2935  012C  292E               	goto	u2591
  2936  012D  292F               	goto	u2590
  2937  012E                     u2591:
  2938  012E  297E               	goto	l1995
  2939  012F                     u2590:
  2940  012F                     l1971:
  2941  012F  0875               	movf	___fladd@bexp,w
  2942  0130  1D03               	btfss	3,2
  2943  0131  2933               	goto	u2601
  2944  0132  2934               	goto	u2600
  2945  0133                     u2601:
  2946  0133  293F               	goto	l1977
  2947  0134                     u2600:
  2948  0134                     l1973:
  2949  0134  3000               	movlw	0
  2950  0135  1283               	bcf	3,5	;RP0=0, select bank0
  2951  0136  1303               	bcf	3,6	;RP1=0, select bank0
  2952  0137  00A3               	movwf	?___fladd+3
  2953  0138  3000               	movlw	0
  2954  0139  00A2               	movwf	?___fladd+2
  2955  013A  3000               	movlw	0
  2956  013B  00A1               	movwf	?___fladd+1
  2957  013C  3000               	movlw	0
  2958  013D  00A0               	movwf	?___fladd
  2959  013E  2AAE               	goto	l505
  2960  013F                     l1977:
  2961  013F  1283               	bcf	3,5	;RP0=0, select bank0
  2962  0140  1303               	bcf	3,6	;RP1=0, select bank0
  2963  0141  0824               	movf	___fladd@a,w
  2964  0142  07A0               	addwf	___fladd@b,f
  2965  0143  0825               	movf	___fladd@a+1,w
  2966  0144  1103               	clrz
  2967  0145  1803               	skipnc
  2968  0146  3E01               	addlw	1
  2969  0147  1903               	skipnz
  2970  0148  294A               	goto	u2611
  2971  0149  07A1               	addwf	___fladd@b+1,f
  2972  014A                     u2611:
  2973  014A  0826               	movf	___fladd@a+2,w
  2974  014B  1103               	clrz
  2975  014C  1803               	skipnc
  2976  014D  3E01               	addlw	1
  2977  014E  1903               	skipnz
  2978  014F  2951               	goto	u2612
  2979  0150  07A2               	addwf	___fladd@b+2,f
  2980  0151                     u2612:
  2981  0151  0827               	movf	___fladd@a+3,w
  2982  0152  1103               	clrz
  2983  0153  1803               	skipnc
  2984  0154  3E01               	addlw	1
  2985  0155  1903               	skipnz
  2986  0156  2958               	goto	u2613
  2987  0157  07A3               	addwf	___fladd@b+3,f
  2988  0158                     u2613:
  2989  0158                     l1979:
  2990  0158  1C23               	btfss	___fladd@b+3,0
  2991  0159  295B               	goto	u2621
  2992  015A  295C               	goto	u2620
  2993  015B                     u2621:
  2994  015B  2A34               	goto	l2029
  2995  015C                     u2620:
  2996  015C                     l1981:
  2997  015C  1C76               	btfss	___fladd@grs,0
  2998  015D  295F               	goto	u2631
  2999  015E  2960               	goto	u2630
  3000  015F                     u2631:
  3001  015F  2969               	goto	l1985
  3002  0160                     u2630:
  3003  0160                     l1983:
  3004  0160  0876               	movf	___fladd@grs,w
  3005  0161  00A8               	movwf	??___fladd
  3006  0162  1003               	clrc
  3007  0163  0C28               	rrf	??___fladd,w
  3008  0164  3801               	iorlw	1
  3009  0165  00A9               	movwf	??___fladd+1
  3010  0166  0829               	movf	??___fladd+1,w
  3011  0167  00F6               	movwf	___fladd@grs
  3012  0168  296B               	goto	l1987
  3013  0169                     l1985:
  3014  0169  1003               	clrc
  3015  016A  0CF6               	rrf	___fladd@grs,f
  3016  016B                     l1987:
  3017  016B  1C20               	btfss	___fladd@b,0
  3018  016C  296E               	goto	u2641
  3019  016D  296F               	goto	u2640
  3020  016E                     u2641:
  3021  016E  2970               	goto	l1991
  3022  016F                     u2640:
  3023  016F                     l1989:
  3024  016F  17F6               	bsf	___fladd@grs,7
  3025  0170                     l1991:
  3026  0170  3001               	movlw	1
  3027  0171  00A8               	movwf	??___fladd
  3028  0172                     u2655:
  3029  0172  0D23               	rlf	___fladd@b+3,w
  3030  0173  0CA3               	rrf	___fladd@b+3,f
  3031  0174  0CA2               	rrf	___fladd@b+2,f
  3032  0175  0CA1               	rrf	___fladd@b+1,f
  3033  0176  0CA0               	rrf	___fladd@b,f
  3034  0177  0BA8               	decfsz	??___fladd& (0+127),f
  3035  0178  2972               	goto	u2655
  3036  0179                     l1993:
  3037  0179  3001               	movlw	1
  3038  017A  00A8               	movwf	??___fladd
  3039  017B  0828               	movf	??___fladd,w
  3040  017C  07F5               	addwf	___fladd@bexp,f
  3041  017D  2A34               	goto	l2029
  3042  017E                     l1995:
  3043  017E  1283               	bcf	3,5	;RP0=0, select bank0
  3044  017F  1303               	bcf	3,6	;RP1=0, select bank0
  3045  0180  0823               	movf	___fladd@b+3,w
  3046  0181  3A80               	xorlw	128
  3047  0182  00FF               	movwf	btemp+1
  3048  0183  0827               	movf	___fladd@a+3,w
  3049  0184  3A80               	xorlw	128
  3050  0185  027F               	subwf	btemp+1,w
  3051  0186  1D03               	skipz
  3052  0187  2992               	goto	u2663
  3053  0188  0826               	movf	___fladd@a+2,w
  3054  0189  0222               	subwf	___fladd@b+2,w
  3055  018A  1D03               	skipz
  3056  018B  2992               	goto	u2663
  3057  018C  0825               	movf	___fladd@a+1,w
  3058  018D  0221               	subwf	___fladd@b+1,w
  3059  018E  1D03               	skipz
  3060  018F  2992               	goto	u2663
  3061  0190  0824               	movf	___fladd@a,w
  3062  0191  0220               	subwf	___fladd@b,w
  3063  0192                     u2663:
  3064  0192  1803               	skipnc
  3065  0193  2995               	goto	u2661
  3066  0194  2996               	goto	u2660
  3067  0195                     u2661:
  3068  0195  29EE               	goto	l2005
  3069  0196                     u2660:
  3070  0196                     l1997:
  3071  0196  30FF               	movlw	255
  3072  0197  00A8               	movwf	??___fladd
  3073  0198  30FF               	movlw	255
  3074  0199  00A9               	movwf	??___fladd+1
  3075  019A  30FF               	movlw	255
  3076  019B  00AA               	movwf	??___fladd+2
  3077  019C  30FF               	movlw	255
  3078  019D  00AB               	movwf	??___fladd+3
  3079  019E  0824               	movf	___fladd@a,w
  3080  019F  00AC               	movwf	??___fladd+4
  3081  01A0  0825               	movf	___fladd@a+1,w
  3082  01A1  00AD               	movwf	??___fladd+5
  3083  01A2  0826               	movf	___fladd@a+2,w
  3084  01A3  00AE               	movwf	??___fladd+6
  3085  01A4  0827               	movf	___fladd@a+3,w
  3086  01A5  00AF               	movwf	??___fladd+7
  3087  01A6  0820               	movf	___fladd@b,w
  3088  01A7  02AC               	subwf	??___fladd+4,f
  3089  01A8  0821               	movf	___fladd@b+1,w
  3090  01A9  1C03               	skipc
  3091  01AA  0F21               	incfsz	___fladd@b+1,w
  3092  01AB  29AD               	goto	u2671
  3093  01AC  29AE               	goto	u2672
  3094  01AD                     u2671:
  3095  01AD  02AD               	subwf	??___fladd+5,f
  3096  01AE                     u2672:
  3097  01AE  0822               	movf	___fladd@b+2,w
  3098  01AF  1C03               	skipc
  3099  01B0  0F22               	incfsz	___fladd@b+2,w
  3100  01B1  29B3               	goto	u2673
  3101  01B2  29B4               	goto	u2674
  3102  01B3                     u2673:
  3103  01B3  02AE               	subwf	??___fladd+6,f
  3104  01B4                     u2674:
  3105  01B4  0823               	movf	___fladd@b+3,w
  3106  01B5  1C03               	skipc
  3107  01B6  0F23               	incfsz	___fladd@b+3,w
  3108  01B7  29B9               	goto	u2675
  3109  01B8  29BA               	goto	u2676
  3110  01B9                     u2675:
  3111  01B9  02AF               	subwf	??___fladd+7,f
  3112  01BA                     u2676:
  3113  01BA  082C               	movf	??___fladd+4,w
  3114  01BB  07A8               	addwf	??___fladd,f
  3115  01BC  082D               	movf	??___fladd+5,w
  3116  01BD  1803               	skipnc
  3117  01BE  0F2D               	incfsz	??___fladd+5,w
  3118  01BF  29C1               	goto	u2680
  3119  01C0  29C2               	goto	u2681
  3120  01C1                     u2680:
  3121  01C1  07A9               	addwf	??___fladd+1,f
  3122  01C2                     u2681:
  3123  01C2  082E               	movf	??___fladd+6,w
  3124  01C3  1803               	skipnc
  3125  01C4  0F2E               	incfsz	??___fladd+6,w
  3126  01C5  29C7               	goto	u2682
  3127  01C6  29C8               	goto	u2683
  3128  01C7                     u2682:
  3129  01C7  07AA               	addwf	??___fladd+2,f
  3130  01C8                     u2683:
  3131  01C8  082F               	movf	??___fladd+7,w
  3132  01C9  1803               	skipnc
  3133  01CA  0A2F               	incf	??___fladd+7,w
  3134  01CB  07AB               	addwf	??___fladd+3,f
  3135  01CC  082B               	movf	??___fladd+3,w
  3136  01CD  00A3               	movwf	___fladd@b+3
  3137  01CE  082A               	movf	??___fladd+2,w
  3138  01CF  00A2               	movwf	___fladd@b+2
  3139  01D0  0829               	movf	??___fladd+1,w
  3140  01D1  00A1               	movwf	___fladd@b+1
  3141  01D2  0828               	movf	??___fladd,w
  3142  01D3  00A0               	movwf	___fladd@b
  3143  01D4                     l1999:
  3144  01D4  3080               	movlw	128
  3145  01D5  00A8               	movwf	??___fladd
  3146  01D6  0828               	movf	??___fladd,w
  3147  01D7  06F3               	xorwf	___fladd@signs,f
  3148  01D8  09F6               	comf	___fladd@grs,f
  3149  01D9  0AF6               	incf	___fladd@grs,f
  3150  01DA                     l2001:
  3151  01DA  0876               	movf	___fladd@grs,w
  3152  01DB  1D03               	btfss	3,2
  3153  01DC  29DE               	goto	u2691
  3154  01DD  29DF               	goto	u2690
  3155  01DE                     u2691:
  3156  01DE  29FC               	goto	l513
  3157  01DF                     u2690:
  3158  01DF                     l2003:
  3159  01DF  3001               	movlw	1
  3160  01E0  07A0               	addwf	___fladd@b,f
  3161  01E1  3000               	movlw	0
  3162  01E2  1803               	skipnc
  3163  01E3  3001               	movlw	1
  3164  01E4  07A1               	addwf	___fladd@b+1,f
  3165  01E5  3000               	movlw	0
  3166  01E6  1803               	skipnc
  3167  01E7  3001               	movlw	1
  3168  01E8  07A2               	addwf	___fladd@b+2,f
  3169  01E9  3000               	movlw	0
  3170  01EA  1803               	skipnc
  3171  01EB  3001               	movlw	1
  3172  01EC  07A3               	addwf	___fladd@b+3,f
  3173  01ED  29FC               	goto	l513
  3174  01EE                     l2005:
  3175  01EE  0824               	movf	___fladd@a,w
  3176  01EF  02A0               	subwf	___fladd@b,f
  3177  01F0  0825               	movf	___fladd@a+1,w
  3178  01F1  1C03               	skipc
  3179  01F2  0F25               	incfsz	___fladd@a+1,w
  3180  01F3  02A1               	subwf	___fladd@b+1,f
  3181  01F4  0826               	movf	___fladd@a+2,w
  3182  01F5  1C03               	skipc
  3183  01F6  0F26               	incfsz	___fladd@a+2,w
  3184  01F7  02A2               	subwf	___fladd@b+2,f
  3185  01F8  0827               	movf	___fladd@a+3,w
  3186  01F9  1C03               	skipc
  3187  01FA  0F27               	incfsz	___fladd@a+3,w
  3188  01FB  02A3               	subwf	___fladd@b+3,f
  3189  01FC                     l513:
  3190  01FC  0823               	movf	___fladd@b+3,w
  3191  01FD  0422               	iorwf	___fladd@b+2,w
  3192  01FE  0421               	iorwf	___fladd@b+1,w
  3193  01FF  0420               	iorwf	___fladd@b,w
  3194  0200  1D03               	skipz
  3195  0201  2A03               	goto	u2701
  3196  0202  2A04               	goto	u2700
  3197  0203                     u2701:
  3198  0203  2A30               	goto	l2027
  3199  0204                     u2700:
  3200  0204                     l2007:
  3201  0204  0876               	movf	___fladd@grs,w
  3202  0205  1D03               	btfss	3,2
  3203  0206  2A08               	goto	u2711
  3204  0207  2A09               	goto	u2710
  3205  0208                     u2711:
  3206  0208  2A30               	goto	l2027
  3207  0209                     u2710:
  3208  0209                     l2009:
  3209  0209  3000               	movlw	0
  3210  020A  00A3               	movwf	?___fladd+3
  3211  020B  3000               	movlw	0
  3212  020C  00A2               	movwf	?___fladd+2
  3213  020D  3000               	movlw	0
  3214  020E  00A1               	movwf	?___fladd+1
  3215  020F  3000               	movlw	0
  3216  0210  00A0               	movwf	?___fladd
  3217  0211  2AAE               	goto	l505
  3218  0212                     l2013:
  3219  0212  3001               	movlw	1
  3220  0213  00A8               	movwf	??___fladd
  3221  0214                     u2725:
  3222  0214  1003               	clrc
  3223  0215  0DA0               	rlf	___fladd@b,f
  3224  0216  0DA1               	rlf	___fladd@b+1,f
  3225  0217  0DA2               	rlf	___fladd@b+2,f
  3226  0218  0DA3               	rlf	___fladd@b+3,f
  3227  0219  0BA8               	decfsz	??___fladd,f
  3228  021A  2A14               	goto	u2725
  3229  021B                     l2015:
  3230  021B  1FF6               	btfss	___fladd@grs,7
  3231  021C  2A1E               	goto	u2731
  3232  021D  2A1F               	goto	u2730
  3233  021E                     u2731:
  3234  021E  2A20               	goto	l517
  3235  021F                     u2730:
  3236  021F                     l2017:
  3237  021F  1420               	bsf	___fladd@b,0
  3238  0220                     l517:
  3239  0220  1C76               	btfss	___fladd@grs,0
  3240  0221  2A23               	goto	u2741
  3241  0222  2A24               	goto	u2740
  3242  0223                     u2741:
  3243  0223  2A27               	goto	l2021
  3244  0224                     u2740:
  3245  0224                     l2019:
  3246  0224  1403               	setc
  3247  0225  0DF6               	rlf	___fladd@grs,f
  3248  0226  2A29               	goto	l2023
  3249  0227                     l2021:
  3250  0227  1003               	clrc
  3251  0228  0DF6               	rlf	___fladd@grs,f
  3252  0229                     l2023:
  3253  0229  0875               	movf	___fladd@bexp,w
  3254  022A  1903               	btfsc	3,2
  3255  022B  2A2D               	goto	u2751
  3256  022C  2A2E               	goto	u2750
  3257  022D                     u2751:
  3258  022D  2A30               	goto	l2027
  3259  022E                     u2750:
  3260  022E                     l2025:
  3261  022E  3001               	movlw	1
  3262  022F  02F5               	subwf	___fladd@bexp,f
  3263  0230                     l2027:
  3264  0230  1FA2               	btfss	___fladd@b+2,7
  3265  0231  2A33               	goto	u2761
  3266  0232  2A34               	goto	u2760
  3267  0233                     u2761:
  3268  0233  2A12               	goto	l2013
  3269  0234                     u2760:
  3270  0234                     l2029:
  3271  0234  01F4               	clrf	___fladd@aexp
  3272  0235                     l2031:
  3273  0235  1FF6               	btfss	___fladd@grs,7
  3274  0236  2A38               	goto	u2771
  3275  0237  2A39               	goto	u2770
  3276  0238                     u2771:
  3277  0238  2A47               	goto	l2039
  3278  0239                     u2770:
  3279  0239                     l2033:
  3280  0239  0876               	movf	___fladd@grs,w
  3281  023A  397F               	andlw	127
  3282  023B  1903               	btfsc	3,2
  3283  023C  2A3E               	goto	u2781
  3284  023D  2A3F               	goto	u2780
  3285  023E                     u2781:
  3286  023E  2A42               	goto	l523
  3287  023F                     u2780:
  3288  023F                     l2035:
  3289  023F  01F4               	clrf	___fladd@aexp
  3290  0240  0AF4               	incf	___fladd@aexp,f
  3291  0241  2A47               	goto	l2039
  3292  0242                     l523:
  3293  0242  1C20               	btfss	___fladd@b,0
  3294  0243  2A45               	goto	u2791
  3295  0244  2A46               	goto	u2790
  3296  0245                     u2791:
  3297  0245  2A47               	goto	l2039
  3298  0246                     u2790:
  3299  0246  2A3F               	goto	l2035
  3300  0247                     l2039:
  3301  0247  0874               	movf	___fladd@aexp,w
  3302  0248  1903               	btfsc	3,2
  3303  0249  2A4B               	goto	u2801
  3304  024A  2A4C               	goto	u2800
  3305  024B                     u2801:
  3306  024B  2A80               	goto	l526
  3307  024C                     u2800:
  3308  024C                     l2041:
  3309  024C  3001               	movlw	1
  3310  024D  07A0               	addwf	___fladd@b,f
  3311  024E  3000               	movlw	0
  3312  024F  1803               	skipnc
  3313  0250  3001               	movlw	1
  3314  0251  07A1               	addwf	___fladd@b+1,f
  3315  0252  3000               	movlw	0
  3316  0253  1803               	skipnc
  3317  0254  3001               	movlw	1
  3318  0255  07A2               	addwf	___fladd@b+2,f
  3319  0256  3000               	movlw	0
  3320  0257  1803               	skipnc
  3321  0258  3001               	movlw	1
  3322  0259  07A3               	addwf	___fladd@b+3,f
  3323  025A                     l2043:
  3324  025A  1C23               	btfss	___fladd@b+3,0
  3325  025B  2A5D               	goto	u2811
  3326  025C  2A5E               	goto	u2810
  3327  025D                     u2811:
  3328  025D  2A80               	goto	l526
  3329  025E                     u2810:
  3330  025E                     l2045:
  3331  025E  0820               	movf	___fladd@b,w
  3332  025F  00A8               	movwf	??___fladd
  3333  0260  0821               	movf	___fladd@b+1,w
  3334  0261  00A9               	movwf	??___fladd+1
  3335  0262  0822               	movf	___fladd@b+2,w
  3336  0263  00AA               	movwf	??___fladd+2
  3337  0264  0823               	movf	___fladd@b+3,w
  3338  0265  00AB               	movwf	??___fladd+3
  3339  0266  3001               	movlw	1
  3340  0267  00AC               	movwf	??___fladd+4
  3341  0268                     u2825:
  3342  0268  0D2B               	rlf	??___fladd+3,w
  3343  0269  0CAB               	rrf	??___fladd+3,f
  3344  026A  0CAA               	rrf	??___fladd+2,f
  3345  026B  0CA9               	rrf	??___fladd+1,f
  3346  026C  0CA8               	rrf	??___fladd,f
  3347  026D                     u2820:
  3348  026D  0BAC               	decfsz	??___fladd+4,f
  3349  026E  2A68               	goto	u2825
  3350  026F  082B               	movf	??___fladd+3,w
  3351  0270  00A3               	movwf	___fladd@b+3
  3352  0271  082A               	movf	??___fladd+2,w
  3353  0272  00A2               	movwf	___fladd@b+2
  3354  0273  0829               	movf	??___fladd+1,w
  3355  0274  00A1               	movwf	___fladd@b+1
  3356  0275  0828               	movf	??___fladd,w
  3357  0276  00A0               	movwf	___fladd@b
  3358  0277  0A75               	incf	___fladd@bexp,w
  3359  0278  1903               	btfsc	3,2
  3360  0279  2A7B               	goto	u2831
  3361  027A  2A7C               	goto	u2830
  3362  027B                     u2831:
  3363  027B  2A80               	goto	l526
  3364  027C                     u2830:
  3365  027C                     l2047:
  3366  027C  3001               	movlw	1
  3367  027D  00A8               	movwf	??___fladd
  3368  027E  0828               	movf	??___fladd,w
  3369  027F  07F5               	addwf	___fladd@bexp,f
  3370  0280                     l526:
  3371  0280  0A75               	incf	___fladd@bexp,w
  3372  0281  1903               	btfsc	3,2
  3373  0282  2A84               	goto	u2841
  3374  0283  2A85               	goto	u2840
  3375  0284                     u2841:
  3376  0284  2A8A               	goto	l2051
  3377  0285                     u2840:
  3378  0285                     l2049:
  3379  0285  0875               	movf	___fladd@bexp,w
  3380  0286  1D03               	btfss	3,2
  3381  0287  2A89               	goto	u2851
  3382  0288  2A8A               	goto	u2850
  3383  0289                     u2851:
  3384  0289  2A98               	goto	l2057
  3385  028A                     u2850:
  3386  028A                     l2051:
  3387  028A  3000               	movlw	0
  3388  028B  00A3               	movwf	___fladd@b+3
  3389  028C  3000               	movlw	0
  3390  028D  00A2               	movwf	___fladd@b+2
  3391  028E  3000               	movlw	0
  3392  028F  00A1               	movwf	___fladd@b+1
  3393  0290  3000               	movlw	0
  3394  0291  00A0               	movwf	___fladd@b
  3395  0292                     l2053:
  3396  0292  0875               	movf	___fladd@bexp,w
  3397  0293  1D03               	btfss	3,2
  3398  0294  2A96               	goto	u2861
  3399  0295  2A97               	goto	u2860
  3400  0296                     u2861:
  3401  0296  2A98               	goto	l2057
  3402  0297                     u2860:
  3403  0297                     l2055:
  3404  0297  01F3               	clrf	___fladd@signs
  3405  0298                     l2057:
  3406  0298  1C75               	btfss	___fladd@bexp,0
  3407  0299  2A9B               	goto	u2871
  3408  029A  2A9C               	goto	u2870
  3409  029B                     u2871:
  3410  029B  2A9E               	goto	l2061
  3411  029C                     u2870:
  3412  029C                     l2059:
  3413  029C  17A2               	bsf	___fladd@b+2,7
  3414  029D  2AA2               	goto	l534
  3415  029E                     l2061:
  3416  029E  307F               	movlw	127
  3417  029F  00A8               	movwf	??___fladd
  3418  02A0  0828               	movf	??___fladd,w
  3419  02A1  05A2               	andwf	___fladd@b+2,f
  3420  02A2                     l534:
  3421  02A2  0875               	movf	___fladd@bexp,w
  3422  02A3  00A8               	movwf	??___fladd
  3423  02A4  1003               	clrc
  3424  02A5  0C28               	rrf	??___fladd,w
  3425  02A6  00A9               	movwf	??___fladd+1
  3426  02A7  0829               	movf	??___fladd+1,w
  3427  02A8  00A3               	movwf	___fladd@b+3
  3428  02A9                     l2063:
  3429  02A9  1FF3               	btfss	___fladd@signs,7
  3430  02AA  2AAC               	goto	u2881
  3431  02AB  2AAD               	goto	u2880
  3432  02AC                     u2881:
  3433  02AC  2AAE               	goto	l535
  3434  02AD                     u2880:
  3435  02AD                     l2065:
  3436  02AD  17A3               	bsf	___fladd@b+3,7
  3437  02AE                     l535:
  3438  02AE                     l505:
  3439  02AE  0008               	return
  3440  02AF                     __end_of___fladd:
  3441                           
  3442                           	psect	text14
  3443  02AF                     __ptext14:	
  3444 ;; *************** function ___fldiv *****************
  3445 ;; Defined at:
  3446 ;;		line 8 in file "C:\Program Files\Microchip\xc8\v2.32\pic\sources\c90\common\sprcdiv.c"
  3447 ;; Parameters:    Size  Location     Type
  3448 ;;  a               4   49[BANK0 ] unsigned char 
  3449 ;;  b               4   53[BANK0 ] unsigned char 
  3450 ;; Auto vars:     Size  Location     Type
  3451 ;;  grs             4   69[BANK0 ] unsigned long 
  3452 ;;  rem             4   62[BANK0 ] unsigned long 
  3453 ;;  new_exp         2   67[BANK0 ] int 
  3454 ;;  aexp            1   74[BANK0 ] unsigned char 
  3455 ;;  bexp            1   73[BANK0 ] unsigned char 
  3456 ;;  sign            1   66[BANK0 ] unsigned char 
  3457 ;; Return value:  Size  Location     Type
  3458 ;;                  4   49[BANK0 ] unsigned char 
  3459 ;; Registers used:
  3460 ;;		wreg, status,2, status,0, btemp+1
  3461 ;; Tracked objects:
  3462 ;;		On entry : 0/0
  3463 ;;		On exit  : 0/0
  3464 ;;		Unchanged: 0/0
  3465 ;; Data sizes:     COMMON   BANK0   BANK1   BANK3   BANK2
  3466 ;;      Params:         0       8       0       0       0
  3467 ;;      Locals:         0      13       0       0       0
  3468 ;;      Temps:          0       5       0       0       0
  3469 ;;      Totals:         0      26       0       0       0
  3470 ;;Total ram usage:       26 bytes
  3471 ;; Hardware stack levels used: 1
  3472 ;; Hardware stack levels required when called: 1
  3473 ;; This function calls:
  3474 ;;		Nothing
  3475 ;; This function is called by:
  3476 ;;		_PrepareTempHumDataPacket
  3477 ;; This function uses a non-reentrant model
  3478 ;;
  3479                           
  3480                           
  3481                           ;psect for function ___fldiv
  3482  02AF                     ___fldiv:
  3483  02AF                     l1529:	
  3484                           ;incstack = 0
  3485                           ; Regs used in ___fldiv: [wreg+status,2+status,0+btemp+1]
  3486                           
  3487  02AF  1283               	bcf	3,5	;RP0=0, select bank0
  3488  02B0  1303               	bcf	3,6	;RP1=0, select bank0
  3489  02B1  0858               	movf	___fldiv@b+3,w
  3490  02B2  3980               	andlw	128
  3491  02B3  00D9               	movwf	??___fldiv
  3492  02B4  0859               	movf	??___fldiv,w
  3493  02B5  00E2               	movwf	___fldiv@sign
  3494  02B6                     l1531:
  3495  02B6  0858               	movf	___fldiv@b+3,w
  3496  02B7  00D9               	movwf	??___fldiv
  3497  02B8  0759               	addwf	??___fldiv,w
  3498  02B9  00DA               	movwf	??___fldiv+1
  3499  02BA  085A               	movf	??___fldiv+1,w
  3500  02BB  00E9               	movwf	___fldiv@bexp
  3501  02BC                     l1533:
  3502  02BC  1FD7               	btfss	___fldiv@b+2,7
  3503  02BD  2ABF               	goto	u1791
  3504  02BE  2AC0               	goto	u1790
  3505  02BF                     u1791:
  3506  02BF  2AC1               	goto	l1537
  3507  02C0                     u1790:
  3508  02C0                     l1535:
  3509  02C0  1469               	bsf	___fldiv@bexp,0
  3510  02C1                     l1537:
  3511  02C1  0869               	movf	___fldiv@bexp,w
  3512  02C2  1903               	btfsc	3,2
  3513  02C3  2AC5               	goto	u1801
  3514  02C4  2AC6               	goto	u1800
  3515  02C5                     u1801:
  3516  02C5  2AD6               	goto	l1547
  3517  02C6                     u1800:
  3518  02C6                     l1539:
  3519  02C6  0A69               	incf	___fldiv@bexp,w
  3520  02C7  1D03               	btfss	3,2
  3521  02C8  2ACA               	goto	u1811
  3522  02C9  2ACB               	goto	u1810
  3523  02CA                     u1811:
  3524  02CA  2AD3               	goto	l1543
  3525  02CB                     u1810:
  3526  02CB                     l1541:
  3527  02CB  3000               	movlw	0
  3528  02CC  00D8               	movwf	___fldiv@b+3
  3529  02CD  3000               	movlw	0
  3530  02CE  00D7               	movwf	___fldiv@b+2
  3531  02CF  3000               	movlw	0
  3532  02D0  00D6               	movwf	___fldiv@b+1
  3533  02D1  3000               	movlw	0
  3534  02D2  00D5               	movwf	___fldiv@b
  3535  02D3                     l1543:
  3536  02D3  17D7               	bsf	___fldiv@b+2,7
  3537  02D4                     l1545:
  3538  02D4  01D8               	clrf	___fldiv@b+3
  3539  02D5  2ADE               	goto	l1549
  3540  02D6                     l1547:
  3541  02D6  3000               	movlw	0
  3542  02D7  00D8               	movwf	___fldiv@b+3
  3543  02D8  3000               	movlw	0
  3544  02D9  00D7               	movwf	___fldiv@b+2
  3545  02DA  3000               	movlw	0
  3546  02DB  00D6               	movwf	___fldiv@b+1
  3547  02DC  3000               	movlw	0
  3548  02DD  00D5               	movwf	___fldiv@b
  3549  02DE                     l1549:
  3550  02DE  0854               	movf	___fldiv@a+3,w
  3551  02DF  3980               	andlw	128
  3552  02E0  00D9               	movwf	??___fldiv
  3553  02E1  0859               	movf	??___fldiv,w
  3554  02E2  06E2               	xorwf	___fldiv@sign,f
  3555  02E3                     l1551:
  3556  02E3  0854               	movf	___fldiv@a+3,w
  3557  02E4  00D9               	movwf	??___fldiv
  3558  02E5  0759               	addwf	??___fldiv,w
  3559  02E6  00DA               	movwf	??___fldiv+1
  3560  02E7  085A               	movf	??___fldiv+1,w
  3561  02E8  00EA               	movwf	___fldiv@aexp
  3562  02E9                     l1553:
  3563  02E9  1FD3               	btfss	___fldiv@a+2,7
  3564  02EA  2AEC               	goto	u1821
  3565  02EB  2AED               	goto	u1820
  3566  02EC                     u1821:
  3567  02EC  2AEE               	goto	l1557
  3568  02ED                     u1820:
  3569  02ED                     l1555:
  3570  02ED  146A               	bsf	___fldiv@aexp,0
  3571  02EE                     l1557:
  3572  02EE  086A               	movf	___fldiv@aexp,w
  3573  02EF  1903               	btfsc	3,2
  3574  02F0  2AF2               	goto	u1831
  3575  02F1  2AF3               	goto	u1830
  3576  02F2                     u1831:
  3577  02F2  2B03               	goto	l1567
  3578  02F3                     u1830:
  3579  02F3                     l1559:
  3580  02F3  0A6A               	incf	___fldiv@aexp,w
  3581  02F4  1D03               	btfss	3,2
  3582  02F5  2AF7               	goto	u1841
  3583  02F6  2AF8               	goto	u1840
  3584  02F7                     u1841:
  3585  02F7  2B00               	goto	l1563
  3586  02F8                     u1840:
  3587  02F8                     l1561:
  3588  02F8  3000               	movlw	0
  3589  02F9  00D4               	movwf	___fldiv@a+3
  3590  02FA  3000               	movlw	0
  3591  02FB  00D3               	movwf	___fldiv@a+2
  3592  02FC  3000               	movlw	0
  3593  02FD  00D2               	movwf	___fldiv@a+1
  3594  02FE  3000               	movlw	0
  3595  02FF  00D1               	movwf	___fldiv@a
  3596  0300                     l1563:
  3597  0300  17D3               	bsf	___fldiv@a+2,7
  3598  0301                     l1565:
  3599  0301  01D4               	clrf	___fldiv@a+3
  3600  0302  2B0B               	goto	l548
  3601  0303                     l1567:
  3602  0303  3000               	movlw	0
  3603  0304  00D4               	movwf	___fldiv@a+3
  3604  0305  3000               	movlw	0
  3605  0306  00D3               	movwf	___fldiv@a+2
  3606  0307  3000               	movlw	0
  3607  0308  00D2               	movwf	___fldiv@a+1
  3608  0309  3000               	movlw	0
  3609  030A  00D1               	movwf	___fldiv@a
  3610  030B                     l548:
  3611  030B  0854               	movf	___fldiv@a+3,w
  3612  030C  0453               	iorwf	___fldiv@a+2,w
  3613  030D  0452               	iorwf	___fldiv@a+1,w
  3614  030E  0451               	iorwf	___fldiv@a,w
  3615  030F  1D03               	skipz
  3616  0310  2B12               	goto	u1851
  3617  0311  2B13               	goto	u1850
  3618  0312                     u1851:
  3619  0312  2B2C               	goto	l1577
  3620  0313                     u1850:
  3621  0313                     l1569:
  3622  0313  3000               	movlw	0
  3623  0314  00D8               	movwf	___fldiv@b+3
  3624  0315  3000               	movlw	0
  3625  0316  00D7               	movwf	___fldiv@b+2
  3626  0317  3000               	movlw	0
  3627  0318  00D6               	movwf	___fldiv@b+1
  3628  0319  3000               	movlw	0
  3629  031A  00D5               	movwf	___fldiv@b
  3630  031B  3080               	movlw	128
  3631  031C  04D7               	iorwf	___fldiv@b+2,f
  3632  031D  307F               	movlw	127
  3633  031E  04D8               	iorwf	___fldiv@b+3,f
  3634  031F                     l1571:
  3635  031F  0862               	movf	___fldiv@sign,w
  3636  0320  00D9               	movwf	??___fldiv
  3637  0321  0859               	movf	??___fldiv,w
  3638  0322  04D8               	iorwf	___fldiv@b+3,f
  3639  0323                     l1573:
  3640  0323  0858               	movf	___fldiv@b+3,w
  3641  0324  00D4               	movwf	?___fldiv+3
  3642  0325  0857               	movf	___fldiv@b+2,w
  3643  0326  00D3               	movwf	?___fldiv+2
  3644  0327  0856               	movf	___fldiv@b+1,w
  3645  0328  00D2               	movwf	?___fldiv+1
  3646  0329  0855               	movf	___fldiv@b,w
  3647  032A  00D1               	movwf	?___fldiv
  3648  032B  2C8B               	goto	l550
  3649  032C                     l1577:
  3650  032C  0869               	movf	___fldiv@bexp,w
  3651  032D  1D03               	btfss	3,2
  3652  032E  2B30               	goto	u1861
  3653  032F  2B31               	goto	u1860
  3654  0330                     u1861:
  3655  0330  2B3A               	goto	l1583
  3656  0331                     u1860:
  3657  0331                     l1579:
  3658  0331  3000               	movlw	0
  3659  0332  00D4               	movwf	?___fldiv+3
  3660  0333  3000               	movlw	0
  3661  0334  00D3               	movwf	?___fldiv+2
  3662  0335  3000               	movlw	0
  3663  0336  00D2               	movwf	?___fldiv+1
  3664  0337  3000               	movlw	0
  3665  0338  00D1               	movwf	?___fldiv
  3666  0339  2C8B               	goto	l550
  3667  033A                     l1583:
  3668  033A  0869               	movf	___fldiv@bexp,w
  3669  033B  00D9               	movwf	??___fldiv
  3670  033C  01DA               	clrf	??___fldiv+1
  3671  033D  085A               	movf	??___fldiv+1,w
  3672  033E  00DC               	movwf	??___fldiv+3
  3673  033F  086A               	movf	___fldiv@aexp,w
  3674  0340  0259               	subwf	??___fldiv,w
  3675  0341  00DB               	movwf	??___fldiv+2
  3676  0342  1C03               	skipc
  3677  0343  03DC               	decf	??___fldiv+3,f
  3678  0344  085B               	movf	??___fldiv+2,w
  3679  0345  3E7F               	addlw	127
  3680  0346  00E3               	movwf	___fldiv@new_exp
  3681  0347  085C               	movf	??___fldiv+3,w
  3682  0348  1803               	skipnc
  3683  0349  3E01               	addlw	1
  3684  034A  3E00               	addlw	0
  3685  034B  00E4               	movwf	___fldiv@new_exp+1
  3686  034C                     l1585:
  3687  034C  0858               	movf	___fldiv@b+3,w
  3688  034D  00E1               	movwf	___fldiv@rem+3
  3689  034E  0857               	movf	___fldiv@b+2,w
  3690  034F  00E0               	movwf	___fldiv@rem+2
  3691  0350  0856               	movf	___fldiv@b+1,w
  3692  0351  00DF               	movwf	___fldiv@rem+1
  3693  0352  0855               	movf	___fldiv@b,w
  3694  0353  00DE               	movwf	___fldiv@rem
  3695  0354                     l1587:
  3696  0354  3000               	movlw	0
  3697  0355  00D8               	movwf	___fldiv@b+3
  3698  0356  3000               	movlw	0
  3699  0357  00D7               	movwf	___fldiv@b+2
  3700  0358  3000               	movlw	0
  3701  0359  00D6               	movwf	___fldiv@b+1
  3702  035A  3000               	movlw	0
  3703  035B  00D5               	movwf	___fldiv@b
  3704  035C                     l1589:
  3705  035C  3000               	movlw	0
  3706  035D  00E8               	movwf	___fldiv@grs+3
  3707  035E  3000               	movlw	0
  3708  035F  00E7               	movwf	___fldiv@grs+2
  3709  0360  3000               	movlw	0
  3710  0361  00E6               	movwf	___fldiv@grs+1
  3711  0362  3000               	movlw	0
  3712  0363  00E5               	movwf	___fldiv@grs
  3713  0364                     l1591:
  3714  0364  01EA               	clrf	___fldiv@aexp
  3715  0365  2BB0               	goto	l1611
  3716  0366                     l1593:
  3717  0366  086A               	movf	___fldiv@aexp,w
  3718  0367  1903               	btfsc	3,2
  3719  0368  2B6A               	goto	u1871
  3720  0369  2B6B               	goto	u1870
  3721  036A                     u1871:
  3722  036A  2B8B               	goto	l1603
  3723  036B                     u1870:
  3724  036B                     l1595:
  3725  036B  3001               	movlw	1
  3726  036C  00D9               	movwf	??___fldiv
  3727  036D                     u1885:
  3728  036D  1003               	clrc
  3729  036E  0DDE               	rlf	___fldiv@rem,f
  3730  036F  0DDF               	rlf	___fldiv@rem+1,f
  3731  0370  0DE0               	rlf	___fldiv@rem+2,f
  3732  0371  0DE1               	rlf	___fldiv@rem+3,f
  3733  0372  0BD9               	decfsz	??___fldiv,f
  3734  0373  2B6D               	goto	u1885
  3735  0374  3001               	movlw	1
  3736  0375  00D9               	movwf	??___fldiv
  3737  0376                     u1895:
  3738  0376  1003               	clrc
  3739  0377  0DD5               	rlf	___fldiv@b,f
  3740  0378  0DD6               	rlf	___fldiv@b+1,f
  3741  0379  0DD7               	rlf	___fldiv@b+2,f
  3742  037A  0DD8               	rlf	___fldiv@b+3,f
  3743  037B  0BD9               	decfsz	??___fldiv,f
  3744  037C  2B76               	goto	u1895
  3745  037D                     l1597:
  3746  037D  1FE8               	btfss	___fldiv@grs+3,7
  3747  037E  2B80               	goto	u1901
  3748  037F  2B81               	goto	u1900
  3749  0380                     u1901:
  3750  0380  2B82               	goto	l1601
  3751  0381                     u1900:
  3752  0381                     l1599:
  3753  0381  1455               	bsf	___fldiv@b,0
  3754  0382                     l1601:
  3755  0382  3001               	movlw	1
  3756  0383  00D9               	movwf	??___fldiv
  3757  0384                     u1915:
  3758  0384  1003               	clrc
  3759  0385  0DE5               	rlf	___fldiv@grs,f
  3760  0386  0DE6               	rlf	___fldiv@grs+1,f
  3761  0387  0DE7               	rlf	___fldiv@grs+2,f
  3762  0388  0DE8               	rlf	___fldiv@grs+3,f
  3763  0389  0BD9               	decfsz	??___fldiv,f
  3764  038A  2B84               	goto	u1915
  3765  038B                     l1603:
  3766  038B  0854               	movf	___fldiv@a+3,w
  3767  038C  0261               	subwf	___fldiv@rem+3,w
  3768  038D  1D03               	skipz
  3769  038E  2B99               	goto	u1925
  3770  038F  0853               	movf	___fldiv@a+2,w
  3771  0390  0260               	subwf	___fldiv@rem+2,w
  3772  0391  1D03               	skipz
  3773  0392  2B99               	goto	u1925
  3774  0393  0852               	movf	___fldiv@a+1,w
  3775  0394  025F               	subwf	___fldiv@rem+1,w
  3776  0395  1D03               	skipz
  3777  0396  2B99               	goto	u1925
  3778  0397  0851               	movf	___fldiv@a,w
  3779  0398  025E               	subwf	___fldiv@rem,w
  3780  0399                     u1925:
  3781  0399  1C03               	skipc
  3782  039A  2B9C               	goto	u1921
  3783  039B  2B9D               	goto	u1920
  3784  039C                     u1921:
  3785  039C  2BAC               	goto	l1609
  3786  039D                     u1920:
  3787  039D                     l1605:
  3788  039D  1768               	bsf	___fldiv@grs+3,6
  3789  039E                     l1607:
  3790  039E  0851               	movf	___fldiv@a,w
  3791  039F  02DE               	subwf	___fldiv@rem,f
  3792  03A0  0852               	movf	___fldiv@a+1,w
  3793  03A1  1C03               	skipc
  3794  03A2  0F52               	incfsz	___fldiv@a+1,w
  3795  03A3  02DF               	subwf	___fldiv@rem+1,f
  3796  03A4  0853               	movf	___fldiv@a+2,w
  3797  03A5  1C03               	skipc
  3798  03A6  0F53               	incfsz	___fldiv@a+2,w
  3799  03A7  02E0               	subwf	___fldiv@rem+2,f
  3800  03A8  0854               	movf	___fldiv@a+3,w
  3801  03A9  1C03               	skipc
  3802  03AA  0F54               	incfsz	___fldiv@a+3,w
  3803  03AB  02E1               	subwf	___fldiv@rem+3,f
  3804  03AC                     l1609:
  3805  03AC  3001               	movlw	1
  3806  03AD  00D9               	movwf	??___fldiv
  3807  03AE  0859               	movf	??___fldiv,w
  3808  03AF  07EA               	addwf	___fldiv@aexp,f
  3809  03B0                     l1611:
  3810  03B0  301A               	movlw	26
  3811  03B1  026A               	subwf	___fldiv@aexp,w
  3812  03B2  1C03               	skipc
  3813  03B3  2BB5               	goto	u1931
  3814  03B4  2BB6               	goto	u1930
  3815  03B5                     u1931:
  3816  03B5  2B66               	goto	l1593
  3817  03B6                     u1930:
  3818  03B6                     l1613:
  3819  03B6  0861               	movf	___fldiv@rem+3,w
  3820  03B7  0460               	iorwf	___fldiv@rem+2,w
  3821  03B8  045F               	iorwf	___fldiv@rem+1,w
  3822  03B9  045E               	iorwf	___fldiv@rem,w
  3823  03BA  1903               	skipnz
  3824  03BB  2BBD               	goto	u1941
  3825  03BC  2BBE               	goto	u1940
  3826  03BD                     u1941:
  3827  03BD  2BDD               	goto	l1627
  3828  03BE                     u1940:
  3829  03BE                     l1615:
  3830  03BE  1465               	bsf	___fldiv@grs,0
  3831  03BF  2BDD               	goto	l1627
  3832  03C0                     l1617:
  3833  03C0  3001               	movlw	1
  3834  03C1  00D9               	movwf	??___fldiv
  3835  03C2                     u1955:
  3836  03C2  1003               	clrc
  3837  03C3  0DD5               	rlf	___fldiv@b,f
  3838  03C4  0DD6               	rlf	___fldiv@b+1,f
  3839  03C5  0DD7               	rlf	___fldiv@b+2,f
  3840  03C6  0DD8               	rlf	___fldiv@b+3,f
  3841  03C7  0BD9               	decfsz	??___fldiv,f
  3842  03C8  2BC2               	goto	u1955
  3843  03C9                     l1619:
  3844  03C9  1FE8               	btfss	___fldiv@grs+3,7
  3845  03CA  2BCC               	goto	u1961
  3846  03CB  2BCD               	goto	u1960
  3847  03CC                     u1961:
  3848  03CC  2BCE               	goto	l1623
  3849  03CD                     u1960:
  3850  03CD                     l1621:
  3851  03CD  1455               	bsf	___fldiv@b,0
  3852  03CE                     l1623:
  3853  03CE  3001               	movlw	1
  3854  03CF  00D9               	movwf	??___fldiv
  3855  03D0                     u1975:
  3856  03D0  1003               	clrc
  3857  03D1  0DE5               	rlf	___fldiv@grs,f
  3858  03D2  0DE6               	rlf	___fldiv@grs+1,f
  3859  03D3  0DE7               	rlf	___fldiv@grs+2,f
  3860  03D4  0DE8               	rlf	___fldiv@grs+3,f
  3861  03D5  0BD9               	decfsz	??___fldiv,f
  3862  03D6  2BD0               	goto	u1975
  3863  03D7                     l1625:
  3864  03D7  30FF               	movlw	255
  3865  03D8  07E3               	addwf	___fldiv@new_exp,f
  3866  03D9  1803               	skipnc
  3867  03DA  0AE4               	incf	___fldiv@new_exp+1,f
  3868  03DB  30FF               	movlw	255
  3869  03DC  07E4               	addwf	___fldiv@new_exp+1,f
  3870  03DD                     l1627:
  3871  03DD  1FD7               	btfss	___fldiv@b+2,7
  3872  03DE  2BE0               	goto	u1981
  3873  03DF  2BE1               	goto	u1980
  3874  03E0                     u1981:
  3875  03E0  2BC0               	goto	l1617
  3876  03E1                     u1980:
  3877  03E1                     l1629:
  3878  03E1  01EA               	clrf	___fldiv@aexp
  3879  03E2                     l1631:
  3880  03E2  1FE8               	btfss	___fldiv@grs+3,7
  3881  03E3  2BE5               	goto	u1991
  3882  03E4  2BE6               	goto	u1990
  3883  03E5                     u1991:
  3884  03E5  2C02               	goto	l1639
  3885  03E6                     u1990:
  3886  03E6                     l1633:
  3887  03E6  30FF               	movlw	255
  3888  03E7  0565               	andwf	___fldiv@grs,w
  3889  03E8  00D9               	movwf	??___fldiv
  3890  03E9  30FF               	movlw	255
  3891  03EA  0566               	andwf	___fldiv@grs+1,w
  3892  03EB  00DA               	movwf	??___fldiv+1
  3893  03EC  30FF               	movlw	255
  3894  03ED  0567               	andwf	___fldiv@grs+2,w
  3895  03EE  00DB               	movwf	??___fldiv+2
  3896  03EF  307F               	movlw	127
  3897  03F0  0568               	andwf	___fldiv@grs+3,w
  3898  03F1  00DC               	movwf	??___fldiv+3
  3899  03F2  085C               	movf	??___fldiv+3,w
  3900  03F3  045B               	iorwf	??___fldiv+2,w
  3901  03F4  045A               	iorwf	??___fldiv+1,w
  3902  03F5  0459               	iorwf	??___fldiv,w
  3903  03F6  1903               	skipnz
  3904  03F7  2BF9               	goto	u2001
  3905  03F8  2BFA               	goto	u2000
  3906  03F9                     u2001:
  3907  03F9  2BFD               	goto	l564
  3908  03FA                     u2000:
  3909  03FA                     l1635:
  3910  03FA  01EA               	clrf	___fldiv@aexp
  3911  03FB  0AEA               	incf	___fldiv@aexp,f
  3912  03FC  2C02               	goto	l1639
  3913  03FD                     l564:
  3914  03FD  1C55               	btfss	___fldiv@b,0
  3915  03FE  2C00               	goto	u2011
  3916  03FF  2C01               	goto	u2010
  3917  0400                     u2011:
  3918  0400  2C02               	goto	l1639
  3919  0401                     u2010:
  3920  0401  2BFA               	goto	l1635
  3921  0402                     l1639:
  3922  0402  086A               	movf	___fldiv@aexp,w
  3923  0403  1903               	btfsc	3,2
  3924  0404  2C06               	goto	u2021
  3925  0405  2C07               	goto	u2020
  3926  0406                     u2021:
  3927  0406  2C38               	goto	l1649
  3928  0407                     u2020:
  3929  0407                     l1641:
  3930  0407  3001               	movlw	1
  3931  0408  07D5               	addwf	___fldiv@b,f
  3932  0409  3000               	movlw	0
  3933  040A  1803               	skipnc
  3934  040B  3001               	movlw	1
  3935  040C  07D6               	addwf	___fldiv@b+1,f
  3936  040D  3000               	movlw	0
  3937  040E  1803               	skipnc
  3938  040F  3001               	movlw	1
  3939  0410  07D7               	addwf	___fldiv@b+2,f
  3940  0411  3000               	movlw	0
  3941  0412  1803               	skipnc
  3942  0413  3001               	movlw	1
  3943  0414  07D8               	addwf	___fldiv@b+3,f
  3944  0415                     l1643:
  3945  0415  1C58               	btfss	___fldiv@b+3,0
  3946  0416  2C18               	goto	u2031
  3947  0417  2C19               	goto	u2030
  3948  0418                     u2031:
  3949  0418  2C38               	goto	l1649
  3950  0419                     u2030:
  3951  0419                     l1645:
  3952  0419  0855               	movf	___fldiv@b,w
  3953  041A  00D9               	movwf	??___fldiv
  3954  041B  0856               	movf	___fldiv@b+1,w
  3955  041C  00DA               	movwf	??___fldiv+1
  3956  041D  0857               	movf	___fldiv@b+2,w
  3957  041E  00DB               	movwf	??___fldiv+2
  3958  041F  0858               	movf	___fldiv@b+3,w
  3959  0420  00DC               	movwf	??___fldiv+3
  3960  0421  3001               	movlw	1
  3961  0422  00DD               	movwf	??___fldiv+4
  3962  0423                     u2045:
  3963  0423  0D5C               	rlf	??___fldiv+3,w
  3964  0424  0CDC               	rrf	??___fldiv+3,f
  3965  0425  0CDB               	rrf	??___fldiv+2,f
  3966  0426  0CDA               	rrf	??___fldiv+1,f
  3967  0427  0CD9               	rrf	??___fldiv,f
  3968  0428                     u2040:
  3969  0428  0BDD               	decfsz	??___fldiv+4,f
  3970  0429  2C23               	goto	u2045
  3971  042A  085C               	movf	??___fldiv+3,w
  3972  042B  00D8               	movwf	___fldiv@b+3
  3973  042C  085B               	movf	??___fldiv+2,w
  3974  042D  00D7               	movwf	___fldiv@b+2
  3975  042E  085A               	movf	??___fldiv+1,w
  3976  042F  00D6               	movwf	___fldiv@b+1
  3977  0430  0859               	movf	??___fldiv,w
  3978  0431  00D5               	movwf	___fldiv@b
  3979  0432                     l1647:
  3980  0432  3001               	movlw	1
  3981  0433  07E3               	addwf	___fldiv@new_exp,f
  3982  0434  1803               	skipnc
  3983  0435  0AE4               	incf	___fldiv@new_exp+1,f
  3984  0436  3000               	movlw	0
  3985  0437  07E4               	addwf	___fldiv@new_exp+1,f
  3986  0438                     l1649:
  3987  0438  0864               	movf	___fldiv@new_exp+1,w
  3988  0439  3A80               	xorlw	128
  3989  043A  00FF               	movwf	btemp+1
  3990  043B  3080               	movlw	128
  3991  043C  027F               	subwf	btemp+1,w
  3992  043D  1D03               	skipz
  3993  043E  2C41               	goto	u2055
  3994  043F  30FF               	movlw	255
  3995  0440  0263               	subwf	___fldiv@new_exp,w
  3996  0441                     u2055:
  3997  0441  1C03               	skipc
  3998  0442  2C44               	goto	u2051
  3999  0443  2C45               	goto	u2050
  4000  0444                     u2051:
  4001  0444  2C53               	goto	l1653
  4002  0445                     u2050:
  4003  0445                     l1651:
  4004  0445  30FF               	movlw	255
  4005  0446  1283               	bcf	3,5	;RP0=0, select bank0
  4006  0447  1303               	bcf	3,6	;RP1=0, select bank0
  4007  0448  00E3               	movwf	___fldiv@new_exp
  4008  0449  3000               	movlw	0
  4009  044A  00E4               	movwf	___fldiv@new_exp+1
  4010  044B  3000               	movlw	0
  4011  044C  00D8               	movwf	___fldiv@b+3
  4012  044D  3000               	movlw	0
  4013  044E  00D7               	movwf	___fldiv@b+2
  4014  044F  3000               	movlw	0
  4015  0450  00D6               	movwf	___fldiv@b+1
  4016  0451  3000               	movlw	0
  4017  0452  00D5               	movwf	___fldiv@b
  4018  0453                     l1653:
  4019  0453  1283               	bcf	3,5	;RP0=0, select bank0
  4020  0454  1303               	bcf	3,6	;RP1=0, select bank0
  4021  0455  0864               	movf	___fldiv@new_exp+1,w
  4022  0456  3A80               	xorlw	128
  4023  0457  00FF               	movwf	btemp+1
  4024  0458  3080               	movlw	128
  4025  0459  027F               	subwf	btemp+1,w
  4026  045A  1D03               	skipz
  4027  045B  2C5E               	goto	u2065
  4028  045C  3001               	movlw	1
  4029  045D  0263               	subwf	___fldiv@new_exp,w
  4030  045E                     u2065:
  4031  045E  1803               	skipnc
  4032  045F  2C61               	goto	u2061
  4033  0460  2C62               	goto	u2060
  4034  0461                     u2061:
  4035  0461  2C6F               	goto	l570
  4036  0462                     u2060:
  4037  0462                     l1655:
  4038  0462  1283               	bcf	3,5	;RP0=0, select bank0
  4039  0463  1303               	bcf	3,6	;RP1=0, select bank0
  4040  0464  01E3               	clrf	___fldiv@new_exp
  4041  0465  01E4               	clrf	___fldiv@new_exp+1
  4042  0466                     l1657:
  4043  0466  3000               	movlw	0
  4044  0467  00D8               	movwf	___fldiv@b+3
  4045  0468  3000               	movlw	0
  4046  0469  00D7               	movwf	___fldiv@b+2
  4047  046A  3000               	movlw	0
  4048  046B  00D6               	movwf	___fldiv@b+1
  4049  046C  3000               	movlw	0
  4050  046D  00D5               	movwf	___fldiv@b
  4051  046E                     l1659:
  4052  046E  01E2               	clrf	___fldiv@sign
  4053  046F                     l570:
  4054  046F  1283               	bcf	3,5	;RP0=0, select bank0
  4055  0470  1303               	bcf	3,6	;RP1=0, select bank0
  4056  0471  0863               	movf	___fldiv@new_exp,w
  4057  0472  00D9               	movwf	??___fldiv
  4058  0473  0859               	movf	??___fldiv,w
  4059  0474  00E9               	movwf	___fldiv@bexp
  4060  0475                     l1661:
  4061  0475  1C69               	btfss	___fldiv@bexp,0
  4062  0476  2C78               	goto	u2071
  4063  0477  2C79               	goto	u2070
  4064  0478                     u2071:
  4065  0478  2C7B               	goto	l1665
  4066  0479                     u2070:
  4067  0479                     l1663:
  4068  0479  17D7               	bsf	___fldiv@b+2,7
  4069  047A  2C7F               	goto	l572
  4070  047B                     l1665:
  4071  047B  307F               	movlw	127
  4072  047C  00D9               	movwf	??___fldiv
  4073  047D  0859               	movf	??___fldiv,w
  4074  047E  05D7               	andwf	___fldiv@b+2,f
  4075  047F                     l572:
  4076  047F  0869               	movf	___fldiv@bexp,w
  4077  0480  00D9               	movwf	??___fldiv
  4078  0481  1003               	clrc
  4079  0482  0C59               	rrf	??___fldiv,w
  4080  0483  00DA               	movwf	??___fldiv+1
  4081  0484  085A               	movf	??___fldiv+1,w
  4082  0485  00D8               	movwf	___fldiv@b+3
  4083  0486  0862               	movf	___fldiv@sign,w
  4084  0487  00D9               	movwf	??___fldiv
  4085  0488  0859               	movf	??___fldiv,w
  4086  0489  04D8               	iorwf	___fldiv@b+3,f
  4087  048A  2B23               	goto	l1573
  4088  048B                     l550:
  4089  048B  0008               	return
  4090  048C                     __end_of___fldiv:
  4091                           
  4092                           	psect	text15
  4093  07CD                     __ptext15:	
  4094 ;; *************** function _ISR *****************
  4095 ;; Defined at:
  4096 ;;		line 91 in file "main.c"
  4097 ;; Parameters:    Size  Location     Type
  4098 ;;		None
  4099 ;; Auto vars:     Size  Location     Type
  4100 ;;		None
  4101 ;; Return value:  Size  Location     Type
  4102 ;;                  1    wreg      void 
  4103 ;; Registers used:
  4104 ;;		wreg, status,2, status,0
  4105 ;; Tracked objects:
  4106 ;;		On entry : 0/0
  4107 ;;		On exit  : 0/0
  4108 ;;		Unchanged: 0/0
  4109 ;; Data sizes:     COMMON   BANK0   BANK1   BANK3   BANK2
  4110 ;;      Params:         0       0       0       0       0
  4111 ;;      Locals:         0       0       0       0       0
  4112 ;;      Temps:          3       0       0       0       0
  4113 ;;      Totals:         3       0       0       0       0
  4114 ;;Total ram usage:        3 bytes
  4115 ;; Hardware stack levels used: 1
  4116 ;; This function calls:
  4117 ;;		Nothing
  4118 ;; This function is called by:
  4119 ;;		Interrupt level 1
  4120 ;; This function uses a non-reentrant model
  4121 ;;
  4122                           
  4123                           
  4124                           ;psect for function _ISR
  4125  07CD                     _ISR:
  4126  07CD                     i1l1857:
  4127                           
  4128                           ;main.c: 93:     if(RCIF){
  4129  07CD  1283               	bcf	3,5	;RP0=0, select bank0
  4130  07CE  1303               	bcf	3,6	;RP1=0, select bank0
  4131  07CF  1E8C               	btfss	12,5	;volatile
  4132  07D0  2FD2               	goto	u241_21
  4133  07D1  2FD3               	goto	u241_20
  4134  07D2                     u241_21:
  4135  07D2  2FDD               	goto	i1l1865
  4136  07D3                     u241_20:
  4137  07D3                     i1l1859:
  4138                           
  4139                           ;main.c: 94:         receivedData = RCREG;
  4140  07D3  081A               	movf	26,w	;volatile
  4141  07D4  00F0               	movwf	??_ISR
  4142  07D5  0870               	movf	??_ISR,w
  4143  07D6  00FA               	movwf	_receivedData
  4144  07D7                     i1l1861:
  4145                           
  4146                           ;main.c: 95:         flags |= 1<<0;
  4147  07D7  1683               	bsf	3,5	;RP0=1, select bank1
  4148  07D8  1303               	bcf	3,6	;RP1=0, select bank1
  4149  07D9  1425               	bsf	_flags^(0+128),0
  4150  07DA                     i1l1863:
  4151                           
  4152                           ;main.c: 96:         RCIF = 0;
  4153  07DA  1283               	bcf	3,5	;RP0=0, select bank0
  4154  07DB  1303               	bcf	3,6	;RP1=0, select bank0
  4155  07DC  128C               	bcf	12,5	;volatile
  4156  07DD                     i1l1865:
  4157  07DD                     i1l77:	
  4158                           ;main.c: 98:     if(TXIF){
  4159                           ;main.c: 99:     }
  4160                           
  4161                           
  4162                           ;main.c: 100:     if(INTCON & 0x04)
  4163  07DD  1D0B               	btfss	11,2	;volatile
  4164  07DE  2FE0               	goto	u242_21
  4165  07DF  2FE1               	goto	u242_20
  4166  07E0                     u242_21:
  4167  07E0  2FF1               	goto	i1l79
  4168  07E1                     u242_20:
  4169  07E1                     i1l1867:
  4170                           
  4171                           ;main.c: 101:     {;main.c: 102:         postscaler++;
  4172  07E1  3001               	movlw	1
  4173  07E2  1683               	bsf	3,5	;RP0=1, select bank1
  4174  07E3  1303               	bcf	3,6	;RP1=0, select bank1
  4175  07E4  07A3               	addwf	_postscaler^(0+128),f
  4176  07E5  1803               	skipnc
  4177  07E6  0AA4               	incf	(_postscaler+1)^(0+128),f
  4178  07E7  3000               	movlw	0
  4179  07E8  07A4               	addwf	(_postscaler+1)^(0+128),f
  4180  07E9                     i1l1869:
  4181                           
  4182                           ;main.c: 103:         INTCON &= ~0x04;
  4183  07E9  30FB               	movlw	251
  4184  07EA  00F0               	movwf	??_ISR
  4185  07EB  0870               	movf	??_ISR,w
  4186  07EC  058B               	andwf	11,f	;volatile
  4187  07ED                     i1l1871:
  4188                           
  4189                           ;main.c: 104:         TMR0 = 178;
  4190  07ED  30B2               	movlw	178
  4191  07EE  1283               	bcf	3,5	;RP0=0, select bank0
  4192  07EF  1303               	bcf	3,6	;RP1=0, select bank0
  4193  07F0  0081               	movwf	1	;volatile
  4194  07F1                     i1l79:
  4195  07F1  0872               	movf	??_ISR+2,w
  4196  07F2  008A               	movwf	10
  4197  07F3  0E71               	swapf	??_ISR+1,w
  4198  07F4  0083               	movwf	3
  4199  07F5  0EFE               	swapf	btemp,f
  4200  07F6  0E7E               	swapf	btemp,w
  4201  07F7  0009               	retfie
  4202  07F8                     __end_of_ISR:
  4203  007E                     btemp	set	126	;btemp
  4204  007E                     wtemp0	set	126
  4205                           
  4206                           	psect	intentry
  4207  0004                     __pintentry:	
  4208                           ;incstack = 0
  4209                           ; Regs used in _ISR: [wreg+status,2+status,0]
  4210                           
  4211  0004                     interrupt_function:
  4212  007E                     saved_w	set	btemp
  4213  0004  00FE               	movwf	btemp
  4214  0005  0E03               	swapf	3,w
  4215  0006  00F1               	movwf	??_ISR+1
  4216  0007  080A               	movf	10,w
  4217  0008  00F2               	movwf	??_ISR+2
  4218  0009  120A  118A  2FCD   	ljmp	_ISR
  4219                           
  4220                           	psect	config
  4221                           
  4222                           ;Config register CONFIG @ 0x2007
  4223                           ;	Oscillator Selection bits
  4224                           ;	FOSC = HS, HS oscillator
  4225                           ;	Watchdog Timer Enable bit
  4226                           ;	WDTE = OFF, WDT disabled
  4227                           ;	Power-up Timer Enable bit
  4228                           ;	PWRTE = ON, PWRT enabled
  4229                           ;	Brown-out Reset Enable bit
  4230                           ;	BOREN = ON, BOR enabled
  4231                           ;	Low-Voltage (Single-Supply) In-Circuit Serial Programming Enable bit
  4232                           ;	LVP = ON, RB3/PGM pin has PGM function; low-voltage programming enabled
  4233                           ;	Data EEPROM Memory Code Protection bit
  4234                           ;	CPD = OFF, Data EEPROM code protection off
  4235                           ;	Flash Program Memory Write Enable bits
  4236                           ;	WRT = OFF, Write protection off; all program memory may be written to by EECON control
  4237                           ;	In-Circuit Debugger Mode bit
  4238                           ;	DEBUG = 0x1, unprogrammed default
  4239                           ;	Flash Program Memory Code Protection bit
  4240                           ;	CP = OFF, Code protection off
  4241  2007                     	org	8199
  4242  2007  3FF2               	dw	16370

Data Sizes:
    Strings     0
    Constant    0
    Data        0
    BSS         20
    Persistent  0
    Stack       0

Auto Spaces:
    Space          Size  Autos    Used
    COMMON           14      8      11
    BANK0            80     80      80
    BANK1            80     12      29
    BANK3            96      0       0
    BANK2            96      0       0

Pointer List with Targets:

    UART_TxBoolDataPacket@dataPacket	PTR unsigned char  size(1) Largest target is 4
		 -> boolDataPacketTx(BANK1[4]), 

    UART_TxTempHumDataPacket@dataPacket	PTR unsigned char  size(1) Largest target is 7
		 -> tempHumDataPacketTx(BANK1[7]), 


Critical Paths under _main in COMMON

    _main->_UART_Init
    _UART_TxBoolDataPacket->_UART_TxChar
    _UART_Init->___aldiv
    _UART_TxTempHumDataPacket->_UART_TxChar
    ___fltol->___fladd
    ___flsub->___fladd

Critical Paths under _ISR in COMMON

    None.

Critical Paths under _main in BANK0

    _main->_PrepareTempHumDataPacket
    _UART_Init->___aldiv
    _HandleRequest->_PrepareTempHumDataPacket
    _PrepareTempHumDataPacket->___fldiv
    ___xxtofl->___fltol
    ___fltol->___fladd
    ___flsub->___xxtofl
    ___fldiv->___flsub

Critical Paths under _ISR in BANK0

    None.

Critical Paths under _main in BANK1

    _main->_PrepareTempHumDataPacket
    _HandleRequest->_PrepareTempHumDataPacket

Critical Paths under _ISR in BANK1

    None.

Critical Paths under _main in BANK3

    None.

Critical Paths under _ISR in BANK3

    None.

Critical Paths under _main in BANK2

    None.

Critical Paths under _ISR in BANK2

    None.

Call Graph Tables:

 ---------------------------------------------------------------------------------
 (Depth) Function   	        Calls       Base Space   Used Autos Params    Refs
 ---------------------------------------------------------------------------------
 (0) _main                                                 1     1      0   14762
                                             79 BANK0      1     1      0
                      _HandleRequest
                               _Init
              _PrepareBoolDataPacket
           _PrepareTempHumDataPacket
                          _UART_Init
              _UART_TxBoolDataPacket
           _UART_TxTempHumDataPacket
 ---------------------------------------------------------------------------------
 (1) _UART_TxBoolDataPacket                                2     2      0     110
                                              4 COMMON     2     2      0
                        _UART_TxChar
 ---------------------------------------------------------------------------------
 (1) _UART_Init                                            8     4      4     746
                                              4 COMMON     4     4      0
                                             14 BANK0      4     0      4
                            ___aldiv
 ---------------------------------------------------------------------------------
 (2) ___aldiv                                             15     7      8     625
                                              3 COMMON     1     1      0
                                              0 BANK0     14     6      8
 ---------------------------------------------------------------------------------
 (1) _PrepareBoolDataPacket                                3     2      1     196
                                              3 COMMON     3     2      1
 ---------------------------------------------------------------------------------
 (1) _Init                                                 1     1      0       0
                                              3 COMMON     1     1      0
 ---------------------------------------------------------------------------------
 (1) _HandleRequest                                        0     0      0    6855
           _PrepareTempHumDataPacket
           _UART_TxTempHumDataPacket
 ---------------------------------------------------------------------------------
 (1) _UART_TxTempHumDataPacket                             2     2      0     110
                                              4 COMMON     2     2      0
                        _UART_TxChar
 ---------------------------------------------------------------------------------
 (2) _UART_TxChar                                          1     1      0      22
                                              3 COMMON     1     1      0
 ---------------------------------------------------------------------------------
 (1) _PrepareTempHumDataPacket                            16     8      8    6745
                                             75 BANK0      4     4      0
                                              0 BANK1     12     4      8
                            ___fldiv
                            ___flsub
                            ___fltol
                           ___xxtofl
 ---------------------------------------------------------------------------------
 (2) ___xxtofl                                            14    10      4     474
                                             27 BANK0     14    10      4
                            ___fltol (ARG)
 ---------------------------------------------------------------------------------
 (2) ___fltol                                             11     7      4     685
                                             16 BANK0     11     7      4
                            ___fladd (ARG)
 ---------------------------------------------------------------------------------
 (2) ___flsub                                              8     0      8    3547
                                             41 BANK0      8     0      8
                            ___fladd
                            ___fltol (ARG)
                           ___xxtofl (ARG)
 ---------------------------------------------------------------------------------
 (3) ___fladd                                             20    12      8    3122
                                              3 COMMON     4     4      0
                                              0 BANK0     16     8      8
 ---------------------------------------------------------------------------------
 (2) ___fldiv                                             26    18      8    1425
                                             49 BANK0     26    18      8
                            ___flsub (ARG)
                            ___fltol (ARG)
                           ___xxtofl (ARG)
 ---------------------------------------------------------------------------------
 Estimated maximum stack depth 3
 ---------------------------------------------------------------------------------
 (Depth) Function   	        Calls       Base Space   Used Autos Params    Refs
 ---------------------------------------------------------------------------------
 (5) _ISR                                                  3     3      0       0
                                              0 COMMON     3     3      0
 ---------------------------------------------------------------------------------
 Estimated maximum stack depth 5
 ---------------------------------------------------------------------------------

 Call Graph Graphs:

 _main (ROOT)
   _HandleRequest
     _PrepareTempHumDataPacket
       ___fldiv
         ___flsub (ARG)
           ___fladd
           ___fltol (ARG)
             ___fladd (ARG)
           ___xxtofl (ARG)
             ___fltol (ARG)
         ___fltol (ARG)
         ___xxtofl (ARG)
       ___flsub
       ___fltol
       ___xxtofl
     _UART_TxTempHumDataPacket
       _UART_TxChar
   _Init
   _PrepareBoolDataPacket
   _PrepareTempHumDataPacket
   _UART_Init
     ___aldiv
   _UART_TxBoolDataPacket
     _UART_TxChar
   _UART_TxTempHumDataPacket

 _ISR (ROOT)

 Address spaces:
Name               Size   Autos  Total    Cost      Usage
BITCOMMON            E      0       0       0        0.0%
EEDATA             100      0       0       0        0.0%
NULL                 0      0       0       0        0.0%
CODE                 0      0       0       0        0.0%
COMMON               E      8       B       1       78.6%
BITSFR0              0      0       0       1        0.0%
SFR0                 0      0       0       1        0.0%
BITSFR1              0      0       0       2        0.0%
SFR1                 0      0       0       2        0.0%
STACK                0      0       0       2        0.0%
ABS                  0      0      78       3        0.0%
BITBANK0            50      0       0       4        0.0%
BITSFR3              0      0       0       4        0.0%
SFR3                 0      0       0       4        0.0%
BANK0               50     50      50       5      100.0%
BITSFR2              0      0       0       5        0.0%
SFR2                 0      0       0       5        0.0%
BITBANK1            50      0       0       6        0.0%
BANK1               50      C      1D       7       36.2%
BITBANK3            60      0       0       8        0.0%
BANK3               60      0       0       9        0.0%
BITBANK2            60      0       0      10        0.0%
BANK2               60      0       0      11        0.0%
DATA                 0      0      78      12        0.0%


Microchip Technology PIC Macro Assembler V2.32 build 20210201212658 
Symbol Table                                                                                   Wed Jun 22 12:24:16 2022

                      ___fldiv@aexp 006A                        ___fldiv@bexp 0069  
                                 _i 0078                        ___fldiv@sign 0062  
                                l82 0E4E                                  l91 0E58  
                                l85 07CC                                  l88 0E50  
                                l96 0E85                                  fsr 0004  
                               l101 0EA0                                 l111 0EED  
                               l104 0632                                 l107 0E6A  
                               l264 0703                                 l513 01FC  
                               l505 02AE                                 l274 078B  
                               l523 0242                                 l517 0220  
                               l550 048B                                 l534 02A2  
                               l526 0280                                 l535 02AE  
                               l392 0F54                                 l632 0657  
                               l385 0F69                                 l570 046F  
                               l538 0EC4                                 l634 06EE  
                               l395 0F69                                 l572 047F  
                               l564 03FD                                 l548 030B  
                               l492 0082                                 l645 06B8  
                               l646 06C4                                 l638 069C  
                               l496 012B                                 l498 0100  
                               _ISR 07CD              ?_UART_TxBoolDataPacket 0070  
                               fsr0 0004                                 indf 0000  
                              ?_ISR 0070                        ___fltol@exp1 003A  
                              l2001 01DA                                l2003 01DF  
                              l2021 0227                                l2013 0212  
                              l2005 01EE                                l2101 0726  
                              l2031 0235                                l2023 0229  
                              l2015 021B                                l2007 0204  
                              l2111 0755                                l2103 0729  
                              l2041 024C                                l2033 0239  
                              l2025 022E                                l2017 021F  
                              l2009 0209                                l2121 0778  
                              l2113 0763                                l2105 0736  
                              l2051 028A                                l2043 025A  
                              l2035 023F                                l2019 0224  
                              l2027 0230                                l2123 0783  
                              l2115 0764                                l2107 073A  
                              l2131 07C3                                l2061 029E  
                              l2053 0292                                l2045 025E  
                              l2029 0234                                l1501 0F24  
                              l2117 076D                                l2109 0743  
                              l2133 07C7                                l2063 02A9  
                              l2055 0297                                l2047 027C  
                              l2039 0247                                l1503 0F28  
                              l1511 0F42                                l2143 0ECD  
                              l2119 0773                                l2135 07CB  
                              l2127 078C                                l2151 0F7E  
                              l1601 0382                                l2065 02AD  
                              l2057 0298                                l2049 0285  
                              l1521 0F5E                                l2081 055E  
                              l2073 048C                                l2145 0ED2  
                              l2137 0EC5                                l2129 0796  
                              l2161 0FB6                                l2153 0F81  
                              l1603 038B                                l1611 03B0  
                              l1531 02B6                                l2059 029C  
                              l2067 0EA1                                l2083 0581  
                              l2075 0492                                l2147 0EE7  
                              l2091 06F6                                l2171 0FDE  
                              l2163 0FBC                                l2155 0F8C  
                              l1621 03CD                                l1613 03B6  
                              l1605 039D                                l1541 02CB  
                              l1533 02BC                                l2069 0EA5  
                              l1517 0F49                                l1509 0F30  
                              l1701 06BC                                l2085 062A  
                              l2077 04B5                                l2093 0707  
                              l2181 0FFA                                l2173 0FE3  
                              l2165 0FC8                                l2157 0F92  
                              l2149 0F6A                                l1631 03E2  
                              l1623 03CE                                l1615 03BE  
                              l1607 039E                                l1551 02E3  
                              l1543 02D3                                l1535 02C0  
                              l1519 0F59                                l1711 06E6  
                              l1703 06C6                                l2079 053B  
                              l2095 0712                                l2087 06EF  
                              l2175 0FE9                                l2167 0FD0  
                              l2159 0F9F                                l1641 0407  
                              l1633 03E6                                l1625 03D7  
                              l1617 03C0                                l1609 03AC  
                              l1561 02F8                                l1553 02E9  
                              l1545 02D4                                l1537 02C1  
                              l1529 02AF                                l1705 06DC  
                              l2097 0716                                l2089 06F2  
                              l1801 0E88                                l2177 0FEA  
                              l2169 0FDA                                l1651 0445  
                              l1643 0415                                l1635 03FA  
                              l1619 03C9                                l1627 03DD  
                              l1571 031F                                l1563 0300  
                              l1555 02ED                                l1539 02C6  
                              l1547 02D6                                l1707 06E1  
                              l1483 0E50                                l1731 0E6D  
                              l2099 071E                                l2179 0FEF  
                              l1661 0475                                l1653 0453  
                              l1645 0419                                l1629 03E1  
                              l1573 0323                                l1565 0301  
                              l1557 02EE                                l1549 02DE  
                              l1901 0060                                l1493 0F04  
                              l1709 06E5                                l1485 0E56  
                              l1805 0E8F                                l1663 0479  
                              l1655 0462                                l1647 0432  
                              l1639 0402                                l1591 0364  
                              l1583 033A                                l1559 02F3  
                              l1567 0303                                l1911 0077  
                              l1903 0064                                l1495 0F19  
                              l1487 0EEE                                l1671 0636  
                              l1735 0E74                                l1807 0E9B  
                              l1665 047B                                l1657 0466  
                              l1649 0438                                l1593 0366  
                              l1585 034C                                l1569 0313  
                              l1577 032C                                l1921 0090  
                              l1913 0078                                l1905 0065  
                              l1497 0F1A                                l1489 0EFB  
                              l1673 063B                                l1737 0E80  
                              l1729 0E6C                                l1659 046E  
                              l1595 036B                                l1587 0354  
                              l1579 0331                                l1931 00A4  
                              l1923 0094                                l1907 006A  
                              l1915 007A                                l1499 0F22  
                              l1691 0685                                l1683 0668  
                              l1675 063F                                l1597 037D  
                              l1589 035C                                l1941 00B8  
                              l1933 00A8                                l1925 0098  
                              l1917 0088                                l1909 006F  
                              l1693 0693                                l1685 066D  
                              l1677 064F                                l1781 0E46  
                              l1599 0381                                l1943 00BC  
                              l1935 00AC                                l1927 009C  
                              l1919 008C                                l1951 00CC  
                              l1695 06A3                                l1687 067A  
                              l1679 065F                                l1783 0E4A  
                              l1961 0111                                l1953 00CD  
                              l1945 00C0                                l1937 00B0  
                              l1929 00A0                                l1881 0031  
                              l1873 001F                                l1697 06AE  
                              l1689 0681                                l1971 012F  
                              l1963 0117                                l1955 00E4  
                              l1947 00C4                                l1939 00B4  
                              l1883 0036                                l1891 0046  
                              l1875 0026                                l1699 06B2  
                              l1795 0E5A                                l1981 015C  
                              l1973 0134                                l1965 0118  
                              l1957 0104                                l1949 00C8  
                              l1893 004E                                l1885 003B  
                              l1877 002C                                l1797 0E5E  
                              l1991 0170                                l1983 0160  
                              l1967 0121                                l1959 010F  
                              l1895 0053                                l1887 0043  
                              l1879 0030                                l1799 0E87  
                              l1993 0179                                l1985 0169  
                              l1977 013F                                l1969 0125  
                              l1897 0059                                l1889 0044  
                              l1987 016B                                l1979 0158  
                              l1995 017E                                l1899 005A  
                              l1997 0196                                l1989 016F  
                              l1999 01D4                                u2000 03FA  
                              u2001 03F9                                u2010 0401  
                              u2011 0400                                u2020 0407  
                              u2100 065F                                u2021 0406  
                              u2101 065E                                u2030 0419  
                              u2031 0418                                u2040 0428  
                              u2200 06E1                                u2120 0680  
                              u3000 0ECC                                u2201 06E0  
                              u2121 067F                                u3001 0ECB  
                              u2050 0445                                u2210 06E5  
                              u3010 0ED2                                u2051 0444  
                              u2211 06E4                                u2115 0672  
                              u3011 0ED1                                u2060 0462  
                              u2140 06A2                                u2220 0E73  
                              u3020 0FC8                                u2061 0461  
                              u2045 0423                                u2141 06A1  
                              u2221 0E72                                u3021 0FC7  
                              u2070 0479                                u3030 0FE3  
                              u2071 0478                                u2055 0441  
                              u2135 0694                                u3031 0FE2  
                              u2160 06B2                                u2080 063B  
                              u3040 0FE9                                u2065 045E  
                              u2161 06B1                                u2081 063A  
                              u3041 0FE8                                u2170 06B8  
                              u2090 063F                                u3050 0FFA  
                              u2171 06B7                                u2155 06A7  
                              u2091 063E                                u3051 0FF9  
                              u2500 0088                                u1700 0F12  
                              u2180 06BC                                u2340 0E8E  
                              u2501 0087                                u2181 06BB  
                              u2341 0E8D                                u2510 008C  
                              u2430 0030                                u1710 0F28  
                              u2190 06D1                                u2511 008B  
                              u2431 002F                                u1711 0F27  
                              u1800 02C6                                u2600 0134  
                              u2520 00E4                                u2440 0036  
                              u1720 0F2F                                u1801 02C5  
                              u2601 0133                                u2521 00E3  
                              u2441 0035                                u1721 0F2E  
                              u1705 0F0D                                u1810 02CB  
                              u2530 00EF                                u2450 003B  
                              u1811 02CA                                u2611 014A  
                              u2531 00ED                                u2451 003A  
                              u2195 06CC                                u1900 0381  
                              u1820 02ED                                u2700 0204  
                              u2620 015C                                u2612 0151  
                              u2540 00F0                                u2460 0059  
                              u1740 0F41                                u1901 0380  
                              u1821 02EC                                u2701 0203  
                              u2621 015B                                u2613 0158  
                              u2525 00E0                                u2461 0058  
                              u1741 0F40                                u1830 02F3  
                              u2710 0209                                u2630 0160  
                              u2550 0104                                u2470 0064  
                              u1750 0F48                                u1831 02F2  
                              u2711 0208                                u2631 015F  
                              u2551 0103                                u2471 0063  
                              u1751 0F47                                u1735 0F31  
                              _PIE1 008C                                u1920 039D  
                              u1840 02F8                                u2800 024C  
                              u2640 016F                                u2560 0117  
                              u2480 006A                                u1680 0E56  
                              u1921 039C                                u1841 02F7  
                              u2801 024B                                u2641 016E  
                              u2561 0116                                u2481 0069  
                              u1681 0E55                                u1930 03B6  
                              u1850 0313                                u2810 025E  
                              u2730 021F                                u2490 006F  
                              u1770 0F59                                u1690 0EFB  
                              u1931 03B5                                u1915 0384  
                              u1851 0312                                u2811 025D  
                              u2731 021E                                u2491 006E  
                              u1771 0F58                                u1691 0EFA  
                              u1940 03BE                                u1860 0331  
                              u2820 026D                                u2740 0224  
                              u2660 0196                                u2580 012B  
                              u1780 0F5E                                u2900 0707  
                              u1941 03BD                                u1925 0399  
                              u1861 0330                                u2741 0223  
                              u2725 0214                                u2661 0195  
                              u2581 012A                                u1781 0F5D  
                              u1765 0F4B                                u2901 0706  
                              u1870 036B                                u1790 02C0  
                              u2830 027C                                u2750 022E  
                              u2590 012F                                u2910 0726  
                              u1871 036A                                u1791 02BF  
                              u2831 027B                                u2751 022D  
                              u2671 01AD                                u2663 0192  
                              u2655 0172                                u2591 012E  
                              u2575 011A                                u2911 0725  
                              u1960 03CD                                u2840 0285  
                              u2760 0234                                u2680 01C1  
                              u2672 01AE                                u1961 03CC  
                              u2841 0284                                u2825 0268  
                              u2761 0233                                u2681 01C2  
                              u2673 01B3                                u2850 028A  
                              u2770 0239                                u2690 01DF  
                              u2682 01C7                                u2674 01B4  
                              u2930 073A                                u1955 03C2  
                              u2851 0289                                u2771 0238  
                              u2691 01DE                                u2683 01C8  
                              u2675 01B9                                u2931 0739  
                              u1980 03E1                                u2860 0297  
                              u2780 023F                                u2676 01BA  
                              u1981 03E0                                u1885 036D  
                              u2861 0296                                u2781 023E  
                              u2925 072B                                u1990 03E6  
                              u2870 029C                                u2790 0246  
                              u2950 0755                                u1991 03E5  
                              u1975 03D0                                u1895 0376  
                              u2871 029B                                u2791 0245  
                              u2951 0754                                u2880 02AD  
                              u2881 02AC                                u2945 073C  
                              u2970 0773                                u2890 06F6  
                              u2971 0772                                u2955 0751  
                              u2891 06F5                                u2980 0778  
                              _RCIF 0065                                u2981 0777  
                              u2965 0765                                u2990 07A4  
                              u2995 079F                                i1l77 07DD  
                              i1l79 07F1                                _TMR0 0001  
                              _TXIF 0064                                _Init 0E46  
                              _main 0F6A                                btemp 007E  
                              start 000C    __end_of_PrepareTempHumDataPacket 0633  
                   ___fldiv@new_exp 0063                               ??_ISR 0070  
               _tempHumDataPacketTx 00A6                               ?_Init 0070  
                     ___fltol@sign1 0039                     __end_of___aldiv 078C  
                   __end_of___fladd 02AF                               ?_main 0070  
                   __end_of___fldiv 048C                     __end_of___flsub 0EC5  
                   __end_of___fltol 0F6A                               _RCREG 001A  
                             _RCSTA 0018                               _SPBRG 0099  
                             _PORTD 0008                               _TRISC 0087  
                             _TRISD 0088                               _TXREG 0019  
                             _TXSTA 0098                  __size_of_UART_Init 0041  
                             _flags 00A5                               pclath 000A  
                             status 0003                               wtemp0 007E  
                  _boolDataPacketTx 00AD               __end_of_HandleRequest 0EEE  
                   __initialization 000F                        __end_of_Init 0E4F  
                      __end_of_main 1000                              ??_Init 0073  
                            ??_main 006F          ??_UART_TxTempHumDataPacket 0074  
                            i1l1861 07D7                              i1l1871 07ED  
                            i1l1863 07DA                              i1l1865 07DD  
                            i1l1857 07CD                              i1l1867 07E1  
                            i1l1859 07D3                              i1l1869 07E9  
                            u241_20 07D3                              _INTCON 000B  
                            u241_21 07D2                              u242_20 07E1  
                            u242_21 07E0               _PrepareBoolDataPacket 0E59  
                  __end_of___xxtofl 06EF        PrepareTempHumDataPacket@temp 00B1  
                      ?_UART_TxChar 0070     UART_TxBoolDataPacket@dataPacket 0075  
                 __end_of_UART_Init 07CD                           ??___aldiv 0073  
                         ??___fladd 0028                           ??___fldiv 0059  
                         ??___flsub 0077                           ??___fltol 0034  
          _PrepareTempHumDataPacket 048C                              saved_w 007E  
                      _dataPacketRx 00A0                        ___xxtofl@arg 0045  
                      ___xxtofl@exp 0044                        ___xxtofl@val 003B  
           __end_of__initialization 001B          PrepareBoolDataPacket@state 0073  
                        ___fltol@f1 0030                      __pcstackCOMMON 0070  
           ??_UART_TxBoolDataPacket 0074         PrepareTempHumDataPacket@hum 00B5  
            ?_PrepareBoolDataPacket 0073                          __pbssBANK1 00A0  
                        __pmaintext 0F6A                          __pintentry 0004  
                         ?___xxtofl 003B                __size_of_UART_TxChar 000A  
                           ___aldiv 06EF                             ___fladd 001F  
                           ___fldiv 02AF                             ___flsub 0EA1  
                           ___fltol 0EEE                             __ptext1 0E86  
                           __ptext2 078C                             __ptext3 06EF  
                           __ptext4 0E59                             __ptext5 0E46  
                           __ptext6 0EC5                             __ptext7 0E6B  
                           __ptext8 0E4F                             __ptext9 048C  
                      __size_of_ISR 002B                          ??___xxtofl 003F  
                  ___aldiv@dividend 0024                             clrloop0 07F9  
              end_of_initialization 001B          ??_PrepareTempHumDataPacket 006B  
                  ___aldiv@quotient 002A                           _UART_Init 078C  
                       ___fladd@grs 0076                       ___xxtofl@sign 0043  
                       ___fldiv@grs 0065                         ___fldiv@rem 005E  
            __size_of_HandleRequest 0029                          _postscaler 00A3  
 __size_of_UART_TxTempHumDataPacket 001B           ?_UART_TxTempHumDataPacket 0070  
                        ?_UART_Init 002E      __size_of_UART_TxBoolDataPacket 001B  
     __end_of_UART_TxBoolDataPacket 0EA1                 start_initialization 000F  
           ??_PrepareBoolDataPacket 0074                         __end_of_ISR 07F8  
                     _HandleRequest 0EC5                           ___fladd@a 0024  
                         ___fladd@b 0020                           ___fldiv@a 0051  
                         ___fldiv@b 0055           PrepareBoolDataPacket@type 0075  
                       __pbssCOMMON 0078                           ___flsub@a 0049  
                         ___flsub@b 004D                           ___latbits 0002  
                     __pcstackBANK0 0020                       __pcstackBANK1 00B1  
                 __size_of___xxtofl 00BC                      ?_HandleRequest 0070  
                          ?___aldiv 0020                            ?___fladd 0020  
                          ?___fldiv 0051                            ?___flsub 0049  
                          ?___fltol 0030                         ??_UART_Init 0074  
                     UART_TxChar@ch 0073                        _receivedData 007A  
                   ___aldiv@divisor 0020                   interrupt_function 0004  
                   ___aldiv@counter 0028                           clear_ram0 07F8  
                     ??_UART_TxChar 0073                   UART_Init@baudRate 002E  
  __end_of_UART_TxTempHumDataPacket 0E86  UART_TxTempHumDataPacket@dataPacket 0075  
                   ??_HandleRequest 0077                    __size_of___aldiv 009D  
                  __size_of___fladd 0290                    __size_of___fldiv 01DD  
               __end_of_UART_TxChar 0E59                    __size_of___flsub 0024  
                  __size_of___fltol 007C   __size_of_PrepareTempHumDataPacket 01A7  
         ?_PrepareTempHumDataPacket 00B1        _PrepareTempHumDataPacket$711 00B9  
                          ___xxtofl 0633                            __ptext10 0633  
                          __ptext11 0EEE                            __ptext12 0EA1  
                          __ptext13 001F      __size_of_PrepareBoolDataPacket 0012  
                          __ptext14 02AF                            __ptext15 07CD  
     __end_of_PrepareBoolDataPacket 0E6B                       __size_of_Init 0009  
                       _partCounter 0079                       __size_of_main 0096  
             _UART_TxBoolDataPacket 0E86                            intlevel1 0000  
          _UART_TxTempHumDataPacket 0E6B                         _UART_TxChar 0E4F  
                        _OPTION_REG 0081                        ___aldiv@sign 0029  
                     ___fladd@signs 0073                        ___fladd@aexp 0074  
                      ___fladd@bexp 0075  
