

Microchip MPLAB XC8 Assembler V2.32 build 20210201212658 
                                                                                               Fri Jul 08 14:30:59 2022

Microchip MPLAB XC8 C Compiler v2.32 (Free license) build 20210201212658 Og1 
     1                           	processor	16F877A
     2                           	pagewidth 120
     3                           	opt	flic
     4                           	psect	idataBANK1,global,class=CODE,delta=2,noexec
     5                           	psect	idataBANK3,global,class=CODE,delta=2,noexec
     6                           	psect	strings,global,class=STRING,delta=2,noexec
     7                           	psect	cinit,global,class=CODE,merge=1,delta=2
     8                           	psect	bssCOMMON,global,class=COMMON,space=1,delta=1,noexec
     9                           	psect	bssBANK1,global,class=BANK1,space=1,delta=1,noexec
    10                           	psect	dataBANK1,global,class=BANK1,space=1,delta=1,noexec
    11                           	psect	bssBANK3,global,class=BANK3,space=1,delta=1,noexec
    12                           	psect	dataBANK3,global,class=BANK3,space=1,delta=1,noexec
    13                           	psect	inittext,global,class=CODE,delta=2
    14                           	psect	clrtext,global,class=CODE,delta=2
    15                           	psect	cstackBANK3,global,class=BANK3,space=1,delta=1,noexec
    16                           	psect	cstackBANK1,global,class=BANK1,space=1,delta=1,noexec
    17                           	psect	cstackCOMMON,global,class=COMMON,space=1,delta=1,noexec
    18                           	psect	cstackBANK0,global,class=BANK0,space=1,delta=1,noexec
    19                           	psect	maintext,global,class=CODE,split=1,delta=2
    20                           	psect	text1,local,class=CODE,merge=1,delta=2
    21                           	psect	text2,local,class=CODE,merge=1,delta=2
    22                           	psect	text3,local,class=CODE,merge=1,delta=2,group=1
    23                           	psect	text4,local,class=CODE,merge=1,delta=2
    24                           	psect	text5,local,class=CODE,merge=1,delta=2
    25                           	psect	text6,local,class=CODE,merge=1,delta=2
    26                           	psect	text7,local,class=CODE,merge=1,delta=2
    27                           	psect	text8,local,class=CODE,merge=1,delta=2
    28                           	psect	text9,local,class=CODE,merge=1,delta=2
    29                           	psect	text10,local,class=CODE,merge=1,delta=2
    30                           	psect	text11,local,class=CODE,merge=1,delta=2
    31                           	psect	text12,local,class=CODE,merge=1,delta=2
    32                           	psect	text13,local,class=CODE,merge=1,delta=2
    33                           	psect	text14,local,class=CODE,merge=1,delta=2
    34                           	psect	text15,local,class=CODE,merge=1,delta=2,group=1
    35                           	psect	text16,local,class=CODE,merge=1,delta=2,group=1
    36                           	psect	text17,local,class=CODE,merge=1,delta=2
    37                           	psect	text18,local,class=CODE,merge=1,delta=2
    38                           	psect	text19,local,class=CODE,merge=1,delta=2,group=1
    39                           	psect	text20,local,class=CODE,merge=1,delta=2
    40                           	psect	text21,local,class=CODE,merge=1,delta=2
    41                           	psect	text22,local,class=CODE,merge=1,delta=2,group=1
    42                           	psect	text23,local,class=CODE,merge=1,delta=2,group=1
    43                           	psect	text24,local,class=CODE,merge=1,delta=2,group=1
    44                           	psect	text25,local,class=CODE,merge=1,delta=2,group=1
    45                           	psect	text26,local,class=CODE,merge=1,delta=2,group=1
    46                           	psect	text27,local,class=CODE,merge=1,delta=2
    47                           	psect	text28,local,class=CODE,merge=1,delta=2
    48                           	psect	text29,local,class=CODE,merge=1,delta=2
    49                           	psect	text30,local,class=CODE,merge=1,delta=2
    50                           	psect	text31,local,class=CODE,merge=1,delta=2
    51                           	psect	text32,local,class=CODE,merge=1,delta=2
    52                           	psect	text33,local,class=CODE,merge=1,delta=2
    53                           	psect	text34,local,class=CODE,merge=1,delta=2
    54                           	psect	text35,local,class=CODE,merge=1,delta=2
    55                           	psect	text36,local,class=CODE,merge=1,delta=2
    56                           	psect	text37,local,class=CODE,merge=1,delta=2
    57                           	psect	text38,local,class=CODE,merge=1,delta=2,group=1
    58                           	psect	text39,local,class=CODE,merge=1,delta=2
    59                           	psect	text40,local,class=CODE,merge=1,delta=2
    60                           	psect	text41,local,class=CODE,merge=1,delta=2
    61                           	psect	intentry,global,class=CODE,delta=2
    62                           	psect	config,global,abs,ovrld,class=CONFIG,space=4,delta=2,noexec
    63                           	dabs	1,0x7E,2
    64  0000                     
    65                           ; Version 2.20
    66                           ; Generated 12/02/2020 GMT
    67                           ; 
    68                           ; Copyright © 2020, Microchip Technology Inc. and its subsidiaries ("Microchip")
    69                           ; All rights reserved.
    70                           ; 
    71                           ; This software is developed by Microchip Technology Inc. and its subsidiaries ("Microch
      +                          ip").
    72                           ; 
    73                           ; Redistribution and use in source and binary forms, with or without modification, are
    74                           ; permitted provided that the following conditions are met:
    75                           ; 
    76                           ;     1. Redistributions of source code must retain the above copyright notice, this lis
      +                          t of
    77                           ;        conditions and the following disclaimer.
    78                           ; 
    79                           ;     2. Redistributions in binary form must reproduce the above copyright notice, this 
      +                          list
    80                           ;        of conditions and the following disclaimer in the documentation and/or other
    81                           ;        materials provided with the distribution.
    82                           ; 
    83                           ;     3. Microchip's name may not be used to endorse or promote products derived from th
      +                          is
    84                           ;        software without specific prior written permission.
    85                           ; 
    86                           ; THIS SOFTWARE IS PROVIDED BY MICROCHIP "AS IS" AND ANY EXPRESS OR IMPLIED WARRANTIES,
    87                           ; INCLUDING, BUT NOT LIMITED TO, THE IMPLIED WARRANTIES OF MERCHANTABILITY AND FITNESS F
      +                          OR
    88                           ; PURPOSE ARE DISCLAIMED.  IN NO EVENT SHALL MICROCHIP BE LIABLE FOR ANY DIRECT, INDIREC
      +                          T,
    89                           ; INCIDENTAL, SPECIAL, EXEMPLARY, OR CONSEQUENTIAL DAMAGES (INCLUDING BUT NOT LIMITED TO
    90                           ; PROCUREMENT OF SUBSTITUTE GOODS OR SERVICES; LOSS OF USE, DATA OR PROFITS; OR BUSINESS
    91                           ; INTERRUPTION) HOWSOEVER CAUSED AND ON ANY THEORY OF LIABILITY, WHETHER IN CONTRACT, ST
      +                          RICT
    92                           ; LIABILITY, OR TORT (INCLUDING NEGLIGENCE OR OTHERWISE) ARISING IN ANY WAY OUT OF THE U
      +                          SE OF
    93                           ; THIS SOFTWARE, EVEN IF ADVISED OF THE POSSIBILITY OF SUCH DAMAGE.
    94                           ; 
    95                           ; 
    96                           ; Code-generator required, PIC16F877A Definitions
    97                           ; 
    98                           ; SFR Addresses
    99  0000                     	;# 
   100  0001                     	;# 
   101  0002                     	;# 
   102  0003                     	;# 
   103  0004                     	;# 
   104  0005                     	;# 
   105  0006                     	;# 
   106  0007                     	;# 
   107  0008                     	;# 
   108  0009                     	;# 
   109  000A                     	;# 
   110  000B                     	;# 
   111  000C                     	;# 
   112  000D                     	;# 
   113  000E                     	;# 
   114  000E                     	;# 
   115  000F                     	;# 
   116  0010                     	;# 
   117  0011                     	;# 
   118  0012                     	;# 
   119  0013                     	;# 
   120  0014                     	;# 
   121  0015                     	;# 
   122  0015                     	;# 
   123  0016                     	;# 
   124  0017                     	;# 
   125  0018                     	;# 
   126  0019                     	;# 
   127  001A                     	;# 
   128  001B                     	;# 
   129  001B                     	;# 
   130  001C                     	;# 
   131  001D                     	;# 
   132  001E                     	;# 
   133  001F                     	;# 
   134  0081                     	;# 
   135  0085                     	;# 
   136  0086                     	;# 
   137  0087                     	;# 
   138  0088                     	;# 
   139  0089                     	;# 
   140  008C                     	;# 
   141  008D                     	;# 
   142  008E                     	;# 
   143  0091                     	;# 
   144  0092                     	;# 
   145  0093                     	;# 
   146  0094                     	;# 
   147  0098                     	;# 
   148  0099                     	;# 
   149  009C                     	;# 
   150  009D                     	;# 
   151  009E                     	;# 
   152  009F                     	;# 
   153  010C                     	;# 
   154  010D                     	;# 
   155  010E                     	;# 
   156  010F                     	;# 
   157  018C                     	;# 
   158  018D                     	;# 
   159  0000                     	;# 
   160  0001                     	;# 
   161  0002                     	;# 
   162  0003                     	;# 
   163  0004                     	;# 
   164  0005                     	;# 
   165  0006                     	;# 
   166  0007                     	;# 
   167  0008                     	;# 
   168  0009                     	;# 
   169  000A                     	;# 
   170  000B                     	;# 
   171  000C                     	;# 
   172  000D                     	;# 
   173  000E                     	;# 
   174  000E                     	;# 
   175  000F                     	;# 
   176  0010                     	;# 
   177  0011                     	;# 
   178  0012                     	;# 
   179  0013                     	;# 
   180  0014                     	;# 
   181  0015                     	;# 
   182  0015                     	;# 
   183  0016                     	;# 
   184  0017                     	;# 
   185  0018                     	;# 
   186  0019                     	;# 
   187  001A                     	;# 
   188  001B                     	;# 
   189  001B                     	;# 
   190  001C                     	;# 
   191  001D                     	;# 
   192  001E                     	;# 
   193  001F                     	;# 
   194  0081                     	;# 
   195  0085                     	;# 
   196  0086                     	;# 
   197  0087                     	;# 
   198  0088                     	;# 
   199  0089                     	;# 
   200  008C                     	;# 
   201  008D                     	;# 
   202  008E                     	;# 
   203  0091                     	;# 
   204  0092                     	;# 
   205  0093                     	;# 
   206  0094                     	;# 
   207  0098                     	;# 
   208  0099                     	;# 
   209  009C                     	;# 
   210  009D                     	;# 
   211  009E                     	;# 
   212  009F                     	;# 
   213  010C                     	;# 
   214  010D                     	;# 
   215  010E                     	;# 
   216  010F                     	;# 
   217  018C                     	;# 
   218  018D                     	;# 
   219                           
   220                           	psect	idataBANK1
   221  0800                     __pidataBANK1:
   222                           
   223                           ;initializer for _setTemp
   224  0800  3400               	retlw	0
   225  0801  3400               	retlw	0
   226  0802  34B0               	retlw	176
   227  0803  3441               	retlw	65
   228                           
   229                           ;initializer for _txSuccess
   230  0804  3401               	retlw	1
   231                           
   232                           ;initializer for _minSetTemp
   233  0805  340C               	retlw	12
   234                           
   235                           ;initializer for _keyValue
   236  0806  3463               	retlw	99
   237                           
   238                           	psect	idataBANK3
   239  1A08                     __pidataBANK3:
   240                           
   241                           ;initializer for _displays
   242  1A08  343E               	retlw	low (((STR_4+32)-__stringbase)| (0+32768))
   243  1A09  343F               	retlw	low ((STR_3-__stringbase)| (0+32768))
   244  1A0A  341E               	retlw	low ((STR_4-__stringbase)| (0+32768))
   245  1A0B  345B               	retlw	low ((STR_5-__stringbase)| (0+32768))
   246                           
   247                           ;initializer for _humidity
   248  1A0C  3400               	retlw	0
   249  1A0D  3400               	retlw	0
   250  1A0E  3448               	retlw	72
   251  1A0F  3442               	retlw	66
   252                           
   253                           ;initializer for _temperatureBuffer
   254  1A10  3400               	retlw	0
   255  1A11  3400               	retlw	0
   256  1A12  3400               	retlw	0
   257  1A13  343F               	retlw	63
   258                           
   259                           ;initializer for _startDisplay
   260  1A14  346C               	retlw	low ((STR_1-__stringbase)| (0+32768))
   261                           
   262                           ;initializer for _maxSetTemp
   263  1A15  3423               	retlw	35
   264                           
   265                           	psect	strings
   266  1000                     __pstrings:
   267  1000                     stringtab:
   268  1000                     __stringtab:
   269  1000                     stringcode:	
   270                           ;	String table - string pointers are 1 byte each
   271                           
   272  1000                     stringdir:
   273  1000  3010               	movlw	high stringdir
   274  1001  008A               	movwf	10
   275  1002  0804               	movf	4,w
   276  1003  0A84               	incf	4,f
   277  1004  0782               	addwf	2,f
   278  1005                     __stringbase:
   279  1005  3400               	retlw	0
   280  1006                     __end_of__stringtab:
   281  1006                     _keypad:
   282  1006  3401               	retlw	1
   283  1007  3404               	retlw	4
   284  1008  3407               	retlw	7
   285  1009  342A               	retlw	42
   286  100A  3402               	retlw	2
   287  100B  3405               	retlw	5
   288  100C  3408               	retlw	8
   289  100D  3400               	retlw	0
   290  100E  3403               	retlw	3
   291  100F  3406               	retlw	6
   292  1010  3409               	retlw	9
   293  1011  3423               	retlw	35
   294  1012                     __end_of_keypad:
   295  1012                     _counterClockWise:
   296  1012  3490               	retlw	144
   297  1013  34C0               	retlw	192
   298  1014  3460               	retlw	96
   299  1015  3430               	retlw	48
   300  1016  3490               	retlw	144
   301  1017                     __end_of_counterClockWise:
   302  1017                     _clockWise:
   303  1017  3430               	retlw	48
   304  1018  3460               	retlw	96
   305  1019  34C0               	retlw	192
   306  101A  3490               	retlw	144
   307  101B  3430               	retlw	48
   308  101C                     __end_of_clockWise:
   309  101C                     _rowMask:
   310  101C  3408               	retlw	8
   311  101D  3404               	retlw	4
   312  101E  3402               	retlw	2
   313  101F  3401               	retlw	1
   314  1020                     __end_of_rowMask:
   315  1020                     _colMask:
   316  1020  34FE               	retlw	254
   317  1021  34FD               	retlw	253
   318  1022  34FB               	retlw	251
   319  1023                     __end_of_colMask:
   320  0019                     _TXREG	set	25
   321  0018                     _RCSTA	set	24
   322  001E                     _ADRESH	set	30
   323  0009                     _PORTE	set	9
   324  001F                     _ADCON0	set	31
   325  0008                     _PORTD	set	8
   326  0007                     _PORTC	set	7
   327  0006                     _PORTB	set	6
   328  0001                     _TMR0	set	1
   329  000B                     _INTCON	set	11
   330  001A                     _RCREG	set	26
   331  0064                     _TXIF	set	100
   332  0065                     _RCIF	set	101
   333  008C                     _PIE1	set	140
   334  0098                     _TXSTA	set	152
   335  0087                     _TRISC	set	135
   336  0099                     _SPBRG	set	153
   337  009E                     _ADRESL	set	158
   338  0081                     _OPTION_REG	set	129
   339  0089                     _TRISE	set	137
   340  009F                     _ADCON1	set	159
   341  0085                     _TRISA	set	133
   342  0088                     _TRISD	set	136
   343  0086                     _TRISB	set	134
   344  1023                     STR_4:
   345  1023  3454               	retlw	84	;'T'
   346  1024  3465               	retlw	101	;'e'
   347  1025  346D               	retlw	109	;'m'
   348  1026  3470               	retlw	112	;'p'
   349  1027  3420               	retlw	32	;' '
   350  1028  3420               	retlw	32	;' '
   351  1029  3420               	retlw	32	;' '
   352  102A  3420               	retlw	32	;' '
   353  102B  343A               	retlw	58	;':'
   354  102C  3420               	retlw	32	;' '
   355  102D  3420               	retlw	32	;' '
   356  102E  3420               	retlw	32	;' '
   357  102F  3420               	retlw	32	;' '
   358  1030  3420               	retlw	32	;' '
   359  1031  3420               	retlw	32	;' '
   360  1032  3420               	retlw	32	;' '
   361  1033  3448               	retlw	72	;'H'
   362  1034  3475               	retlw	117	;'u'
   363  1035  346D               	retlw	109	;'m'
   364  1036  3469               	retlw	105	;'i'
   365  1037  3464               	retlw	100	;'d'
   366  1038  3469               	retlw	105	;'i'
   367  1039  3474               	retlw	116	;'t'
   368  103A  3479               	retlw	121	;'y'
   369  103B  343A               	retlw	58	;':'
   370  103C  3420               	retlw	32	;' '
   371  103D  3420               	retlw	32	;' '
   372  103E  3420               	retlw	32	;' '
   373  103F  3420               	retlw	32	;' '
   374  1040  3420               	retlw	32	;' '
   375  1041  3420               	retlw	32	;' '
   376  1042  3425               	retlw	37	;'%'
   377  1043  3400               	retlw	0
   378  1044                     STR_3:
   379  1044  3420               	retlw	32	;' '
   380  1045  3420               	retlw	32	;' '
   381  1046  3457               	retlw	87	;'W'
   382  1047  3465               	retlw	101	;'e'
   383  1048  346C               	retlw	108	;'l'
   384  1049  3463               	retlw	99	;'c'
   385  104A  346F               	retlw	111	;'o'
   386  104B  346D               	retlw	109	;'m'
   387  104C  3465               	retlw	101	;'e'
   388  104D  3420               	retlw	32	;' '
   389  104E  3454               	retlw	84	;'T'
   390  104F  346F               	retlw	111	;'o'
   391  1050  3420               	retlw	32	;' '
   392  1051  3420               	retlw	32	;' '
   393  1052  3420               	retlw	32	;' '
   394  1053  3420               	retlw	32	;' '
   395  1054  3420               	retlw	32	;' '
   396  1055  3420               	retlw	32	;' '
   397  1056  3420               	retlw	32	;' '
   398  1057  3420               	retlw	32	;' '
   399  1058  3443               	retlw	67	;'C'
   400  1059  346F               	retlw	111	;'o'
   401  105A  3461               	retlw	97	;'a'
   402  105B  3463               	retlw	99	;'c'
   403  105C  3468               	retlw	104	;'h'
   404  105D  3420               	retlw	32	;' '
   405  105E  3431               	retlw	49	;'1'
   406  105F  3400               	retlw	0
   407  1060                     STR_5:
   408  1060  3453               	retlw	83	;'S'
   409  1061  3465               	retlw	101	;'e'
   410  1062  3474               	retlw	116	;'t'
   411  1063  3420               	retlw	32	;' '
   412  1064  3454               	retlw	84	;'T'
   413  1065  3465               	retlw	101	;'e'
   414  1066  346D               	retlw	109	;'m'
   415  1067  3470               	retlw	112	;'p'
   416  1068  3465               	retlw	101	;'e'
   417  1069  3472               	retlw	114	;'r'
   418  106A  3461               	retlw	97	;'a'
   419  106B  3474               	retlw	116	;'t'
   420  106C  3475               	retlw	117	;'u'
   421  106D  3472               	retlw	114	;'r'
   422  106E  3465               	retlw	101	;'e'
   423  106F  343A               	retlw	58	;':'
   424  1070  3400               	retlw	0
   425  1071                     STR_1:
   426  1071  3453               	retlw	83	;'S'
   427  1072  3479               	retlw	121	;'y'
   428  1073  3473               	retlw	115	;'s'
   429  1074  3474               	retlw	116	;'t'
   430  1075  3465               	retlw	101	;'e'
   431  1076  346D               	retlw	109	;'m'
   432  1077  3420               	retlw	32	;' '
   433  1078  3453               	retlw	83	;'S'
   434  1079  3474               	retlw	116	;'t'
   435  107A  3461               	retlw	97	;'a'
   436  107B  3472               	retlw	114	;'r'
   437  107C  3474               	retlw	116	;'t'
   438  107D  3465               	retlw	101	;'e'
   439  107E  3464               	retlw	100	;'d'
   440  107F  3400               	retlw	0
   441  1043                     
   442                           	psect	cinit
   443  000F                     start_initialization:	
   444                           ; #config settings
   445                           
   446  000F                     __initialization:
   447                           
   448                           ; Initialize objects allocated to BANK3
   449  000F  1783               	bsf	3,7	;select IRP bank2
   450  0010  30CC               	movlw	low (__pdataBANK3+14)
   451  0011  00FD               	movwf	btemp+-1
   452  0012  301A               	movlw	high __pidataBANK3
   453  0013  00FE               	movwf	btemp
   454  0014  3008               	movlw	low __pidataBANK3
   455  0015  00FF               	movwf	btemp+1
   456  0016  30BE               	movlw	low __pdataBANK3
   457  0017  0084               	movwf	4
   458  0018  160A  158A  222A  120A  118A  	fcall	init_ram0
   459                           
   460                           ; Initialize objects allocated to BANK1
   461  001D  1383               	bcf	3,7	;select IRP bank0
   462  001E  30EB               	movlw	low (__pdataBANK1+7)
   463  001F  00FD               	movwf	btemp+-1
   464  0020  3008               	movlw	high __pidataBANK1
   465  0021  00FE               	movwf	btemp
   466  0022  3000               	movlw	low __pidataBANK1
   467  0023  00FF               	movwf	btemp+1
   468  0024  30E4               	movlw	low __pdataBANK1
   469  0025  0084               	movwf	4
   470  0026  160A  158A  222A  120A  118A  	fcall	init_ram0
   471                           
   472                           ; Clear objects allocated to BANK3
   473  002B  1783               	bsf	3,7	;select IRP bank2
   474  002C  3090               	movlw	low __pbssBANK3
   475  002D  0084               	movwf	4
   476  002E  30BE               	movlw	low (__pbssBANK3+46)
   477  002F  160A  158A  2200  120A  118A  	fcall	clear_ram0
   478                           
   479                           ; Clear objects allocated to BANK1
   480  0034  1383               	bcf	3,7	;select IRP bank0
   481  0035  30D2               	movlw	low __pbssBANK1
   482  0036  0084               	movwf	4
   483  0037  30E4               	movlw	low (__pbssBANK1+18)
   484  0038  160A  158A  2200  120A  118A  	fcall	clear_ram0
   485                           
   486                           ; Clear objects allocated to COMMON
   487  003D  01F8               	clrf	__pbssCOMMON& (0+127)
   488  003E  01F9               	clrf	(__pbssCOMMON+1)& (0+127)
   489  003F  01FA               	clrf	(__pbssCOMMON+2)& (0+127)
   490  0040                     end_of_initialization:	
   491                           ;End of C runtime variable initialization code
   492                           
   493  0040                     __end_of__initialization:
   494  0040  0183               	clrf	3
   495  0041  160A  118A  28A5   	ljmp	_main	;jump to C main() function
   496                           
   497                           	psect	bssCOMMON
   498  0078                     __pbssCOMMON:
   499  0078                     _i:
   500  0078                     	ds	1
   501  0079                     _currentDisplay:
   502  0079                     	ds	1
   503  007A                     _txAttempts:
   504  007A                     	ds	1
   505                           
   506                           	psect	bssBANK1
   507  00D2                     __pbssBANK1:
   508  00D2                     _partCounter:
   509  00D2                     	ds	1
   510  00D3                     _transmittingData:
   511  00D3                     	ds	1
   512  00D4                     _txReceivedData:
   513  00D4                     	ds	1
   514  00D5                     _receivedData:
   515  00D5                     	ds	1
   516  00D6                     _alarmOn:
   517  00D6                     	ds	1
   518  00D7                     _oldDoorOpen:
   519  00D7                     	ds	1
   520  00D8                     _doorOpen:
   521  00D8                     	ds	1
   522  00D9                     _oldRB3:
   523  00D9                     	ds	1
   524  00DA                     _oldRB2:
   525  00DA                     	ds	1
   526  00DB                     _oldDisplay:
   527  00DB                     	ds	1
   528  00DC                     _dutyCounter:
   529  00DC                     	ds	1
   530  00DD                     _keypadReading:
   531  00DD                     	ds	1
   532  00DE                     _dutyCooler:
   533  00DE                     	ds	1
   534  00DF                     _dutyHeater:
   535  00DF                     	ds	1
   536  00E0                     _rowScan:
   537  00E0                     	ds	1
   538  00E1                     _colScan:
   539  00E1                     	ds	1
   540  00E2                     _flags:
   541  00E2                     	ds	1
   542  00E3                     _flagsSerial:
   543  00E3                     	ds	1
   544                           
   545                           	psect	dataBANK1
   546  00E4                     __pdataBANK1:
   547  00E4                     _setTemp:
   548  00E4                     	ds	4
   549  00E8                     _txSuccess:
   550  00E8                     	ds	1
   551  00E9                     _minSetTemp:
   552  00E9                     	ds	1
   553  00EA                     _keyValue:
   554  00EA                     	ds	1
   555                           
   556                           	psect	bssBANK3
   557  0190                     __pbssBANK3:
   558  0190                     _dataPacketRx:
   559  0190                     	ds	5
   560  0195                     _temperature:
   561  0195                     	ds	4
   562  0199                     _addressTransmissionCounter:
   563  0199                     	ds	2
   564  019B                     _retransmissionCounter:
   565  019B                     	ds	2
   566  019D                     _transmissionCounter:
   567  019D                     	ds	2
   568  019F                     _postScalerHum:
   569  019F                     	ds	2
   570  01A1                     _postScalerTemp:
   571  01A1                     	ds	2
   572  01A3                     _ADCReading:
   573  01A3                     	ds	2
   574  01A5                     _counterAntibouncingDoor:
   575  01A5                     	ds	2
   576  01A7                     _counterAntibouncingAlarm:
   577  01A7                     	ds	2
   578  01A9                     _counterAntibouncing:
   579  01A9                     	ds	2
   580  01AB                     _tempHumDataPacketTx:
   581  01AB                     	ds	8
   582  01B3                     _desiredTempPacketTx:
   583  01B3                     	ds	6
   584  01B9                     _boolDataPacketTx:
   585  01B9                     	ds	5
   586                           
   587                           	psect	dataBANK3
   588  01BE                     __pdataBANK3:
   589  01BE                     _displays:
   590  01BE                     	ds	4
   591  01C2                     _humidity:
   592  01C2                     	ds	4
   593  01C6                     _temperatureBuffer:
   594  01C6                     	ds	4
   595  01CA                     _startDisplay:
   596  01CA                     	ds	1
   597  01CB                     _maxSetTemp:
   598  01CB                     	ds	1
   599                           
   600                           	psect	inittext
   601  1A26                     init_fetch0:	
   602                           ;	Called with low address in FSR and high address in W
   603                           
   604  1A26  087E               	movf	btemp,w
   605  1A27  008A               	movwf	10
   606  1A28  087F               	movf	btemp+1,w
   607  1A29  0082               	movwf	2
   608  1A2A                     init_ram0:	
   609                           ;Called with:
   610                           ;	high address of idata address in btemp 
   611                           ;	low address of idata address in btemp+1 
   612                           ;	low address of data in FSR
   613                           ;	high address + 1 of data in btemp-1
   614                           
   615  1A2A  160A  158A  2226  160A  158A  	fcall	init_fetch0
   616  1A2F  0080               	movwf	0
   617  1A30  0A84               	incf	4,f
   618  1A31  0804               	movf	4,w
   619  1A32  067D               	xorwf	btemp+-1,w
   620  1A33  1903               	btfsc	3,2
   621  1A34  3400               	retlw	0
   622  1A35  0AFF               	incf	btemp+1,f
   623  1A36  1903               	btfsc	3,2
   624  1A37  0AFE               	incf	btemp,f
   625  1A38  2A2A               	goto	init_ram0
   626                           
   627                           	psect	clrtext
   628  1A00                     clear_ram0:	
   629                           ;	Called with FSR containing the base address, and
   630                           ;	W with the last address+1
   631                           
   632  1A00  0064               	clrwdt	;clear the watchdog before getting into this loop
   633  1A01                     clrloop0:
   634  1A01  0180               	clrf	0	;clear RAM location pointed to by FSR
   635  1A02  0A84               	incf	4,f	;increment pointer
   636  1A03  0604               	xorwf	4,w	;XOR with final address
   637  1A04  1903               	btfsc	3,2	;have we reached the end yet?
   638  1A05  3400               	retlw	0	;all done for this memory range, return
   639  1A06  0604               	xorwf	4,w	;XOR again to restore value
   640  1A07  2A01               	goto	clrloop0	;do the next byte
   641                           
   642                           	psect	cstackBANK3
   643  01CC                     __pcstackBANK3:
   644  01CC                     ??_HandleRequest:
   645                           
   646                           ; 1 bytes @ 0x0
   647  01CC                     	ds	8
   648                           
   649                           	psect	cstackBANK1
   650  00A0                     __pcstackBANK1:
   651  00A0                     ?___flge:
   652  00A0                     ?___flsub:	
   653                           ; 1 bit 
   654                           
   655  00A0                     ___flge@ff1:	
   656                           ; 4 bytes @ 0x0
   657                           
   658  00A0                     ___flsub@a:	
   659                           ; 4 bytes @ 0x0
   660                           
   661                           
   662                           ; 4 bytes @ 0x0
   663  00A0                     	ds	4
   664  00A4                     ___flge@ff2:
   665  00A4                     ___flsub@b:	
   666                           ; 4 bytes @ 0x4
   667                           
   668                           
   669                           ; 4 bytes @ 0x4
   670  00A4                     	ds	4
   671  00A8                     ?___fldiv:
   672  00A8                     ___fldiv@a:	
   673                           ; 4 bytes @ 0x8
   674                           
   675                           
   676                           ; 4 bytes @ 0x8
   677  00A8                     	ds	4
   678  00AC                     ___fldiv@b:
   679                           
   680                           ; 4 bytes @ 0xC
   681  00AC                     	ds	4
   682  00B0                     ___fldiv@rem:
   683                           
   684                           ; 4 bytes @ 0x10
   685  00B0                     	ds	4
   686  00B4                     ___fldiv@sign:
   687                           
   688                           ; 1 bytes @ 0x14
   689  00B4                     	ds	1
   690  00B5                     ___fldiv@new_exp:
   691                           
   692                           ; 2 bytes @ 0x15
   693  00B5                     	ds	2
   694  00B7                     ___fldiv@grs:
   695                           
   696                           ; 4 bytes @ 0x17
   697  00B7                     	ds	4
   698  00BB                     ___fldiv@bexp:
   699                           
   700                           ; 1 bytes @ 0x1B
   701  00BB                     	ds	1
   702  00BC                     ___fldiv@aexp:
   703                           
   704                           ; 1 bytes @ 0x1C
   705  00BC                     	ds	1
   706  00BD                     ?_PrepareDesiredTempDataPacket:
   707  00BD                     ?_UpdateLCDViewWithNumber:	
   708                           ; 1 bytes @ 0x1D
   709                           
   710  00BD                     ?_PrepareTempHumDataPacket:	
   711                           ; 1 bytes @ 0x1D
   712                           
   713  00BD                     UpdateLCDViewWithNumber@number:	
   714                           ; 1 bytes @ 0x1D
   715                           
   716  00BD                     PrepareTempHumDataPacket@temp:	
   717                           ; 4 bytes @ 0x1D
   718                           
   719  00BD                     PrepareDesiredTempDataPacket@temp:	
   720                           ; 4 bytes @ 0x1D
   721                           
   722                           
   723                           ; 4 bytes @ 0x1D
   724  00BD                     	ds	4
   725  00C1                     ??_PrepareDesiredTempDataPacket:
   726  00C1                     ??_UpdateLCDViewWithNumber:	
   727                           ; 1 bytes @ 0x21
   728                           
   729  00C1                     PrepareTempHumDataPacket@hum:	
   730                           ; 1 bytes @ 0x21
   731                           
   732                           
   733                           ; 4 bytes @ 0x21
   734  00C1                     	ds	4
   735  00C5                     ??_PrepareTempHumDataPacket:
   736  00C5                     UpdateLCDViewWithNumber@position:	
   737                           ; 1 bytes @ 0x25
   738                           
   739  00C5                     _PrepareDesiredTempDataPacket$909:	
   740                           ; 1 bytes @ 0x25
   741                           
   742                           
   743                           ; 4 bytes @ 0x25
   744  00C5                     	ds	1
   745  00C6                     UpdateLCDViewWithNumber@decimal:
   746                           
   747                           ; 1 bytes @ 0x26
   748  00C6                     	ds	1
   749  00C7                     UpdateLCDViewWithNumber@unit:
   750                           
   751                           ; 1 bytes @ 0x27
   752  00C7                     	ds	1
   753  00C8                     UpdateLCDViewWithNumber@hundreds:
   754                           
   755                           ; 1 bytes @ 0x28
   756  00C8                     	ds	1
   757  00C9                     UpdateLCDViewWithNumber@tens:
   758  00C9                     PrepareTempHumDataPacket@decimal:	
   759                           ; 1 bytes @ 0x29
   760                           
   761                           
   762                           ; 4 bytes @ 0x29
   763  00C9                     	ds	1
   764  00CA                     ??_ManageDisplays:
   765                           
   766                           ; 1 bytes @ 0x2A
   767  00CA                     	ds	3
   768  00CD                     _PrepareTempHumDataPacket$908:
   769                           
   770                           ; 4 bytes @ 0x2D
   771  00CD                     	ds	4
   772  00D1                     ??_main:
   773                           
   774                           ; 1 bytes @ 0x31
   775  00D1                     	ds	1
   776                           
   777                           	psect	cstackCOMMON
   778  0070                     __pcstackCOMMON:
   779  0070                     ?_InitPic:
   780  0070                     ?_InitLCD:	
   781                           ; 1 bytes @ 0x0
   782                           
   783  0070                     ?_InitADC:	
   784                           ; 1 bytes @ 0x0
   785                           
   786  0070                     ?_SendLCDString:	
   787                           ; 1 bytes @ 0x0
   788                           
   789  0070                     ?_CheckKeypad:	
   790                           ; 1 bytes @ 0x0
   791                           
   792  0070                     ?_ReadHumidity:	
   793                           ; 1 bytes @ 0x0
   794                           
   795  0070                     ?_ReadTemperature:	
   796                           ; 1 bytes @ 0x0
   797                           
   798  0070                     ?_CheckAlarmButton:	
   799                           ; 1 bytes @ 0x0
   800                           
   801  0070                     ?_CheckOpenDoorButton:	
   802                           ; 1 bytes @ 0x0
   803                           
   804  0070                     ?_ManageTemperature:	
   805                           ; 1 bytes @ 0x0
   806                           
   807  0070                     ?_ManageHeater:	
   808                           ; 1 bytes @ 0x0
   809                           
   810  0070                     ?_ManageCooler:	
   811                           ; 1 bytes @ 0x0
   812                           
   813  0070                     ?_ManageReceivedPacket:	
   814                           ; 1 bytes @ 0x0
   815                           
   816  0070                     ?_UpdateTempHumDisplay:	
   817                           ; 1 bytes @ 0x0
   818                           
   819  0070                     ?_ManageDisplays:	
   820                           ; 1 bytes @ 0x0
   821                           
   822  0070                     ?_UART_TxBoolDataPacket:	
   823                           ; 1 bytes @ 0x0
   824                           
   825  0070                     ?_UART_TxDesiredTempDataPacket:	
   826                           ; 1 bytes @ 0x0
   827                           
   828  0070                     ?_ISR:	
   829                           ; 1 bytes @ 0x0
   830                           
   831  0070                     ??_ISR:	
   832                           ; 1 bytes @ 0x0
   833                           
   834  0070                     ?_DriveMotor:	
   835                           ; 1 bytes @ 0x0
   836                           
   837  0070                     ?_HandleKeypadReading:	
   838                           ; 1 bytes @ 0x0
   839                           
   840  0070                     ?_UART_TxChar:	
   841                           ; 1 bytes @ 0x0
   842                           
   843  0070                     ?_UART_TxTempHumDataPacket:	
   844                           ; 1 bytes @ 0x0
   845                           
   846  0070                     ?_HandleRequest:	
   847                           ; 1 bytes @ 0x0
   848                           
   849  0070                     ?_main:	
   850                           ; 1 bytes @ 0x0
   851                           
   852                           
   853                           ; 2 bytes @ 0x0
   854  0070                     	ds	3
   855  0073                     ??_InitPic:
   856  0073                     ??_InitADC:	
   857                           ; 1 bytes @ 0x3
   858                           
   859  0073                     ??_CheckKeypad:	
   860                           ; 1 bytes @ 0x3
   861                           
   862  0073                     ??_ManageHeater:	
   863                           ; 1 bytes @ 0x3
   864                           
   865  0073                     ??_ManageCooler:	
   866                           ; 1 bytes @ 0x3
   867                           
   868  0073                     ?_PrepareBoolDataPacket:	
   869                           ; 1 bytes @ 0x3
   870                           
   871  0073                     ?_SendLCD:	
   872                           ; 1 bytes @ 0x3
   873                           
   874  0073                     ??_DriveMotor:	
   875                           ; 1 bytes @ 0x3
   876                           
   877  0073                     ??_UART_TxChar:	
   878                           ; 1 bytes @ 0x3
   879                           
   880  0073                     ??___aldiv:	
   881                           ; 1 bytes @ 0x3
   882                           
   883  0073                     ?__Umul8_16:	
   884                           ; 1 bytes @ 0x3
   885                           
   886  0073                     ?_ReadADC:	
   887                           ; 2 bytes @ 0x3
   888                           
   889  0073                     ?___wmul:	
   890                           ; 2 bytes @ 0x3
   891                           
   892  0073                     SendLCD@type:	
   893                           ; 2 bytes @ 0x3
   894                           
   895  0073                     PrepareBoolDataPacket@state:	
   896                           ; 1 bytes @ 0x3
   897                           
   898  0073                     __Umul8_16@multiplicand:	
   899                           ; 1 bytes @ 0x3
   900                           
   901  0073                     ___wmul@multiplier:	
   902                           ; 1 bytes @ 0x3
   903                           
   904                           
   905                           ; 2 bytes @ 0x3
   906  0073                     	ds	1
   907  0074                     ??_UART_Init:
   908  0074                     ??_PrepareBoolDataPacket:	
   909                           ; 1 bytes @ 0x4
   910                           
   911  0074                     ??_SendLCD:	
   912                           ; 1 bytes @ 0x4
   913                           
   914  0074                     ManageCooler@duty:	
   915                           ; 1 bytes @ 0x4
   916                           
   917  0074                     ManageHeater@duty:	
   918                           ; 1 bytes @ 0x4
   919                           
   920  0074                     UART_TxChar@ch:	
   921                           ; 1 bytes @ 0x4
   922                           
   923                           
   924                           ; 1 bytes @ 0x4
   925  0074                     	ds	1
   926  0075                     ??__Umul8_16:
   927  0075                     ??_ReadADC:	
   928                           ; 1 bytes @ 0x5
   929                           
   930  0075                     DriveMotor@direction:	
   931                           ; 1 bytes @ 0x5
   932                           
   933  0075                     PrepareBoolDataPacket@type:	
   934                           ; 1 bytes @ 0x5
   935                           
   936  0075                     ___wmul@multiplicand:	
   937                           ; 1 bytes @ 0x5
   938                           
   939                           
   940                           ; 2 bytes @ 0x5
   941  0075                     	ds	1
   942  0076                     DriveMotor@i:
   943  0076                     SendLCD@data:	
   944                           ; 1 bytes @ 0x6
   945                           
   946                           
   947                           ; 1 bytes @ 0x6
   948  0076                     	ds	1
   949  0077                     ??_SendLCDString:
   950  0077                     ??___wmul:	
   951                           ; 1 bytes @ 0x7
   952                           
   953  0077                     DriveMotor@i_229:	
   954                           ; 1 bytes @ 0x7
   955                           
   956  0077                     ReadADC@channel:	
   957                           ; 1 bytes @ 0x7
   958                           
   959  0077                     UART_TxTempHumDataPacket@dataPacket:	
   960                           ; 1 bytes @ 0x7
   961                           
   962  0077                     UART_TxDesiredTempDataPacket@dataPacket:	
   963                           ; 1 bytes @ 0x7
   964                           
   965  0077                     UART_TxBoolDataPacket@dataPacket:	
   966                           ; 1 bytes @ 0x7
   967                           
   968                           
   969                           ; 1 bytes @ 0x7
   970  0077                     	ds	1
   971  0078                     ??_ReadHumidity:
   972  0078                     ??_ReadTemperature:	
   973                           ; 1 bytes @ 0x8
   974                           
   975  0078                     ??_UpdateTempHumDisplay:	
   976                           ; 1 bytes @ 0x8
   977                           
   978  0078                     ??___flsub:	
   979                           ; 1 bytes @ 0x8
   980                           
   981                           
   982                           	psect	cstackBANK0
   983  0020                     __pcstackBANK0:	
   984                           ; 1 bytes @ 0x8
   985                           
   986  0020                     ??_InitLCD:
   987  0020                     ?_MotorRotation:	
   988                           ; 1 bytes @ 0x0
   989                           
   990  0020                     ?___aldiv:	
   991                           ; 1 bytes @ 0x0
   992                           
   993  0020                     MotorRotation@amplitude:	
   994                           ; 4 bytes @ 0x0
   995                           
   996  0020                     SendLCDString@string:	
   997                           ; 1 bytes @ 0x0
   998                           
   999  0020                     ___wmul@product:	
  1000                           ; 1 bytes @ 0x0
  1001                           
  1002  0020                     __Umul8_16@product:	
  1003                           ; 2 bytes @ 0x0
  1004                           
  1005  0020                     ___aldiv@divisor:	
  1006                           ; 2 bytes @ 0x0
  1007                           
  1008                           
  1009                           ; 4 bytes @ 0x0
  1010  0020                     	ds	1
  1011  0021                     ??_MotorRotation:
  1012  0021                     SendLCDString@i:	
  1013                           ; 1 bytes @ 0x1
  1014                           
  1015                           
  1016                           ; 1 bytes @ 0x1
  1017  0021                     	ds	1
  1018  0022                     ??_UART_TxBoolDataPacket:
  1019  0022                     ??_UART_TxDesiredTempDataPacket:	
  1020                           ; 1 bytes @ 0x2
  1021                           
  1022  0022                     ??_UART_TxTempHumDataPacket:	
  1023                           ; 1 bytes @ 0x2
  1024                           
  1025  0022                     ?___xxtofl:	
  1026                           ; 1 bytes @ 0x2
  1027                           
  1028  0022                     MotorRotation@direction:	
  1029                           ; 4 bytes @ 0x2
  1030                           
  1031  0022                     __Umul8_16@word_mpld:	
  1032                           ; 1 bytes @ 0x2
  1033                           
  1034  0022                     ___xxtofl@val:	
  1035                           ; 2 bytes @ 0x2
  1036                           
  1037                           
  1038                           ; 4 bytes @ 0x2
  1039  0022                     	ds	1
  1040  0023                     MotorRotation@i:
  1041                           
  1042                           ; 1 bytes @ 0x3
  1043  0023                     	ds	1
  1044  0024                     ??_CheckAlarmButton:
  1045  0024                     ??_CheckOpenDoorButton:	
  1046                           ; 1 bytes @ 0x4
  1047                           
  1048  0024                     __Umul8_16@multiplier:	
  1049                           ; 1 bytes @ 0x4
  1050                           
  1051  0024                     ___aldiv@dividend:	
  1052                           ; 1 bytes @ 0x4
  1053                           
  1054                           
  1055                           ; 4 bytes @ 0x4
  1056  0024                     	ds	2
  1057  0026                     ??___xxtofl:
  1058                           
  1059                           ; 1 bytes @ 0x6
  1060  0026                     	ds	2
  1061  0028                     ___aldiv@counter:
  1062                           
  1063                           ; 1 bytes @ 0x8
  1064  0028                     	ds	1
  1065  0029                     ___aldiv@sign:
  1066                           
  1067                           ; 1 bytes @ 0x9
  1068  0029                     	ds	1
  1069  002A                     ___xxtofl@sign:
  1070  002A                     ___aldiv@quotient:	
  1071                           ; 1 bytes @ 0xA
  1072                           
  1073                           
  1074                           ; 4 bytes @ 0xA
  1075  002A                     	ds	1
  1076  002B                     ___xxtofl@exp:
  1077                           
  1078                           ; 1 bytes @ 0xB
  1079  002B                     	ds	1
  1080  002C                     ___xxtofl@arg:
  1081                           
  1082                           ; 4 bytes @ 0xC
  1083  002C                     	ds	2
  1084  002E                     ?_UART_Init:
  1085  002E                     UART_Init@baudRate:	
  1086                           ; 1 bytes @ 0xE
  1087                           
  1088                           
  1089                           ; 4 bytes @ 0xE
  1090  002E                     	ds	2
  1091  0030                     ?___flmul:
  1092  0030                     ___flmul@b:	
  1093                           ; 4 bytes @ 0x10
  1094                           
  1095                           
  1096                           ; 4 bytes @ 0x10
  1097  0030                     	ds	4
  1098  0034                     ___flmul@a:
  1099                           
  1100                           ; 4 bytes @ 0x14
  1101  0034                     	ds	4
  1102  0038                     ??___flmul:
  1103                           
  1104                           ; 1 bytes @ 0x18
  1105  0038                     	ds	5
  1106  003D                     ___flmul@sign:
  1107                           
  1108                           ; 1 bytes @ 0x1D
  1109  003D                     	ds	1
  1110  003E                     ___flmul@grs:
  1111                           
  1112                           ; 4 bytes @ 0x1E
  1113  003E                     	ds	4
  1114  0042                     ___flmul@aexp:
  1115                           
  1116                           ; 1 bytes @ 0x22
  1117  0042                     	ds	1
  1118  0043                     ___flmul@bexp:
  1119                           
  1120                           ; 1 bytes @ 0x23
  1121  0043                     	ds	1
  1122  0044                     ___flmul@prod:
  1123                           
  1124                           ; 4 bytes @ 0x24
  1125  0044                     	ds	4
  1126  0048                     ___flmul@temp:
  1127                           
  1128                           ; 2 bytes @ 0x28
  1129  0048                     	ds	2
  1130  004A                     ?___fltol:
  1131  004A                     ___fltol@f1:	
  1132                           ; 4 bytes @ 0x2A
  1133                           
  1134                           
  1135                           ; 4 bytes @ 0x2A
  1136  004A                     	ds	4
  1137  004E                     ??___fltol:
  1138                           
  1139                           ; 1 bytes @ 0x2E
  1140  004E                     	ds	5
  1141  0053                     ___fltol@sign1:
  1142                           
  1143                           ; 1 bytes @ 0x33
  1144  0053                     	ds	1
  1145  0054                     ___fltol@exp1:
  1146                           
  1147                           ; 1 bytes @ 0x34
  1148  0054                     	ds	1
  1149  0055                     ?___fladd:
  1150  0055                     ___fladd@b:	
  1151                           ; 4 bytes @ 0x35
  1152                           
  1153                           
  1154                           ; 4 bytes @ 0x35
  1155  0055                     	ds	4
  1156  0059                     ___fladd@a:
  1157                           
  1158                           ; 4 bytes @ 0x39
  1159  0059                     	ds	4
  1160  005D                     ??___fladd:
  1161                           
  1162                           ; 1 bytes @ 0x3D
  1163  005D                     	ds	8
  1164  0065                     ___fladd@signs:
  1165                           
  1166                           ; 1 bytes @ 0x45
  1167  0065                     	ds	1
  1168  0066                     ___fladd@aexp:
  1169                           
  1170                           ; 1 bytes @ 0x46
  1171  0066                     	ds	1
  1172  0067                     ___fladd@bexp:
  1173                           
  1174                           ; 1 bytes @ 0x47
  1175  0067                     	ds	1
  1176  0068                     ___fladd@grs:
  1177                           
  1178                           ; 1 bytes @ 0x48
  1179  0068                     	ds	1
  1180  0069                     ??___flge:
  1181  0069                     ??___fldiv:	
  1182                           ; 1 bytes @ 0x49
  1183                           
  1184                           
  1185                           ; 1 bytes @ 0x49
  1186  0069                     	ds	4
  1187  006D                     ??_ManageTemperature:
  1188                           
  1189                           ; 1 bytes @ 0x4D
  1190  006D                     	ds	1
  1191  006E                     ??_ManageReceivedPacket:
  1192  006E                     ??_HandleKeypadReading:	
  1193                           ; 1 bytes @ 0x4E
  1194                           
  1195                           
  1196                           ; 1 bytes @ 0x4E
  1197  006E                     	ds	1
  1198  006F                     HandleKeypadReading@value:
  1199                           
  1200                           ; 1 bytes @ 0x4F
  1201  006F                     	ds	1
  1202                           
  1203                           	psect	maintext
  1204  10A5                     __pmaintext:	
  1205 ;;
  1206 ;;Main: autosize = 0, tempsize = 1, incstack = 0, save=0
  1207 ;;
  1208 ;; *************** function _main *****************
  1209 ;; Defined at:
  1210 ;;		line 175 in file "main.c"
  1211 ;; Parameters:    Size  Location     Type
  1212 ;;		None
  1213 ;; Auto vars:     Size  Location     Type
  1214 ;;		None
  1215 ;; Return value:  Size  Location     Type
  1216 ;;                  2  198[None  ] int 
  1217 ;; Registers used:
  1218 ;;		wreg, fsr0l, fsr0h, status,2, status,0, btemp+1, pclath, cstack
  1219 ;; Tracked objects:
  1220 ;;		On entry : B00/0
  1221 ;;		On exit  : 0/0
  1222 ;;		Unchanged: 0/0
  1223 ;; Data sizes:     COMMON   BANK0   BANK1   BANK3   BANK2
  1224 ;;      Params:         0       0       0       0       0
  1225 ;;      Locals:         0       0       0       0       0
  1226 ;;      Temps:          0       0       1       0       0
  1227 ;;      Totals:         0       0       1       0       0
  1228 ;;Total ram usage:        1 bytes
  1229 ;; Hardware stack levels required when called: 6
  1230 ;; This function calls:
  1231 ;;		_CheckAlarmButton
  1232 ;;		_CheckKeypad
  1233 ;;		_CheckOpenDoorButton
  1234 ;;		_InitADC
  1235 ;;		_InitLCD
  1236 ;;		_InitPic
  1237 ;;		_ManageCooler
  1238 ;;		_ManageDisplays
  1239 ;;		_ManageHeater
  1240 ;;		_ManageReceivedPacket
  1241 ;;		_ManageTemperature
  1242 ;;		_ReadHumidity
  1243 ;;		_ReadTemperature
  1244 ;;		_SendLCDString
  1245 ;;		_UART_Init
  1246 ;;		_UpdateTempHumDisplay
  1247 ;; This function is called by:
  1248 ;;		Startup code after reset
  1249 ;; This function uses a non-reentrant model
  1250 ;;
  1251                           
  1252                           
  1253                           ;psect for function _main
  1254  10A5                     _main:
  1255  10A5                     l4401:	
  1256                           ;incstack = 0
  1257                           ; Regs used in _main: [wreg-fsr0h+status,2+status,0+btemp+1+pclath+cstack]
  1258                           
  1259                           
  1260                           ;main.c: 177:     InitPic();
  1261  10A5  160A  158A  2239  160A  118A  	fcall	_InitPic
  1262                           
  1263                           ;main.c: 178:     InitLCD();
  1264  10AA  160A  158A  25EC  160A  118A  	fcall	_InitLCD
  1265                           
  1266                           ;main.c: 179:     InitADC();
  1267  10AF  160A  158A  2216  160A  118A  	fcall	_InitADC
  1268                           
  1269                           ;main.c: 180:     UART_Init(9600);
  1270  10B4  3000               	movlw	0
  1271  10B5  1283               	bcf	3,5	;RP0=0, select bank0
  1272  10B6  1303               	bcf	3,6	;RP1=0, select bank0
  1273  10B7  00B1               	movwf	UART_Init@baudRate+3
  1274  10B8  3000               	movlw	0
  1275  10B9  00B0               	movwf	UART_Init@baudRate+2
  1276  10BA  3025               	movlw	37
  1277  10BB  00AF               	movwf	UART_Init@baudRate+1
  1278  10BC  3080               	movlw	128
  1279  10BD  00AE               	movwf	UART_Init@baudRate
  1280  10BE  160A  158A  23B1  160A  118A  	fcall	_UART_Init
  1281  10C3                     l4403:
  1282                           
  1283                           ;main.c: 181:     SendLCDString(startDisplay);
  1284  10C3  306C               	movlw	(low ((STR_1-__stringbase)| (0+32768)))& (0+255)
  1285  10C4  160A  158A  252A  160A  118A  	fcall	_SendLCDString
  1286  10C9                     l4405:
  1287                           
  1288                           ;main.c: 184:     {;main.c: 185:         keypadReading = CheckKeypad();
  1289  10C9  160A  118A  2121  160A  118A  	fcall	_CheckKeypad
  1290  10CE  1683               	bsf	3,5	;RP0=1, select bank1
  1291  10CF  1303               	bcf	3,6	;RP1=0, select bank1
  1292  10D0  00D1               	movwf	??_main^(0+128)
  1293  10D1  0851               	movf	??_main^(0+128),w
  1294  10D2  00DD               	movwf	_keypadReading^(0+128)
  1295                           
  1296                           ;main.c: 186:         ReadHumidity();
  1297  10D3  160A  118A  21A3  160A  118A  	fcall	_ReadHumidity
  1298                           
  1299                           ;main.c: 187:         ReadTemperature();
  1300  10D8  160A  158A  23F4  160A  118A  	fcall	_ReadTemperature
  1301  10DD                     l4407:
  1302                           
  1303                           ;main.c: 188:         CheckAlarmButton();
  1304  10DD  160A  158A  2718  160A  118A  	fcall	_CheckAlarmButton
  1305  10E2                     l4409:
  1306                           
  1307                           ;main.c: 189:         CheckOpenDoorButton();
  1308  10E2  120A  158A  2007  160A  118A  	fcall	_CheckOpenDoorButton
  1309                           
  1310                           ;main.c: 190:         ManageTemperature();
  1311  10E7  160A  118A  2417  160A  118A  	fcall	_ManageTemperature
  1312  10EC                     l4411:
  1313                           
  1314                           ;main.c: 191:         ManageHeater(dutyHeater);
  1315  10EC  1683               	bsf	3,5	;RP0=1, select bank1
  1316  10ED  1303               	bcf	3,6	;RP1=0, select bank1
  1317  10EE  085F               	movf	_dutyHeater^(0+128),w
  1318  10EF  160A  158A  2261  160A  118A  	fcall	_ManageHeater
  1319  10F4                     l4413:
  1320                           
  1321                           ;main.c: 192:         ManageCooler(dutyCooler);
  1322  10F4  1683               	bsf	3,5	;RP0=1, select bank1
  1323  10F5  1303               	bcf	3,6	;RP1=0, select bank1
  1324  10F6  085E               	movf	_dutyCooler^(0+128),w
  1325  10F7  160A  158A  224D  160A  118A  	fcall	_ManageCooler
  1326  10FC                     l4415:
  1327                           
  1328                           ;main.c: 193:         ManageReceivedPacket();
  1329  10FC  160A  158A  24D7  160A  118A  	fcall	_ManageReceivedPacket
  1330  1101                     l4417:
  1331                           
  1332                           ;main.c: 194:         if(currentDisplay == 2) UpdateTempHumDisplay();
  1333  1101  3002               	movlw	2
  1334  1102  0679               	xorwf	_currentDisplay,w
  1335  1103  1D03               	btfss	3,2
  1336  1104  2906               	goto	u6551
  1337  1105  2907               	goto	u6550
  1338  1106                     u6551:
  1339  1106  290C               	goto	l4421
  1340  1107                     u6550:
  1341  1107                     l4419:
  1342  1107  160A  158A  2374  160A  118A  	fcall	_UpdateTempHumDisplay
  1343  110C                     l4421:
  1344                           
  1345                           ;main.c: 195:         if(flags & 0x01)
  1346  110C  1683               	bsf	3,5	;RP0=1, select bank1
  1347  110D  1303               	bcf	3,6	;RP1=0, select bank1
  1348  110E  1C62               	btfss	_flags^(0+128),0
  1349  110F  2911               	goto	u6561
  1350  1110  2912               	goto	u6560
  1351  1111                     u6561:
  1352  1111  28C9               	goto	l4405
  1353  1112                     u6560:
  1354  1112                     l4423:
  1355                           
  1356                           ;main.c: 196:         {;main.c: 197:             ManageDisplays();
  1357  1112  160A  158A  2338  160A  118A  	fcall	_ManageDisplays
  1358  1117                     l4425:
  1359                           
  1360                           ;main.c: 198:             flags &= ~0x01;
  1361  1117  30FE               	movlw	254
  1362  1118  1683               	bsf	3,5	;RP0=1, select bank1
  1363  1119  1303               	bcf	3,6	;RP1=0, select bank1
  1364  111A  00D1               	movwf	??_main^(0+128)
  1365  111B  0851               	movf	??_main^(0+128),w
  1366  111C  05E2               	andwf	_flags^(0+128),f
  1367  111D  28C9               	goto	l4405
  1368  111E  120A  118A  280C   	ljmp	start
  1369  1121                     __end_of_main:
  1370                           
  1371                           	psect	text1
  1372  1B74                     __ptext1:	
  1373 ;; *************** function _UpdateTempHumDisplay *****************
  1374 ;; Defined at:
  1375 ;;		line 570 in file "main.c"
  1376 ;; Parameters:    Size  Location     Type
  1377 ;;		None
  1378 ;; Auto vars:     Size  Location     Type
  1379 ;;		None
  1380 ;; Return value:  Size  Location     Type
  1381 ;;                  1    wreg      void 
  1382 ;; Registers used:
  1383 ;;		wreg, status,2, status,0, btemp+1, pclath, cstack
  1384 ;; Tracked objects:
  1385 ;;		On entry : 0/0
  1386 ;;		On exit  : 0/0
  1387 ;;		Unchanged: 0/0
  1388 ;; Data sizes:     COMMON   BANK0   BANK1   BANK3   BANK2
  1389 ;;      Params:         0       0       0       0       0
  1390 ;;      Locals:         0       0       0       0       0
  1391 ;;      Temps:          0       0       0       0       0
  1392 ;;      Totals:         0       0       0       0       0
  1393 ;;Total ram usage:        0 bytes
  1394 ;; Hardware stack levels used: 1
  1395 ;; Hardware stack levels required when called: 4
  1396 ;; This function calls:
  1397 ;;		_UpdateLCDViewWithNumber
  1398 ;; This function is called by:
  1399 ;;		_main
  1400 ;; This function uses a non-reentrant model
  1401 ;;
  1402                           
  1403                           
  1404                           ;psect for function _UpdateTempHumDisplay
  1405  1B74                     _UpdateTempHumDisplay:
  1406  1B74                     l4385:	
  1407                           ;incstack = 0
  1408                           ; Regs used in _UpdateTempHumDisplay: [wreg+status,2+status,0+btemp+1+pclath+cstack]
  1409                           
  1410                           
  1411                           ;main.c: 572:         UpdateLCDViewWithNumber(0xCA, humidity);
  1412  1B74  1683               	bsf	3,5	;RP0=1, select bank3
  1413  1B75  1703               	bsf	3,6	;RP1=1, select bank3
  1414  1B76  0845               	movf	(_humidity+3)^(0+384),w
  1415  1B77  1683               	bsf	3,5	;RP0=1, select bank1
  1416  1B78  1303               	bcf	3,6	;RP1=0, select bank1
  1417  1B79  00C0               	movwf	(UpdateLCDViewWithNumber@number+3)^(0+128)
  1418  1B7A  1683               	bsf	3,5	;RP0=1, select bank3
  1419  1B7B  1703               	bsf	3,6	;RP1=1, select bank3
  1420  1B7C  0844               	movf	(_humidity+2)^(0+384),w
  1421  1B7D  1683               	bsf	3,5	;RP0=1, select bank1
  1422  1B7E  1303               	bcf	3,6	;RP1=0, select bank1
  1423  1B7F  00BF               	movwf	(UpdateLCDViewWithNumber@number+2)^(0+128)
  1424  1B80  1683               	bsf	3,5	;RP0=1, select bank3
  1425  1B81  1703               	bsf	3,6	;RP1=1, select bank3
  1426  1B82  0843               	movf	(_humidity+1)^(0+384),w
  1427  1B83  1683               	bsf	3,5	;RP0=1, select bank1
  1428  1B84  1303               	bcf	3,6	;RP1=0, select bank1
  1429  1B85  00BE               	movwf	(UpdateLCDViewWithNumber@number+1)^(0+128)
  1430  1B86  1683               	bsf	3,5	;RP0=1, select bank3
  1431  1B87  1703               	bsf	3,6	;RP1=1, select bank3
  1432  1B88  0842               	movf	_humidity^(0+384),w
  1433  1B89  1683               	bsf	3,5	;RP0=1, select bank1
  1434  1B8A  1303               	bcf	3,6	;RP1=0, select bank1
  1435  1B8B  00BD               	movwf	UpdateLCDViewWithNumber@number^(0+128)
  1436  1B8C  30CA               	movlw	202
  1437  1B8D  120A  158A  22F3  160A  158A  	fcall	_UpdateLCDViewWithNumber
  1438                           
  1439                           ;main.c: 573:         UpdateLCDViewWithNumber(0x8A, temperature);
  1440  1B92  1683               	bsf	3,5	;RP0=1, select bank3
  1441  1B93  1703               	bsf	3,6	;RP1=1, select bank3
  1442  1B94  0818               	movf	(_temperature+3)^(0+384),w
  1443  1B95  1683               	bsf	3,5	;RP0=1, select bank1
  1444  1B96  1303               	bcf	3,6	;RP1=0, select bank1
  1445  1B97  00C0               	movwf	(UpdateLCDViewWithNumber@number+3)^(0+128)
  1446  1B98  1683               	bsf	3,5	;RP0=1, select bank3
  1447  1B99  1703               	bsf	3,6	;RP1=1, select bank3
  1448  1B9A  0817               	movf	(_temperature+2)^(0+384),w
  1449  1B9B  1683               	bsf	3,5	;RP0=1, select bank1
  1450  1B9C  1303               	bcf	3,6	;RP1=0, select bank1
  1451  1B9D  00BF               	movwf	(UpdateLCDViewWithNumber@number+2)^(0+128)
  1452  1B9E  1683               	bsf	3,5	;RP0=1, select bank3
  1453  1B9F  1703               	bsf	3,6	;RP1=1, select bank3
  1454  1BA0  0816               	movf	(_temperature+1)^(0+384),w
  1455  1BA1  1683               	bsf	3,5	;RP0=1, select bank1
  1456  1BA2  1303               	bcf	3,6	;RP1=0, select bank1
  1457  1BA3  00BE               	movwf	(UpdateLCDViewWithNumber@number+1)^(0+128)
  1458  1BA4  1683               	bsf	3,5	;RP0=1, select bank3
  1459  1BA5  1703               	bsf	3,6	;RP1=1, select bank3
  1460  1BA6  0815               	movf	_temperature^(0+384),w
  1461  1BA7  1683               	bsf	3,5	;RP0=1, select bank1
  1462  1BA8  1303               	bcf	3,6	;RP1=0, select bank1
  1463  1BA9  00BD               	movwf	UpdateLCDViewWithNumber@number^(0+128)
  1464  1BAA  308A               	movlw	138
  1465  1BAB  120A  158A  22F3  160A  158A  	fcall	_UpdateLCDViewWithNumber
  1466  1BB0                     l344:
  1467  1BB0  0008               	return
  1468  1BB1                     __end_of_UpdateTempHumDisplay:
  1469                           
  1470                           	psect	text2
  1471  1BB1                     __ptext2:	
  1472 ;; *************** function _UART_Init *****************
  1473 ;; Defined at:
  1474 ;;		line 576 in file "main.c"
  1475 ;; Parameters:    Size  Location     Type
  1476 ;;  baudRate        4   14[BANK0 ] unsigned long 
  1477 ;; Auto vars:     Size  Location     Type
  1478 ;;		None
  1479 ;; Return value:  Size  Location     Type
  1480 ;;                  1    wreg      void 
  1481 ;; Registers used:
  1482 ;;		wreg, status,2, status,0, pclath, cstack
  1483 ;; Tracked objects:
  1484 ;;		On entry : 0/0
  1485 ;;		On exit  : 0/0
  1486 ;;		Unchanged: 0/0
  1487 ;; Data sizes:     COMMON   BANK0   BANK1   BANK3   BANK2
  1488 ;;      Params:         0       4       0       0       0
  1489 ;;      Locals:         0       0       0       0       0
  1490 ;;      Temps:          4       0       0       0       0
  1491 ;;      Totals:         4       4       0       0       0
  1492 ;;Total ram usage:        8 bytes
  1493 ;; Hardware stack levels used: 1
  1494 ;; Hardware stack levels required when called: 2
  1495 ;; This function calls:
  1496 ;;		___aldiv
  1497 ;; This function is called by:
  1498 ;;		_main
  1499 ;; This function uses a non-reentrant model
  1500 ;;
  1501                           
  1502                           
  1503                           ;psect for function _UART_Init
  1504  1BB1                     _UART_Init:
  1505  1BB1                     l4247:	
  1506                           ;incstack = 0
  1507                           ; Regs used in _UART_Init: [wreg+status,2+status,0+pclath+cstack]
  1508                           
  1509                           
  1510                           ;main.c: 576: void UART_Init(unsigned long baudRate);main.c: 577: {;main.c: 578:     SPB
      +                          RG = (char)(8000000/(long)(16UL*baudRate))-1;
  1511  1BB1  1283               	bcf	3,5	;RP0=0, select bank0
  1512  1BB2  1303               	bcf	3,6	;RP1=0, select bank0
  1513  1BB3  082E               	movf	UART_Init@baudRate,w
  1514  1BB4  00F4               	movwf	??_UART_Init
  1515  1BB5  082F               	movf	UART_Init@baudRate+1,w
  1516  1BB6  00F5               	movwf	??_UART_Init+1
  1517  1BB7  0830               	movf	UART_Init@baudRate+2,w
  1518  1BB8  00F6               	movwf	??_UART_Init+2
  1519  1BB9  0831               	movf	UART_Init@baudRate+3,w
  1520  1BBA  00F7               	movwf	??_UART_Init+3
  1521  1BBB  3004               	movlw	4
  1522  1BBC                     u6235:
  1523  1BBC  1003               	clrc
  1524  1BBD  0DF4               	rlf	??_UART_Init,f
  1525  1BBE  0DF5               	rlf	??_UART_Init+1,f
  1526  1BBF  0DF6               	rlf	??_UART_Init+2,f
  1527  1BC0  0DF7               	rlf	??_UART_Init+3,f
  1528  1BC1                     u6230:
  1529  1BC1  3EFF               	addlw	-1
  1530  1BC2  1D03               	skipz
  1531  1BC3  2BBC               	goto	u6235
  1532  1BC4  0877               	movf	??_UART_Init+3,w
  1533  1BC5  00A3               	movwf	___aldiv@divisor+3
  1534  1BC6  0876               	movf	??_UART_Init+2,w
  1535  1BC7  00A2               	movwf	___aldiv@divisor+2
  1536  1BC8  0875               	movf	??_UART_Init+1,w
  1537  1BC9  00A1               	movwf	___aldiv@divisor+1
  1538  1BCA  0874               	movf	??_UART_Init,w
  1539  1BCB  00A0               	movwf	___aldiv@divisor
  1540  1BCC  3000               	movlw	0
  1541  1BCD  00A7               	movwf	___aldiv@dividend+3
  1542  1BCE  307A               	movlw	122
  1543  1BCF  00A6               	movwf	___aldiv@dividend+2
  1544  1BD0  3012               	movlw	18
  1545  1BD1  00A5               	movwf	___aldiv@dividend+1
  1546  1BD2  3000               	movlw	0
  1547  1BD3  00A4               	movwf	___aldiv@dividend
  1548  1BD4  160A  118A  22BE  160A  158A  	fcall	___aldiv
  1549  1BD9  1283               	bcf	3,5	;RP0=0, select bank0
  1550  1BDA  1303               	bcf	3,6	;RP1=0, select bank0
  1551  1BDB  0820               	movf	?___aldiv,w
  1552  1BDC  3EFF               	addlw	255
  1553  1BDD  1683               	bsf	3,5	;RP0=1, select bank1
  1554  1BDE  1303               	bcf	3,6	;RP1=0, select bank1
  1555  1BDF  0099               	movwf	25	;volatile
  1556  1BE0                     l4249:
  1557                           
  1558                           ;main.c: 579:     TRISC=0x80;
  1559  1BE0  3080               	movlw	128
  1560  1BE1  0087               	movwf	7	;volatile
  1561  1BE2                     l4251:
  1562                           
  1563                           ;main.c: 580:     TXSTA=(1<<5);
  1564  1BE2  3020               	movlw	32
  1565  1BE3  0098               	movwf	24	;volatile
  1566  1BE4                     l4253:
  1567                           
  1568                           ;main.c: 581:     RCSTA=(1<<7) | (1<<4);
  1569  1BE4  3090               	movlw	144
  1570  1BE5  1283               	bcf	3,5	;RP0=0, select bank0
  1571  1BE6  1303               	bcf	3,6	;RP1=0, select bank0
  1572  1BE7  0098               	movwf	24	;volatile
  1573  1BE8                     l4255:
  1574                           
  1575                           ;main.c: 582:     INTCON |= 0xC0;
  1576  1BE8  30C0               	movlw	192
  1577  1BE9  00F4               	movwf	??_UART_Init
  1578  1BEA  0874               	movf	??_UART_Init,w
  1579  1BEB  048B               	iorwf	11,f	;volatile
  1580  1BEC                     l4257:
  1581                           
  1582                           ;main.c: 583:     PIE1 |= 0x22;
  1583  1BEC  3022               	movlw	34
  1584  1BED  00F4               	movwf	??_UART_Init
  1585  1BEE  0874               	movf	??_UART_Init,w
  1586  1BEF  1683               	bsf	3,5	;RP0=1, select bank1
  1587  1BF0  1303               	bcf	3,6	;RP1=0, select bank1
  1588  1BF1  048C               	iorwf	12,f	;volatile
  1589  1BF2                     l4259:
  1590                           
  1591                           ;main.c: 585:     flagsSerial = 0;
  1592  1BF2  01E3               	clrf	_flagsSerial^(0+128)
  1593  1BF3                     l347:
  1594  1BF3  0008               	return
  1595  1BF4                     __end_of_UART_Init:
  1596                           
  1597                           	psect	text3
  1598  12BE                     __ptext3:	
  1599 ;; *************** function ___aldiv *****************
  1600 ;; Defined at:
  1601 ;;		line 5 in file "C:\Program Files\Microchip\xc8\v2.32\pic\sources\c90\common\aldiv.c"
  1602 ;; Parameters:    Size  Location     Type
  1603 ;;  divisor         4    0[BANK0 ] long 
  1604 ;;  dividend        4    4[BANK0 ] long 
  1605 ;; Auto vars:     Size  Location     Type
  1606 ;;  quotient        4   10[BANK0 ] long 
  1607 ;;  sign            1    9[BANK0 ] unsigned char 
  1608 ;;  counter         1    8[BANK0 ] unsigned char 
  1609 ;; Return value:  Size  Location     Type
  1610 ;;                  4    0[BANK0 ] long 
  1611 ;; Registers used:
  1612 ;;		wreg, status,2, status,0
  1613 ;; Tracked objects:
  1614 ;;		On entry : 0/0
  1615 ;;		On exit  : 0/0
  1616 ;;		Unchanged: 0/0
  1617 ;; Data sizes:     COMMON   BANK0   BANK1   BANK3   BANK2
  1618 ;;      Params:         0       8       0       0       0
  1619 ;;      Locals:         0       6       0       0       0
  1620 ;;      Temps:          1       0       0       0       0
  1621 ;;      Totals:         1      14       0       0       0
  1622 ;;Total ram usage:       15 bytes
  1623 ;; Hardware stack levels used: 1
  1624 ;; Hardware stack levels required when called: 1
  1625 ;; This function calls:
  1626 ;;		Nothing
  1627 ;; This function is called by:
  1628 ;;		_UART_Init
  1629 ;; This function uses a non-reentrant model
  1630 ;;
  1631                           
  1632                           
  1633                           ;psect for function ___aldiv
  1634  12BE                     ___aldiv:
  1635  12BE                     l4183:	
  1636                           ;incstack = 0
  1637                           ; Regs used in ___aldiv: [wreg+status,2+status,0]
  1638                           
  1639  12BE  1283               	bcf	3,5	;RP0=0, select bank0
  1640  12BF  1303               	bcf	3,6	;RP1=0, select bank0
  1641  12C0  01A9               	clrf	___aldiv@sign
  1642  12C1                     l4185:
  1643  12C1  1FA3               	btfss	___aldiv@divisor+3,7
  1644  12C2  2AC4               	goto	u6131
  1645  12C3  2AC5               	goto	u6130
  1646  12C4                     u6131:
  1647  12C4  2AD2               	goto	l578
  1648  12C5                     u6130:
  1649  12C5                     l4187:
  1650  12C5  09A0               	comf	___aldiv@divisor,f
  1651  12C6  09A1               	comf	___aldiv@divisor+1,f
  1652  12C7  09A2               	comf	___aldiv@divisor+2,f
  1653  12C8  09A3               	comf	___aldiv@divisor+3,f
  1654  12C9  0AA0               	incf	___aldiv@divisor,f
  1655  12CA  1903               	skipnz
  1656  12CB  0AA1               	incf	___aldiv@divisor+1,f
  1657  12CC  1903               	skipnz
  1658  12CD  0AA2               	incf	___aldiv@divisor+2,f
  1659  12CE  1903               	skipnz
  1660  12CF  0AA3               	incf	___aldiv@divisor+3,f
  1661  12D0  01A9               	clrf	___aldiv@sign
  1662  12D1  0AA9               	incf	___aldiv@sign,f
  1663  12D2                     l578:
  1664  12D2  1FA7               	btfss	___aldiv@dividend+3,7
  1665  12D3  2AD5               	goto	u6141
  1666  12D4  2AD6               	goto	u6140
  1667  12D5                     u6141:
  1668  12D5  2AE5               	goto	l4193
  1669  12D6                     u6140:
  1670  12D6                     l4189:
  1671  12D6  09A4               	comf	___aldiv@dividend,f
  1672  12D7  09A5               	comf	___aldiv@dividend+1,f
  1673  12D8  09A6               	comf	___aldiv@dividend+2,f
  1674  12D9  09A7               	comf	___aldiv@dividend+3,f
  1675  12DA  0AA4               	incf	___aldiv@dividend,f
  1676  12DB  1903               	skipnz
  1677  12DC  0AA5               	incf	___aldiv@dividend+1,f
  1678  12DD  1903               	skipnz
  1679  12DE  0AA6               	incf	___aldiv@dividend+2,f
  1680  12DF  1903               	skipnz
  1681  12E0  0AA7               	incf	___aldiv@dividend+3,f
  1682  12E1                     l4191:
  1683  12E1  3001               	movlw	1
  1684  12E2  00F3               	movwf	??___aldiv
  1685  12E3  0873               	movf	??___aldiv,w
  1686  12E4  06A9               	xorwf	___aldiv@sign,f
  1687  12E5                     l4193:
  1688  12E5  3000               	movlw	0
  1689  12E6  00AD               	movwf	___aldiv@quotient+3
  1690  12E7  3000               	movlw	0
  1691  12E8  00AC               	movwf	___aldiv@quotient+2
  1692  12E9  3000               	movlw	0
  1693  12EA  00AB               	movwf	___aldiv@quotient+1
  1694  12EB  3000               	movlw	0
  1695  12EC  00AA               	movwf	___aldiv@quotient
  1696  12ED                     l4195:
  1697  12ED  0823               	movf	___aldiv@divisor+3,w
  1698  12EE  0422               	iorwf	___aldiv@divisor+2,w
  1699  12EF  0421               	iorwf	___aldiv@divisor+1,w
  1700  12F0  0420               	iorwf	___aldiv@divisor,w
  1701  12F1  1903               	skipnz
  1702  12F2  2AF4               	goto	u6151
  1703  12F3  2AF5               	goto	u6150
  1704  12F4                     u6151:
  1705  12F4  2B42               	goto	l4215
  1706  12F5                     u6150:
  1707  12F5                     l4197:
  1708  12F5  01A8               	clrf	___aldiv@counter
  1709  12F6  0AA8               	incf	___aldiv@counter,f
  1710  12F7  2B05               	goto	l4201
  1711  12F8                     l4199:
  1712  12F8  3001               	movlw	1
  1713  12F9  00F3               	movwf	??___aldiv
  1714  12FA                     u6165:
  1715  12FA  1003               	clrc
  1716  12FB  0DA0               	rlf	___aldiv@divisor,f
  1717  12FC  0DA1               	rlf	___aldiv@divisor+1,f
  1718  12FD  0DA2               	rlf	___aldiv@divisor+2,f
  1719  12FE  0DA3               	rlf	___aldiv@divisor+3,f
  1720  12FF  0BF3               	decfsz	??___aldiv,f
  1721  1300  2AFA               	goto	u6165
  1722  1301  3001               	movlw	1
  1723  1302  00F3               	movwf	??___aldiv
  1724  1303  0873               	movf	??___aldiv,w
  1725  1304  07A8               	addwf	___aldiv@counter,f
  1726  1305                     l4201:
  1727  1305  1FA3               	btfss	___aldiv@divisor+3,7
  1728  1306  2B08               	goto	u6171
  1729  1307  2B09               	goto	u6170
  1730  1308                     u6171:
  1731  1308  2AF8               	goto	l4199
  1732  1309                     u6170:
  1733  1309                     l4203:
  1734  1309  3001               	movlw	1
  1735  130A  00F3               	movwf	??___aldiv
  1736  130B                     u6185:
  1737  130B  1003               	clrc
  1738  130C  0DAA               	rlf	___aldiv@quotient,f
  1739  130D  0DAB               	rlf	___aldiv@quotient+1,f
  1740  130E  0DAC               	rlf	___aldiv@quotient+2,f
  1741  130F  0DAD               	rlf	___aldiv@quotient+3,f
  1742  1310  0BF3               	decfsz	??___aldiv,f
  1743  1311  2B0B               	goto	u6185
  1744  1312                     l4205:
  1745  1312  0823               	movf	___aldiv@divisor+3,w
  1746  1313  0227               	subwf	___aldiv@dividend+3,w
  1747  1314  1D03               	skipz
  1748  1315  2B20               	goto	u6195
  1749  1316  0822               	movf	___aldiv@divisor+2,w
  1750  1317  0226               	subwf	___aldiv@dividend+2,w
  1751  1318  1D03               	skipz
  1752  1319  2B20               	goto	u6195
  1753  131A  0821               	movf	___aldiv@divisor+1,w
  1754  131B  0225               	subwf	___aldiv@dividend+1,w
  1755  131C  1D03               	skipz
  1756  131D  2B20               	goto	u6195
  1757  131E  0820               	movf	___aldiv@divisor,w
  1758  131F  0224               	subwf	___aldiv@dividend,w
  1759  1320                     u6195:
  1760  1320  1C03               	skipc
  1761  1321  2B23               	goto	u6191
  1762  1322  2B24               	goto	u6190
  1763  1323                     u6191:
  1764  1323  2B33               	goto	l4211
  1765  1324                     u6190:
  1766  1324                     l4207:
  1767  1324  0820               	movf	___aldiv@divisor,w
  1768  1325  02A4               	subwf	___aldiv@dividend,f
  1769  1326  0821               	movf	___aldiv@divisor+1,w
  1770  1327  1C03               	skipc
  1771  1328  0F21               	incfsz	___aldiv@divisor+1,w
  1772  1329  02A5               	subwf	___aldiv@dividend+1,f
  1773  132A  0822               	movf	___aldiv@divisor+2,w
  1774  132B  1C03               	skipc
  1775  132C  0F22               	incfsz	___aldiv@divisor+2,w
  1776  132D  02A6               	subwf	___aldiv@dividend+2,f
  1777  132E  0823               	movf	___aldiv@divisor+3,w
  1778  132F  1C03               	skipc
  1779  1330  0F23               	incfsz	___aldiv@divisor+3,w
  1780  1331  02A7               	subwf	___aldiv@dividend+3,f
  1781  1332                     l4209:
  1782  1332  142A               	bsf	___aldiv@quotient,0
  1783  1333                     l4211:
  1784  1333  3001               	movlw	1
  1785  1334                     u6205:
  1786  1334  1003               	clrc
  1787  1335  0CA3               	rrf	___aldiv@divisor+3,f
  1788  1336  0CA2               	rrf	___aldiv@divisor+2,f
  1789  1337  0CA1               	rrf	___aldiv@divisor+1,f
  1790  1338  0CA0               	rrf	___aldiv@divisor,f
  1791  1339  3EFF               	addlw	-1
  1792  133A  1D03               	skipz
  1793  133B  2B34               	goto	u6205
  1794  133C                     l4213:
  1795  133C  3001               	movlw	1
  1796  133D  02A8               	subwf	___aldiv@counter,f
  1797  133E  1D03               	btfss	3,2
  1798  133F  2B41               	goto	u6211
  1799  1340  2B42               	goto	u6210
  1800  1341                     u6211:
  1801  1341  2B09               	goto	l4203
  1802  1342                     u6210:
  1803  1342                     l4215:
  1804  1342  0829               	movf	___aldiv@sign,w
  1805  1343  1903               	btfsc	3,2
  1806  1344  2B46               	goto	u6221
  1807  1345  2B47               	goto	u6220
  1808  1346                     u6221:
  1809  1346  2B52               	goto	l4219
  1810  1347                     u6220:
  1811  1347                     l4217:
  1812  1347  09AA               	comf	___aldiv@quotient,f
  1813  1348  09AB               	comf	___aldiv@quotient+1,f
  1814  1349  09AC               	comf	___aldiv@quotient+2,f
  1815  134A  09AD               	comf	___aldiv@quotient+3,f
  1816  134B  0AAA               	incf	___aldiv@quotient,f
  1817  134C  1903               	skipnz
  1818  134D  0AAB               	incf	___aldiv@quotient+1,f
  1819  134E  1903               	skipnz
  1820  134F  0AAC               	incf	___aldiv@quotient+2,f
  1821  1350  1903               	skipnz
  1822  1351  0AAD               	incf	___aldiv@quotient+3,f
  1823  1352                     l4219:
  1824  1352  082D               	movf	___aldiv@quotient+3,w
  1825  1353  00A3               	movwf	?___aldiv+3
  1826  1354  082C               	movf	___aldiv@quotient+2,w
  1827  1355  00A2               	movwf	?___aldiv+2
  1828  1356  082B               	movf	___aldiv@quotient+1,w
  1829  1357  00A1               	movwf	?___aldiv+1
  1830  1358  082A               	movf	___aldiv@quotient,w
  1831  1359  00A0               	movwf	?___aldiv
  1832  135A                     l588:
  1833  135A  0008               	return
  1834  135B                     __end_of___aldiv:
  1835                           
  1836                           	psect	text4
  1837  1BF4                     __ptext4:	
  1838 ;; *************** function _ReadTemperature *****************
  1839 ;; Defined at:
  1840 ;;		line 503 in file "main.c"
  1841 ;; Parameters:    Size  Location     Type
  1842 ;;		None
  1843 ;; Auto vars:     Size  Location     Type
  1844 ;;		None
  1845 ;; Return value:  Size  Location     Type
  1846 ;;                  1    wreg      void 
  1847 ;; Registers used:
  1848 ;;		wreg, status,2, status,0, btemp+1, pclath, cstack
  1849 ;; Tracked objects:
  1850 ;;		On entry : 0/0
  1851 ;;		On exit  : 0/0
  1852 ;;		Unchanged: 0/0
  1853 ;; Data sizes:     COMMON   BANK0   BANK1   BANK3   BANK2
  1854 ;;      Params:         0       0       0       0       0
  1855 ;;      Locals:         0       0       0       0       0
  1856 ;;      Temps:          0       0       0       0       0
  1857 ;;      Totals:         0       0       0       0       0
  1858 ;;Total ram usage:        0 bytes
  1859 ;; Hardware stack levels used: 1
  1860 ;; Hardware stack levels required when called: 3
  1861 ;; This function calls:
  1862 ;;		_ReadADC
  1863 ;;		___flmul
  1864 ;;		___xxtofl
  1865 ;; This function is called by:
  1866 ;;		_main
  1867 ;; This function uses a non-reentrant model
  1868 ;;
  1869                           
  1870                           
  1871                           ;psect for function _ReadTemperature
  1872  1BF4                     _ReadTemperature:
  1873  1BF4                     l3447:	
  1874                           ;incstack = 0
  1875                           ; Regs used in _ReadTemperature: [wreg+status,2+status,0+btemp+1+pclath+cstack]
  1876                           
  1877                           
  1878                           ;main.c: 505:     temperature = (float)(ReadADC(0x02) * 0.489);
  1879  1BF4  303E               	movlw	62
  1880  1BF5  1283               	bcf	3,5	;RP0=0, select bank0
  1881  1BF6  1303               	bcf	3,6	;RP1=0, select bank0
  1882  1BF7  00B3               	movwf	___flmul@b+3
  1883  1BF8  30FA               	movlw	250
  1884  1BF9  00B2               	movwf	___flmul@b+2
  1885  1BFA  305E               	movlw	94
  1886  1BFB  00B1               	movwf	___flmul@b+1
  1887  1BFC  3035               	movlw	53
  1888  1BFD  00B0               	movwf	___flmul@b
  1889  1BFE  3002               	movlw	2
  1890  1BFF  160A  158A  228B  160A  158A  	fcall	_ReadADC
  1891  1C04  0873               	movf	?_ReadADC,w
  1892  1C05  1283               	bcf	3,5	;RP0=0, select bank0
  1893  1C06  1303               	bcf	3,6	;RP1=0, select bank0
  1894  1C07  00A2               	movwf	___xxtofl@val
  1895  1C08  0874               	movf	?_ReadADC+1,w
  1896  1C09  00A3               	movwf	___xxtofl@val+1
  1897  1C0A  3000               	movlw	0
  1898  1C0B  1BA3               	btfsc	___xxtofl@val+1,7
  1899  1C0C  30FF               	movlw	255
  1900  1C0D  00A4               	movwf	___xxtofl@val+2
  1901  1C0E  00A5               	movwf	___xxtofl@val+3
  1902  1C0F  3001               	movlw	1
  1903  1C10  160A  118A  235B  160A  158A  	fcall	___xxtofl
  1904  1C15  1283               	bcf	3,5	;RP0=0, select bank0
  1905  1C16  1303               	bcf	3,6	;RP1=0, select bank0
  1906  1C17  0825               	movf	?___xxtofl+3,w
  1907  1C18  00B7               	movwf	___flmul@a+3
  1908  1C19  0824               	movf	?___xxtofl+2,w
  1909  1C1A  00B6               	movwf	___flmul@a+2
  1910  1C1B  0823               	movf	?___xxtofl+1,w
  1911  1C1C  00B5               	movwf	___flmul@a+1
  1912  1C1D  0822               	movf	?___xxtofl,w
  1913  1C1E  00B4               	movwf	___flmul@a
  1914  1C1F  120A  118A  2044  160A  158A  	fcall	___flmul
  1915  1C24  1283               	bcf	3,5	;RP0=0, select bank0
  1916  1C25  1303               	bcf	3,6	;RP1=0, select bank0
  1917  1C26  0833               	movf	?___flmul+3,w
  1918  1C27  1683               	bsf	3,5	;RP0=1, select bank3
  1919  1C28  1703               	bsf	3,6	;RP1=1, select bank3
  1920  1C29  0098               	movwf	(_temperature+3)^(0+384)
  1921  1C2A  1283               	bcf	3,5	;RP0=0, select bank0
  1922  1C2B  1303               	bcf	3,6	;RP1=0, select bank0
  1923  1C2C  0832               	movf	?___flmul+2,w
  1924  1C2D  1683               	bsf	3,5	;RP0=1, select bank3
  1925  1C2E  1703               	bsf	3,6	;RP1=1, select bank3
  1926  1C2F  0097               	movwf	(_temperature+2)^(0+384)
  1927  1C30  1283               	bcf	3,5	;RP0=0, select bank0
  1928  1C31  1303               	bcf	3,6	;RP1=0, select bank0
  1929  1C32  0831               	movf	?___flmul+1,w
  1930  1C33  1683               	bsf	3,5	;RP0=1, select bank3
  1931  1C34  1703               	bsf	3,6	;RP1=1, select bank3
  1932  1C35  0096               	movwf	(_temperature+1)^(0+384)
  1933  1C36  1283               	bcf	3,5	;RP0=0, select bank0
  1934  1C37  1303               	bcf	3,6	;RP1=0, select bank0
  1935  1C38  0830               	movf	?___flmul,w
  1936  1C39  1683               	bsf	3,5	;RP0=1, select bank3
  1937  1C3A  1703               	bsf	3,6	;RP1=1, select bank3
  1938  1C3B  0095               	movwf	_temperature^(0+384)
  1939  1C3C                     l320:
  1940  1C3C  0008               	return
  1941  1C3D                     __end_of_ReadTemperature:
  1942                           
  1943                           	psect	text5
  1944  1A8B                     __ptext5:	
  1945 ;; *************** function _ReadADC *****************
  1946 ;; Defined at:
  1947 ;;		line 481 in file "main.c"
  1948 ;; Parameters:    Size  Location     Type
  1949 ;;  channel         1    wreg     unsigned char 
  1950 ;; Auto vars:     Size  Location     Type
  1951 ;;  channel         1    7[COMMON] unsigned char 
  1952 ;; Return value:  Size  Location     Type
  1953 ;;                  2    3[COMMON] int 
  1954 ;; Registers used:
  1955 ;;		wreg, status,2, status,0
  1956 ;; Tracked objects:
  1957 ;;		On entry : 0/0
  1958 ;;		On exit  : 0/0
  1959 ;;		Unchanged: 0/0
  1960 ;; Data sizes:     COMMON   BANK0   BANK1   BANK3   BANK2
  1961 ;;      Params:         2       0       0       0       0
  1962 ;;      Locals:         1       0       0       0       0
  1963 ;;      Temps:          2       0       0       0       0
  1964 ;;      Totals:         5       0       0       0       0
  1965 ;;Total ram usage:        5 bytes
  1966 ;; Hardware stack levels used: 1
  1967 ;; Hardware stack levels required when called: 1
  1968 ;; This function calls:
  1969 ;;		Nothing
  1970 ;; This function is called by:
  1971 ;;		_ReadTemperature
  1972 ;; This function uses a non-reentrant model
  1973 ;;
  1974                           
  1975                           
  1976                           ;psect for function _ReadADC
  1977  1A8B                     _ReadADC:
  1978                           
  1979                           ;incstack = 0
  1980                           ; Regs used in _ReadADC: [wreg+status,2+status,0]
  1981                           ;ReadADC@channel stored from wreg
  1982  1A8B  00F7               	movwf	ReadADC@channel
  1983  1A8C                     l3245:
  1984                           
  1985                           ;main.c: 481: int ReadADC(char channel);main.c: 482: {;main.c: 483:     ADCON0 &= 0xC7;
  1986  1A8C  30C7               	movlw	199
  1987  1A8D  00F5               	movwf	??_ReadADC
  1988  1A8E  0875               	movf	??_ReadADC,w
  1989  1A8F  1283               	bcf	3,5	;RP0=0, select bank0
  1990  1A90  1303               	bcf	3,6	;RP1=0, select bank0
  1991  1A91  059F               	andwf	31,f	;volatile
  1992                           
  1993                           ;main.c: 484:     ADCON0 |= ((channel & 0x07)<<3);
  1994  1A92  0877               	movf	ReadADC@channel,w
  1995  1A93  3907               	andlw	7
  1996  1A94  00F5               	movwf	??_ReadADC
  1997  1A95  3002               	movlw	2
  1998  1A96                     u4485:
  1999  1A96  1003               	clrc
  2000  1A97  0DF5               	rlf	??_ReadADC,f
  2001  1A98  3EFF               	addlw	-1
  2002  1A99  1D03               	skipz
  2003  1A9A  2A96               	goto	u4485
  2004  1A9B  1003               	clrc
  2005  1A9C  0D75               	rlf	??_ReadADC,w
  2006  1A9D  00F6               	movwf	??_ReadADC+1
  2007  1A9E  0876               	movf	??_ReadADC+1,w
  2008  1A9F  049F               	iorwf	31,f	;volatile
  2009  1AA0                     l3247:
  2010                           
  2011                           ;main.c: 485:     _delay((unsigned long)((10)*(8000000/4000000.0)));
  2012  1AA0  3006               	movlw	6
  2013  1AA1  00F5               	movwf	??_ReadADC
  2014  1AA2                     u6577:
  2015  1AA2  0BF5               	decfsz	??_ReadADC,f
  2016  1AA3  2AA2               	goto	u6577
  2017  1AA4  0000               	nop
  2018  1AA5                     l3249:
  2019                           
  2020                           ;main.c: 486:     ADCON0 |= 0x04;
  2021  1AA5  1283               	bcf	3,5	;RP0=0, select bank0
  2022  1AA6  1303               	bcf	3,6	;RP1=0, select bank0
  2023  1AA7  151F               	bsf	31,2	;volatile
  2024  1AA8                     l308:	
  2025                           ;main.c: 487:     while(ADCON0 & 0x04);
  2026                           
  2027  1AA8  191F               	btfsc	31,2	;volatile
  2028  1AA9  2AAB               	goto	u4491
  2029  1AAA  2AAC               	goto	u4490
  2030  1AAB                     u4491:
  2031  1AAB  2AA8               	goto	l308
  2032  1AAC                     u4490:
  2033  1AAC                     l3251:
  2034                           
  2035                           ;main.c: 488:     return ADRESL | (ADRESH << 8);
  2036  1AAC  081E               	movf	30,w	;volatile
  2037  1AAD  00F4               	movwf	?_ReadADC+1
  2038  1AAE  1683               	bsf	3,5	;RP0=1, select bank1
  2039  1AAF  1303               	bcf	3,6	;RP1=0, select bank1
  2040  1AB0  081E               	movf	30,w	;volatile
  2041  1AB1  00F3               	movwf	?_ReadADC
  2042  1AB2                     l311:
  2043  1AB2  0008               	return
  2044  1AB3                     __end_of_ReadADC:
  2045                           
  2046                           	psect	text6
  2047  11A3                     __ptext6:	
  2048 ;; *************** function _ReadHumidity *****************
  2049 ;; Defined at:
  2050 ;;		line 492 in file "main.c"
  2051 ;; Parameters:    Size  Location     Type
  2052 ;;		None
  2053 ;; Auto vars:     Size  Location     Type
  2054 ;;		None
  2055 ;; Return value:  Size  Location     Type
  2056 ;;                  1    wreg      void 
  2057 ;; Registers used:
  2058 ;;		wreg, status,2, status,0, btemp+1, pclath, cstack
  2059 ;; Tracked objects:
  2060 ;;		On entry : 0/0
  2061 ;;		On exit  : 0/0
  2062 ;;		Unchanged: 0/0
  2063 ;; Data sizes:     COMMON   BANK0   BANK1   BANK3   BANK2
  2064 ;;      Params:         0       0       0       0       0
  2065 ;;      Locals:         0       0       0       0       0
  2066 ;;      Temps:          0       0       0       0       0
  2067 ;;      Totals:         0       0       0       0       0
  2068 ;;Total ram usage:        0 bytes
  2069 ;; Hardware stack levels used: 1
  2070 ;; Hardware stack levels required when called: 2
  2071 ;; This function calls:
  2072 ;;		___fladd
  2073 ;;		___flge
  2074 ;; This function is called by:
  2075 ;;		_main
  2076 ;; This function uses a non-reentrant model
  2077 ;;
  2078                           
  2079                           
  2080                           ;psect for function _ReadHumidity
  2081  11A3                     _ReadHumidity:
  2082  11A3                     l4261:	
  2083                           ;incstack = 0
  2084                           ; Regs used in _ReadHumidity: [wreg+status,2+status,0+btemp+1+pclath+cstack]
  2085                           
  2086                           
  2087                           ;main.c: 494:     if(postScalerHum > 500)
  2088  11A3  1683               	bsf	3,5	;RP0=1, select bank3
  2089  11A4  1703               	bsf	3,6	;RP1=1, select bank3
  2090  11A5  0820               	movf	(_postScalerHum+1)^(0+384),w
  2091  11A6  3A80               	xorlw	128
  2092  11A7  00FF               	movwf	btemp+1
  2093  11A8  3081               	movlw	129
  2094  11A9  027F               	subwf	btemp+1,w
  2095  11AA  1D03               	skipz
  2096  11AB  29AE               	goto	u6245
  2097  11AC  30F5               	movlw	245
  2098  11AD  021F               	subwf	_postScalerHum^(0+384),w
  2099  11AE                     u6245:
  2100  11AE  1C03               	skipc
  2101  11AF  29B1               	goto	u6241
  2102  11B0  29B2               	goto	u6240
  2103  11B1                     u6241:
  2104  11B1  2A27               	goto	l317
  2105  11B2                     u6240:
  2106  11B2                     l4263:
  2107                           
  2108                           ;main.c: 495:     {;main.c: 496:         if(humidity >= 100) humidity = 0;
  2109  11B2  1683               	bsf	3,5	;RP0=1, select bank3
  2110  11B3  1703               	bsf	3,6	;RP1=1, select bank3
  2111  11B4  0845               	movf	(_humidity+3)^(0+384),w
  2112  11B5  1683               	bsf	3,5	;RP0=1, select bank1
  2113  11B6  1303               	bcf	3,6	;RP1=0, select bank1
  2114  11B7  00A3               	movwf	(___flge@ff1+3)^(0+128)
  2115  11B8  1683               	bsf	3,5	;RP0=1, select bank3
  2116  11B9  1703               	bsf	3,6	;RP1=1, select bank3
  2117  11BA  0844               	movf	(_humidity+2)^(0+384),w
  2118  11BB  1683               	bsf	3,5	;RP0=1, select bank1
  2119  11BC  1303               	bcf	3,6	;RP1=0, select bank1
  2120  11BD  00A2               	movwf	(___flge@ff1+2)^(0+128)
  2121  11BE  1683               	bsf	3,5	;RP0=1, select bank3
  2122  11BF  1703               	bsf	3,6	;RP1=1, select bank3
  2123  11C0  0843               	movf	(_humidity+1)^(0+384),w
  2124  11C1  1683               	bsf	3,5	;RP0=1, select bank1
  2125  11C2  1303               	bcf	3,6	;RP1=0, select bank1
  2126  11C3  00A1               	movwf	(___flge@ff1+1)^(0+128)
  2127  11C4  1683               	bsf	3,5	;RP0=1, select bank3
  2128  11C5  1703               	bsf	3,6	;RP1=1, select bank3
  2129  11C6  0842               	movf	_humidity^(0+384),w
  2130  11C7  1683               	bsf	3,5	;RP0=1, select bank1
  2131  11C8  1303               	bcf	3,6	;RP1=0, select bank1
  2132  11C9  00A0               	movwf	___flge@ff1^(0+128)
  2133  11CA  3042               	movlw	66
  2134  11CB  00A7               	movwf	(___flge@ff2+3)^(0+128)
  2135  11CC  30C8               	movlw	200
  2136  11CD  00A6               	movwf	(___flge@ff2+2)^(0+128)
  2137  11CE  3000               	movlw	0
  2138  11CF  00A5               	movwf	(___flge@ff2+1)^(0+128)
  2139  11D0  3000               	movlw	0
  2140  11D1  00A4               	movwf	___flge@ff2^(0+128)
  2141  11D2  160A  118A  25DF  160A  118A  	fcall	___flge
  2142  11D7  1C03               	btfss	3,0
  2143  11D8  29DA               	goto	u6251
  2144  11D9  29DB               	goto	u6250
  2145  11DA                     u6251:
  2146  11DA  29E6               	goto	l4267
  2147  11DB                     u6250:
  2148  11DB                     l4265:
  2149  11DB  3000               	movlw	0
  2150  11DC  1683               	bsf	3,5	;RP0=1, select bank3
  2151  11DD  1703               	bsf	3,6	;RP1=1, select bank3
  2152  11DE  00C5               	movwf	(_humidity+3)^(0+384)
  2153  11DF  3000               	movlw	0
  2154  11E0  00C4               	movwf	(_humidity+2)^(0+384)
  2155  11E1  3000               	movlw	0
  2156  11E2  00C3               	movwf	(_humidity+1)^(0+384)
  2157  11E3  3000               	movlw	0
  2158  11E4  00C2               	movwf	_humidity^(0+384)
  2159  11E5  2A25               	goto	l4269
  2160  11E6                     l4267:
  2161  11E6  303D               	movlw	61
  2162  11E7  1283               	bcf	3,5	;RP0=0, select bank0
  2163  11E8  1303               	bcf	3,6	;RP1=0, select bank0
  2164  11E9  00D8               	movwf	___fladd@b+3
  2165  11EA  30CC               	movlw	204
  2166  11EB  00D7               	movwf	___fladd@b+2
  2167  11EC  30CC               	movlw	204
  2168  11ED  00D6               	movwf	___fladd@b+1
  2169  11EE  30CD               	movlw	205
  2170  11EF  00D5               	movwf	___fladd@b
  2171  11F0  1683               	bsf	3,5	;RP0=1, select bank3
  2172  11F1  1703               	bsf	3,6	;RP1=1, select bank3
  2173  11F2  0845               	movf	(_humidity+3)^(0+384),w
  2174  11F3  1283               	bcf	3,5	;RP0=0, select bank0
  2175  11F4  1303               	bcf	3,6	;RP1=0, select bank0
  2176  11F5  00DC               	movwf	___fladd@a+3
  2177  11F6  1683               	bsf	3,5	;RP0=1, select bank3
  2178  11F7  1703               	bsf	3,6	;RP1=1, select bank3
  2179  11F8  0844               	movf	(_humidity+2)^(0+384),w
  2180  11F9  1283               	bcf	3,5	;RP0=0, select bank0
  2181  11FA  1303               	bcf	3,6	;RP1=0, select bank0
  2182  11FB  00DB               	movwf	___fladd@a+2
  2183  11FC  1683               	bsf	3,5	;RP0=1, select bank3
  2184  11FD  1703               	bsf	3,6	;RP1=1, select bank3
  2185  11FE  0843               	movf	(_humidity+1)^(0+384),w
  2186  11FF  1283               	bcf	3,5	;RP0=0, select bank0
  2187  1200  1303               	bcf	3,6	;RP1=0, select bank0
  2188  1201  00DA               	movwf	___fladd@a+1
  2189  1202  1683               	bsf	3,5	;RP0=1, select bank3
  2190  1203  1703               	bsf	3,6	;RP1=1, select bank3
  2191  1204  0842               	movf	_humidity^(0+384),w
  2192  1205  1283               	bcf	3,5	;RP0=0, select bank0
  2193  1206  1303               	bcf	3,6	;RP1=0, select bank0
  2194  1207  00D9               	movwf	___fladd@a
  2195  1208  120A  158A  2578  160A  118A  	fcall	___fladd
  2196  120D  1283               	bcf	3,5	;RP0=0, select bank0
  2197  120E  1303               	bcf	3,6	;RP1=0, select bank0
  2198  120F  0858               	movf	?___fladd+3,w
  2199  1210  1683               	bsf	3,5	;RP0=1, select bank3
  2200  1211  1703               	bsf	3,6	;RP1=1, select bank3
  2201  1212  00C5               	movwf	(_humidity+3)^(0+384)
  2202  1213  1283               	bcf	3,5	;RP0=0, select bank0
  2203  1214  1303               	bcf	3,6	;RP1=0, select bank0
  2204  1215  0857               	movf	?___fladd+2,w
  2205  1216  1683               	bsf	3,5	;RP0=1, select bank3
  2206  1217  1703               	bsf	3,6	;RP1=1, select bank3
  2207  1218  00C4               	movwf	(_humidity+2)^(0+384)
  2208  1219  1283               	bcf	3,5	;RP0=0, select bank0
  2209  121A  1303               	bcf	3,6	;RP1=0, select bank0
  2210  121B  0856               	movf	?___fladd+1,w
  2211  121C  1683               	bsf	3,5	;RP0=1, select bank3
  2212  121D  1703               	bsf	3,6	;RP1=1, select bank3
  2213  121E  00C3               	movwf	(_humidity+1)^(0+384)
  2214  121F  1283               	bcf	3,5	;RP0=0, select bank0
  2215  1220  1303               	bcf	3,6	;RP1=0, select bank0
  2216  1221  0855               	movf	?___fladd,w
  2217  1222  1683               	bsf	3,5	;RP0=1, select bank3
  2218  1223  1703               	bsf	3,6	;RP1=1, select bank3
  2219  1224  00C2               	movwf	_humidity^(0+384)
  2220  1225                     l4269:
  2221                           
  2222                           ;main.c: 498:         postScalerHum = 0;
  2223  1225  019F               	clrf	_postScalerHum^(0+384)
  2224  1226  01A0               	clrf	(_postScalerHum+1)^(0+384)
  2225  1227                     l317:
  2226  1227  0008               	return
  2227  1228                     __end_of_ReadHumidity:
  2228                           
  2229                           	psect	text7
  2230  1417                     __ptext7:	
  2231 ;; *************** function _ManageTemperature *****************
  2232 ;; Defined at:
  2233 ;;		line 453 in file "main.c"
  2234 ;; Parameters:    Size  Location     Type
  2235 ;;		None
  2236 ;; Auto vars:     Size  Location     Type
  2237 ;;		None
  2238 ;; Return value:  Size  Location     Type
  2239 ;;                  1    wreg      void 
  2240 ;; Registers used:
  2241 ;;		wreg, status,2, status,0, btemp+1, pclath, cstack
  2242 ;; Tracked objects:
  2243 ;;		On entry : 0/0
  2244 ;;		On exit  : 0/0
  2245 ;;		Unchanged: 0/0
  2246 ;; Data sizes:     COMMON   BANK0   BANK1   BANK3   BANK2
  2247 ;;      Params:         0       0       0       0       0
  2248 ;;      Locals:         0       0       0       0       0
  2249 ;;      Temps:          0       1       0       0       0
  2250 ;;      Totals:         0       1       0       0       0
  2251 ;;Total ram usage:        1 bytes
  2252 ;; Hardware stack levels used: 1
  2253 ;; Hardware stack levels required when called: 2
  2254 ;; This function calls:
  2255 ;;		___fladd
  2256 ;;		___flge
  2257 ;; This function is called by:
  2258 ;;		_main
  2259 ;; This function uses a non-reentrant model
  2260 ;;
  2261                           
  2262                           
  2263                           ;psect for function _ManageTemperature
  2264  1417                     _ManageTemperature:
  2265  1417                     l4345:	
  2266                           ;incstack = 0
  2267                           ; Regs used in _ManageTemperature: [wreg+status,2+status,0+btemp+1+pclath+cstack]
  2268                           
  2269                           
  2270                           ;main.c: 455:     if(temperature < (setTemp-temperatureBuffer))
  2271  1417  1683               	bsf	3,5	;RP0=1, select bank3
  2272  1418  1703               	bsf	3,6	;RP1=1, select bank3
  2273  1419  0818               	movf	(_temperature+3)^(0+384),w
  2274  141A  1683               	bsf	3,5	;RP0=1, select bank1
  2275  141B  1303               	bcf	3,6	;RP1=0, select bank1
  2276  141C  00A3               	movwf	(___flge@ff1+3)^(0+128)
  2277  141D  1683               	bsf	3,5	;RP0=1, select bank3
  2278  141E  1703               	bsf	3,6	;RP1=1, select bank3
  2279  141F  0817               	movf	(_temperature+2)^(0+384),w
  2280  1420  1683               	bsf	3,5	;RP0=1, select bank1
  2281  1421  1303               	bcf	3,6	;RP1=0, select bank1
  2282  1422  00A2               	movwf	(___flge@ff1+2)^(0+128)
  2283  1423  1683               	bsf	3,5	;RP0=1, select bank3
  2284  1424  1703               	bsf	3,6	;RP1=1, select bank3
  2285  1425  0816               	movf	(_temperature+1)^(0+384),w
  2286  1426  1683               	bsf	3,5	;RP0=1, select bank1
  2287  1427  1303               	bcf	3,6	;RP1=0, select bank1
  2288  1428  00A1               	movwf	(___flge@ff1+1)^(0+128)
  2289  1429  1683               	bsf	3,5	;RP0=1, select bank3
  2290  142A  1703               	bsf	3,6	;RP1=1, select bank3
  2291  142B  0815               	movf	_temperature^(0+384),w
  2292  142C  1683               	bsf	3,5	;RP0=1, select bank1
  2293  142D  1303               	bcf	3,6	;RP1=0, select bank1
  2294  142E  00A0               	movwf	___flge@ff1^(0+128)
  2295  142F  30BF               	movlw	191
  2296  1430  1283               	bcf	3,5	;RP0=0, select bank0
  2297  1431  1303               	bcf	3,6	;RP1=0, select bank0
  2298  1432  00D8               	movwf	___fladd@b+3
  2299  1433  3000               	movlw	0
  2300  1434  00D7               	movwf	___fladd@b+2
  2301  1435  3000               	movlw	0
  2302  1436  00D6               	movwf	___fladd@b+1
  2303  1437  3000               	movlw	0
  2304  1438  00D5               	movwf	___fladd@b
  2305  1439  1683               	bsf	3,5	;RP0=1, select bank1
  2306  143A  1303               	bcf	3,6	;RP1=0, select bank1
  2307  143B  0867               	movf	(_setTemp+3)^(0+128),w
  2308  143C  1283               	bcf	3,5	;RP0=0, select bank0
  2309  143D  1303               	bcf	3,6	;RP1=0, select bank0
  2310  143E  00DC               	movwf	___fladd@a+3
  2311  143F  1683               	bsf	3,5	;RP0=1, select bank1
  2312  1440  1303               	bcf	3,6	;RP1=0, select bank1
  2313  1441  0866               	movf	(_setTemp+2)^(0+128),w
  2314  1442  1283               	bcf	3,5	;RP0=0, select bank0
  2315  1443  1303               	bcf	3,6	;RP1=0, select bank0
  2316  1444  00DB               	movwf	___fladd@a+2
  2317  1445  1683               	bsf	3,5	;RP0=1, select bank1
  2318  1446  1303               	bcf	3,6	;RP1=0, select bank1
  2319  1447  0865               	movf	(_setTemp+1)^(0+128),w
  2320  1448  1283               	bcf	3,5	;RP0=0, select bank0
  2321  1449  1303               	bcf	3,6	;RP1=0, select bank0
  2322  144A  00DA               	movwf	___fladd@a+1
  2323  144B  1683               	bsf	3,5	;RP0=1, select bank1
  2324  144C  1303               	bcf	3,6	;RP1=0, select bank1
  2325  144D  0864               	movf	_setTemp^(0+128),w
  2326  144E  1283               	bcf	3,5	;RP0=0, select bank0
  2327  144F  1303               	bcf	3,6	;RP1=0, select bank0
  2328  1450  00D9               	movwf	___fladd@a
  2329  1451  120A  158A  2578  160A  118A  	fcall	___fladd
  2330  1456  1283               	bcf	3,5	;RP0=0, select bank0
  2331  1457  1303               	bcf	3,6	;RP1=0, select bank0
  2332  1458  0858               	movf	?___fladd+3,w
  2333  1459  1683               	bsf	3,5	;RP0=1, select bank1
  2334  145A  1303               	bcf	3,6	;RP1=0, select bank1
  2335  145B  00A7               	movwf	(___flge@ff2+3)^(0+128)
  2336  145C  1283               	bcf	3,5	;RP0=0, select bank0
  2337  145D  1303               	bcf	3,6	;RP1=0, select bank0
  2338  145E  0857               	movf	?___fladd+2,w
  2339  145F  1683               	bsf	3,5	;RP0=1, select bank1
  2340  1460  1303               	bcf	3,6	;RP1=0, select bank1
  2341  1461  00A6               	movwf	(___flge@ff2+2)^(0+128)
  2342  1462  1283               	bcf	3,5	;RP0=0, select bank0
  2343  1463  1303               	bcf	3,6	;RP1=0, select bank0
  2344  1464  0856               	movf	?___fladd+1,w
  2345  1465  1683               	bsf	3,5	;RP0=1, select bank1
  2346  1466  1303               	bcf	3,6	;RP1=0, select bank1
  2347  1467  00A5               	movwf	(___flge@ff2+1)^(0+128)
  2348  1468  1283               	bcf	3,5	;RP0=0, select bank0
  2349  1469  1303               	bcf	3,6	;RP1=0, select bank0
  2350  146A  0855               	movf	?___fladd,w
  2351  146B  1683               	bsf	3,5	;RP0=1, select bank1
  2352  146C  1303               	bcf	3,6	;RP1=0, select bank1
  2353  146D  00A4               	movwf	___flge@ff2^(0+128)
  2354  146E  160A  118A  25DF  160A  118A  	fcall	___flge
  2355  1473  1803               	btfsc	3,0
  2356  1474  2C76               	goto	u6451
  2357  1475  2C77               	goto	u6450
  2358  1476                     u6451:
  2359  1476  2C81               	goto	l4351
  2360  1477                     u6450:
  2361  1477                     l4347:
  2362                           
  2363                           ;main.c: 456:         {;main.c: 457:             dutyHeater = 200;
  2364  1477  30C8               	movlw	200
  2365  1478  1283               	bcf	3,5	;RP0=0, select bank0
  2366  1479  1303               	bcf	3,6	;RP1=0, select bank0
  2367  147A  00ED               	movwf	??_ManageTemperature
  2368  147B  086D               	movf	??_ManageTemperature,w
  2369  147C  1683               	bsf	3,5	;RP0=1, select bank1
  2370  147D  1303               	bcf	3,6	;RP1=0, select bank1
  2371  147E  00DF               	movwf	_dutyHeater^(0+128)
  2372  147F                     l4349:
  2373                           
  2374                           ;main.c: 458:             dutyCooler = 0;
  2375  147F  01DE               	clrf	_dutyCooler^(0+128)
  2376                           
  2377                           ;main.c: 459:         }
  2378  1480  2CEF               	goto	l299
  2379  1481                     l4351:
  2380  1481  303F               	movlw	63
  2381  1482  1283               	bcf	3,5	;RP0=0, select bank0
  2382  1483  1303               	bcf	3,6	;RP1=0, select bank0
  2383  1484  00D8               	movwf	___fladd@b+3
  2384  1485  3000               	movlw	0
  2385  1486  00D7               	movwf	___fladd@b+2
  2386  1487  3000               	movlw	0
  2387  1488  00D6               	movwf	___fladd@b+1
  2388  1489  3000               	movlw	0
  2389  148A  00D5               	movwf	___fladd@b
  2390  148B  1683               	bsf	3,5	;RP0=1, select bank1
  2391  148C  1303               	bcf	3,6	;RP1=0, select bank1
  2392  148D  0867               	movf	(_setTemp+3)^(0+128),w
  2393  148E  1283               	bcf	3,5	;RP0=0, select bank0
  2394  148F  1303               	bcf	3,6	;RP1=0, select bank0
  2395  1490  00DC               	movwf	___fladd@a+3
  2396  1491  1683               	bsf	3,5	;RP0=1, select bank1
  2397  1492  1303               	bcf	3,6	;RP1=0, select bank1
  2398  1493  0866               	movf	(_setTemp+2)^(0+128),w
  2399  1494  1283               	bcf	3,5	;RP0=0, select bank0
  2400  1495  1303               	bcf	3,6	;RP1=0, select bank0
  2401  1496  00DB               	movwf	___fladd@a+2
  2402  1497  1683               	bsf	3,5	;RP0=1, select bank1
  2403  1498  1303               	bcf	3,6	;RP1=0, select bank1
  2404  1499  0865               	movf	(_setTemp+1)^(0+128),w
  2405  149A  1283               	bcf	3,5	;RP0=0, select bank0
  2406  149B  1303               	bcf	3,6	;RP1=0, select bank0
  2407  149C  00DA               	movwf	___fladd@a+1
  2408  149D  1683               	bsf	3,5	;RP0=1, select bank1
  2409  149E  1303               	bcf	3,6	;RP1=0, select bank1
  2410  149F  0864               	movf	_setTemp^(0+128),w
  2411  14A0  1283               	bcf	3,5	;RP0=0, select bank0
  2412  14A1  1303               	bcf	3,6	;RP1=0, select bank0
  2413  14A2  00D9               	movwf	___fladd@a
  2414  14A3  120A  158A  2578  160A  118A  	fcall	___fladd
  2415  14A8  1283               	bcf	3,5	;RP0=0, select bank0
  2416  14A9  1303               	bcf	3,6	;RP1=0, select bank0
  2417  14AA  0858               	movf	?___fladd+3,w
  2418  14AB  1683               	bsf	3,5	;RP0=1, select bank1
  2419  14AC  1303               	bcf	3,6	;RP1=0, select bank1
  2420  14AD  00A3               	movwf	(___flge@ff1+3)^(0+128)
  2421  14AE  1283               	bcf	3,5	;RP0=0, select bank0
  2422  14AF  1303               	bcf	3,6	;RP1=0, select bank0
  2423  14B0  0857               	movf	?___fladd+2,w
  2424  14B1  1683               	bsf	3,5	;RP0=1, select bank1
  2425  14B2  1303               	bcf	3,6	;RP1=0, select bank1
  2426  14B3  00A2               	movwf	(___flge@ff1+2)^(0+128)
  2427  14B4  1283               	bcf	3,5	;RP0=0, select bank0
  2428  14B5  1303               	bcf	3,6	;RP1=0, select bank0
  2429  14B6  0856               	movf	?___fladd+1,w
  2430  14B7  1683               	bsf	3,5	;RP0=1, select bank1
  2431  14B8  1303               	bcf	3,6	;RP1=0, select bank1
  2432  14B9  00A1               	movwf	(___flge@ff1+1)^(0+128)
  2433  14BA  1283               	bcf	3,5	;RP0=0, select bank0
  2434  14BB  1303               	bcf	3,6	;RP1=0, select bank0
  2435  14BC  0855               	movf	?___fladd,w
  2436  14BD  1683               	bsf	3,5	;RP0=1, select bank1
  2437  14BE  1303               	bcf	3,6	;RP1=0, select bank1
  2438  14BF  00A0               	movwf	___flge@ff1^(0+128)
  2439  14C0  1683               	bsf	3,5	;RP0=1, select bank3
  2440  14C1  1703               	bsf	3,6	;RP1=1, select bank3
  2441  14C2  0818               	movf	(_temperature+3)^(0+384),w
  2442  14C3  1683               	bsf	3,5	;RP0=1, select bank1
  2443  14C4  1303               	bcf	3,6	;RP1=0, select bank1
  2444  14C5  00A7               	movwf	(___flge@ff2+3)^(0+128)
  2445  14C6  1683               	bsf	3,5	;RP0=1, select bank3
  2446  14C7  1703               	bsf	3,6	;RP1=1, select bank3
  2447  14C8  0817               	movf	(_temperature+2)^(0+384),w
  2448  14C9  1683               	bsf	3,5	;RP0=1, select bank1
  2449  14CA  1303               	bcf	3,6	;RP1=0, select bank1
  2450  14CB  00A6               	movwf	(___flge@ff2+2)^(0+128)
  2451  14CC  1683               	bsf	3,5	;RP0=1, select bank3
  2452  14CD  1703               	bsf	3,6	;RP1=1, select bank3
  2453  14CE  0816               	movf	(_temperature+1)^(0+384),w
  2454  14CF  1683               	bsf	3,5	;RP0=1, select bank1
  2455  14D0  1303               	bcf	3,6	;RP1=0, select bank1
  2456  14D1  00A5               	movwf	(___flge@ff2+1)^(0+128)
  2457  14D2  1683               	bsf	3,5	;RP0=1, select bank3
  2458  14D3  1703               	bsf	3,6	;RP1=1, select bank3
  2459  14D4  0815               	movf	_temperature^(0+384),w
  2460  14D5  1683               	bsf	3,5	;RP0=1, select bank1
  2461  14D6  1303               	bcf	3,6	;RP1=0, select bank1
  2462  14D7  00A4               	movwf	___flge@ff2^(0+128)
  2463  14D8  160A  118A  25DF  160A  118A  	fcall	___flge
  2464  14DD  1803               	btfsc	3,0
  2465  14DE  2CE0               	goto	u6461
  2466  14DF  2CE1               	goto	u6460
  2467  14E0                     u6461:
  2468  14E0  2CEB               	goto	l4357
  2469  14E1                     u6460:
  2470  14E1                     l4353:
  2471                           
  2472                           ;main.c: 461:         {;main.c: 462:             dutyCooler = 200;
  2473  14E1  30C8               	movlw	200
  2474  14E2  1283               	bcf	3,5	;RP0=0, select bank0
  2475  14E3  1303               	bcf	3,6	;RP1=0, select bank0
  2476  14E4  00ED               	movwf	??_ManageTemperature
  2477  14E5  086D               	movf	??_ManageTemperature,w
  2478  14E6  1683               	bsf	3,5	;RP0=1, select bank1
  2479  14E7  1303               	bcf	3,6	;RP1=0, select bank1
  2480  14E8  00DE               	movwf	_dutyCooler^(0+128)
  2481  14E9                     l4355:
  2482                           
  2483                           ;main.c: 463:             dutyHeater = 0;
  2484  14E9  01DF               	clrf	_dutyHeater^(0+128)
  2485                           
  2486                           ;main.c: 464:         }
  2487  14EA  2CEF               	goto	l299
  2488  14EB                     l4357:
  2489                           
  2490                           ;main.c: 466:         {;main.c: 467:             dutyHeater = 0;
  2491  14EB  1683               	bsf	3,5	;RP0=1, select bank1
  2492  14EC  1303               	bcf	3,6	;RP1=0, select bank1
  2493  14ED  01DF               	clrf	_dutyHeater^(0+128)
  2494                           
  2495                           ;main.c: 468:             dutyCooler = 0;
  2496  14EE  01DE               	clrf	_dutyCooler^(0+128)
  2497  14EF                     l299:
  2498  14EF  0008               	return
  2499  14F0                     __end_of_ManageTemperature:
  2500                           
  2501                           	psect	text8
  2502  1CD7                     __ptext8:	
  2503 ;; *************** function _ManageReceivedPacket *****************
  2504 ;; Defined at:
  2505 ;;		line 763 in file "main.c"
  2506 ;; Parameters:    Size  Location     Type
  2507 ;;		None
  2508 ;; Auto vars:     Size  Location     Type
  2509 ;;		None
  2510 ;; Return value:  Size  Location     Type
  2511 ;;                  1    wreg      void 
  2512 ;; Registers used:
  2513 ;;		wreg, fsr0l, fsr0h, status,2, status,0, btemp+1, pclath, cstack
  2514 ;; Tracked objects:
  2515 ;;		On entry : 0/0
  2516 ;;		On exit  : 0/0
  2517 ;;		Unchanged: 0/0
  2518 ;; Data sizes:     COMMON   BANK0   BANK1   BANK3   BANK2
  2519 ;;      Params:         0       0       0       0       0
  2520 ;;      Locals:         0       0       0       0       0
  2521 ;;      Temps:          0       1       0       0       0
  2522 ;;      Totals:         0       1       0       0       0
  2523 ;;Total ram usage:        1 bytes
  2524 ;; Hardware stack levels used: 1
  2525 ;; Hardware stack levels required when called: 5
  2526 ;; This function calls:
  2527 ;;		_HandleRequest
  2528 ;; This function is called by:
  2529 ;;		_main
  2530 ;; This function uses a non-reentrant model
  2531 ;;
  2532                           
  2533                           
  2534                           ;psect for function _ManageReceivedPacket
  2535  1CD7                     _ManageReceivedPacket:
  2536  1CD7                     l4359:	
  2537                           ;incstack = 0
  2538                           ; Regs used in _ManageReceivedPacket: [wreg-fsr0h+status,2+status,0+btemp+1+pclath+cstac
      +                          k]
  2539                           
  2540                           
  2541                           ;main.c: 765:     if(alarmOn)
  2542  1CD7  1683               	bsf	3,5	;RP0=1, select bank1
  2543  1CD8  1303               	bcf	3,6	;RP1=0, select bank1
  2544  1CD9  0856               	movf	_alarmOn^(0+128),w
  2545  1CDA  1903               	btfsc	3,2
  2546  1CDB  2CDD               	goto	u6471
  2547  1CDC  2CDE               	goto	u6470
  2548  1CDD                     u6471:
  2549  1CDD  2CE3               	goto	l4365
  2550  1CDE                     u6470:
  2551  1CDE                     l4361:
  2552                           
  2553                           ;main.c: 766:     {;main.c: 767:         TRISD = 0x00;
  2554  1CDE  0188               	clrf	8	;volatile
  2555  1CDF                     l4363:
  2556                           
  2557                           ;main.c: 768:         PORTD = 0XFF;
  2558  1CDF  30FF               	movlw	255
  2559  1CE0  1283               	bcf	3,5	;RP0=0, select bank0
  2560  1CE1  1303               	bcf	3,6	;RP1=0, select bank0
  2561  1CE2  0088               	movwf	8	;volatile
  2562  1CE3                     l4365:
  2563                           
  2564                           ;main.c: 770:     if(!alarmOn)
  2565  1CE3  1683               	bsf	3,5	;RP0=1, select bank1
  2566  1CE4  1303               	bcf	3,6	;RP1=0, select bank1
  2567  1CE5  0856               	movf	_alarmOn^(0+128),w
  2568  1CE6  1D03               	btfss	3,2
  2569  1CE7  2CE9               	goto	u6481
  2570  1CE8  2CEA               	goto	u6480
  2571  1CE9                     u6481:
  2572  1CE9  2CEE               	goto	l4369
  2573  1CEA                     u6480:
  2574  1CEA                     l4367:
  2575                           
  2576                           ;main.c: 771:     {;main.c: 772:        TRISD = 0x00;
  2577  1CEA  0188               	clrf	8	;volatile
  2578                           
  2579                           ;main.c: 773:        PORTD = 0X00;
  2580  1CEB  1283               	bcf	3,5	;RP0=0, select bank0
  2581  1CEC  1303               	bcf	3,6	;RP1=0, select bank0
  2582  1CED  0188               	clrf	8	;volatile
  2583  1CEE                     l4369:
  2584                           
  2585                           ;main.c: 775:     if(flagsSerial & 1<<0x01)
  2586  1CEE  1683               	bsf	3,5	;RP0=1, select bank1
  2587  1CEF  1303               	bcf	3,6	;RP1=0, select bank1
  2588  1CF0  1CE3               	btfss	_flagsSerial^(0+128),1
  2589  1CF1  2CF3               	goto	u6491
  2590  1CF2  2CF4               	goto	u6490
  2591  1CF3                     u6491:
  2592  1CF3  2D29               	goto	l427
  2593  1CF4                     u6490:
  2594  1CF4                     l4371:
  2595                           
  2596                           ;main.c: 776:     {;main.c: 777:         flagsSerial &= ~(1<<0x01);
  2597  1CF4  30FD               	movlw	253
  2598  1CF5  1283               	bcf	3,5	;RP0=0, select bank0
  2599  1CF6  1303               	bcf	3,6	;RP1=0, select bank0
  2600  1CF7  00EE               	movwf	??_ManageReceivedPacket
  2601  1CF8  086E               	movf	??_ManageReceivedPacket,w
  2602  1CF9  1683               	bsf	3,5	;RP0=1, select bank1
  2603  1CFA  1303               	bcf	3,6	;RP1=0, select bank1
  2604  1CFB  05E3               	andwf	_flagsSerial^(0+128),f
  2605                           
  2606                           ;main.c: 779:         if(receivedData == 0xFF)
  2607  1CFC  0A55               	incf	_receivedData^(0+128),w
  2608  1CFD  1D03               	btfss	3,2
  2609  1CFE  2D00               	goto	u6501
  2610  1CFF  2D01               	goto	u6500
  2611  1D00                     u6501:
  2612  1D00  2D02               	goto	l4375
  2613  1D01                     u6500:
  2614  1D01                     l4373:
  2615                           
  2616                           ;main.c: 780:         {;main.c: 781:             partCounter = 0;
  2617  1D01  01D2               	clrf	_partCounter^(0+128)
  2618  1D02                     l4375:
  2619                           
  2620                           ;main.c: 783:         if(receivedData == 0xFE)
  2621  1D02  30FE               	movlw	254
  2622  1D03  0655               	xorwf	_receivedData^(0+128),w
  2623  1D04  1D03               	btfss	3,2
  2624  1D05  2D07               	goto	u6511
  2625  1D06  2D08               	goto	u6510
  2626  1D07                     u6511:
  2627  1D07  2D0D               	goto	l4379
  2628  1D08                     u6510:
  2629  1D08                     l4377:
  2630                           
  2631                           ;main.c: 784:         {;main.c: 785:             HandleRequest();
  2632  1D08  120A  118A  267D  160A  158A  	fcall	_HandleRequest
  2633  1D0D                     l4379:
  2634                           
  2635                           ;main.c: 787:         if(!(partCounter >= 5))
  2636  1D0D  3005               	movlw	5
  2637  1D0E  1683               	bsf	3,5	;RP0=1, select bank1
  2638  1D0F  1303               	bcf	3,6	;RP1=0, select bank1
  2639  1D10  0252               	subwf	_partCounter^(0+128),w
  2640  1D11  1803               	skipnc
  2641  1D12  2D14               	goto	u6521
  2642  1D13  2D15               	goto	u6520
  2643  1D14                     u6521:
  2644  1D14  2D29               	goto	l427
  2645  1D15                     u6520:
  2646  1D15                     l4381:
  2647                           
  2648                           ;main.c: 788:         {;main.c: 789:             dataPacketRx[partCounter] = receivedDat
      +                          a;
  2649  1D15  0855               	movf	_receivedData^(0+128),w
  2650  1D16  1283               	bcf	3,5	;RP0=0, select bank0
  2651  1D17  1303               	bcf	3,6	;RP1=0, select bank0
  2652  1D18  00EE               	movwf	??_ManageReceivedPacket
  2653  1D19  1683               	bsf	3,5	;RP0=1, select bank1
  2654  1D1A  1303               	bcf	3,6	;RP1=0, select bank1
  2655  1D1B  0852               	movf	_partCounter^(0+128),w
  2656  1D1C  3E90               	addlw	(low (_dataPacketRx| (0+256)))& (0+255)
  2657  1D1D  0084               	movwf	4
  2658  1D1E  1283               	bcf	3,5	;RP0=0, select bank0
  2659  1D1F  1303               	bcf	3,6	;RP1=0, select bank0
  2660  1D20  086E               	movf	??_ManageReceivedPacket,w
  2661  1D21  1783               	bsf	3,7	;select IRP bank3
  2662  1D22  0080               	movwf	0
  2663  1D23                     l4383:
  2664                           
  2665                           ;main.c: 790:             partCounter ++;
  2666  1D23  3001               	movlw	1
  2667  1D24  00EE               	movwf	??_ManageReceivedPacket
  2668  1D25  086E               	movf	??_ManageReceivedPacket,w
  2669  1D26  1683               	bsf	3,5	;RP0=1, select bank1
  2670  1D27  1303               	bcf	3,6	;RP1=0, select bank1
  2671  1D28  07D2               	addwf	_partCounter^(0+128),f
  2672  1D29                     l427:
  2673  1D29  0008               	return
  2674  1D2A                     __end_of_ManageReceivedPacket:
  2675                           
  2676                           	psect	text9
  2677  067D                     __ptext9:	
  2678 ;; *************** function _HandleRequest *****************
  2679 ;; Defined at:
  2680 ;;		line 716 in file "main.c"
  2681 ;; Parameters:    Size  Location     Type
  2682 ;;		None
  2683 ;; Auto vars:     Size  Location     Type
  2684 ;;		None
  2685 ;; Return value:  Size  Location     Type
  2686 ;;                  1    wreg      void 
  2687 ;; Registers used:
  2688 ;;		wreg, fsr0l, fsr0h, status,2, status,0, btemp+1, pclath, cstack
  2689 ;; Tracked objects:
  2690 ;;		On entry : 0/0
  2691 ;;		On exit  : 0/0
  2692 ;;		Unchanged: 0/0
  2693 ;; Data sizes:     COMMON   BANK0   BANK1   BANK3   BANK2
  2694 ;;      Params:         0       0       0       0       0
  2695 ;;      Locals:         0       0       0       0       0
  2696 ;;      Temps:          0       0       0       8       0
  2697 ;;      Totals:         0       0       0       8       0
  2698 ;;Total ram usage:        8 bytes
  2699 ;; Hardware stack levels used: 1
  2700 ;; Hardware stack levels required when called: 4
  2701 ;; This function calls:
  2702 ;;		_PrepareBoolDataPacket
  2703 ;;		_PrepareTempHumDataPacket
  2704 ;;		_UART_TxBoolDataPacket
  2705 ;;		_UART_TxTempHumDataPacket
  2706 ;;		_UpdateLCDViewWithNumber
  2707 ;;		___fladd
  2708 ;;		___flmul
  2709 ;;		___xxtofl
  2710 ;; This function is called by:
  2711 ;;		_ManageReceivedPacket
  2712 ;; This function uses a non-reentrant model
  2713 ;;
  2714                           
  2715                           
  2716                           ;psect for function _HandleRequest
  2717  067D                     _HandleRequest:
  2718  067D                     l4135:	
  2719                           ;incstack = 0
  2720                           ; Regs used in _HandleRequest: [wreg-fsr0h+status,2+status,0+btemp+1+pclath+cstack]
  2721                           
  2722                           
  2723                           ;main.c: 718:     if(dataPacketRx[1] == 0x23)
  2724  067D  3023               	movlw	35
  2725  067E  1683               	bsf	3,5	;RP0=1, select bank3
  2726  067F  1703               	bsf	3,6	;RP1=1, select bank3
  2727  0680  0611               	xorwf	(_dataPacketRx^(0+384)+1),w
  2728  0681  1D03               	btfss	3,2
  2729  0682  2E84               	goto	u6041
  2730  0683  2E85               	goto	u6040
  2731  0684                     u6041:
  2732  0684  2EAF               	goto	l4151
  2733  0685                     u6040:
  2734  0685                     l4137:
  2735                           
  2736                           ;main.c: 719:     {;main.c: 720:         if(dataPacketRx[2] == 0x40)
  2737  0685  3040               	movlw	64
  2738  0686  0612               	xorwf	(_dataPacketRx^(0+384)+2),w
  2739  0687  1D03               	btfss	3,2
  2740  0688  2E8A               	goto	u6051
  2741  0689  2E8B               	goto	u6050
  2742  068A                     u6051:
  2743  068A  2EAF               	goto	l4151
  2744  068B                     u6050:
  2745  068B                     l4139:
  2746                           
  2747                           ;main.c: 721:         {;main.c: 722:             flagsSerial |= 0x08;
  2748  068B  1683               	bsf	3,5	;RP0=1, select bank1
  2749  068C  1303               	bcf	3,6	;RP1=0, select bank1
  2750  068D  15E3               	bsf	_flagsSerial^(0+128),3
  2751  068E                     l4141:	
  2752                           ;main.c: 723:             while(addressTransmissionCounter < (1 * 10));
  2753                           
  2754  068E  3000               	movlw	0
  2755  068F  1683               	bsf	3,5	;RP0=1, select bank3
  2756  0690  1703               	bsf	3,6	;RP1=1, select bank3
  2757  0691  021A               	subwf	(_addressTransmissionCounter+1)^(0+384),w
  2758  0692  300A               	movlw	10
  2759  0693  1903               	skipnz
  2760  0694  0219               	subwf	_addressTransmissionCounter^(0+384),w
  2761  0695  1C03               	skipc
  2762  0696  2E98               	goto	u6061
  2763  0697  2E99               	goto	u6060
  2764  0698                     u6061:
  2765  0698  2E8E               	goto	l4141
  2766  0699                     u6060:
  2767  0699                     l4143:
  2768                           
  2769                           ;main.c: 724:             addressTransmissionCounter = 0;
  2770  0699  0199               	clrf	_addressTransmissionCounter^(0+384)
  2771  069A  019A               	clrf	(_addressTransmissionCounter+1)^(0+384)
  2772  069B                     l4145:
  2773                           
  2774                           ;main.c: 725:             flagsSerial &= ~0x08;
  2775  069B  30F7               	movlw	247
  2776  069C  00CC               	movwf	??_HandleRequest^(0+384)
  2777  069D  084C               	movf	??_HandleRequest^(0+384),w
  2778  069E  1683               	bsf	3,5	;RP0=1, select bank1
  2779  069F  1303               	bcf	3,6	;RP1=0, select bank1
  2780  06A0  05E3               	andwf	_flagsSerial^(0+128),f
  2781  06A1                     l4147:
  2782                           
  2783                           ;main.c: 726:             PrepareBoolDataPacket(0x40,0x01);
  2784  06A1  01F3               	clrf	PrepareBoolDataPacket@state
  2785  06A2  0AF3               	incf	PrepareBoolDataPacket@state,f
  2786  06A3  3040               	movlw	64
  2787  06A4  160A  158A  2275  120A  118A  	fcall	_PrepareBoolDataPacket
  2788  06A9                     l4149:
  2789                           
  2790                           ;main.c: 727:             UART_TxBoolDataPacket(boolDataPacketTx);
  2791  06A9  30B9               	movlw	(low (_boolDataPacketTx| (0+256)))& (0+255)
  2792  06AA  160A  158A  2588  120A  118A  	fcall	_UART_TxBoolDataPacket
  2793  06AF                     l4151:
  2794                           
  2795                           ;main.c: 730:     if(dataPacketRx[1] != 1)
  2796  06AF  1683               	bsf	3,5	;RP0=1, select bank3
  2797  06B0  1703               	bsf	3,6	;RP1=1, select bank3
  2798  06B1  0311               	decf	(_dataPacketRx^(0+384)+1),w
  2799  06B2  1903               	btfsc	3,2
  2800  06B3  2EB5               	goto	u6071
  2801  06B4  2EB6               	goto	u6070
  2802  06B5                     u6071:
  2803  06B5  2EB7               	goto	l4157
  2804  06B6                     u6070:
  2805  06B6  2FCB               	goto	l412
  2806  06B7                     l4157:
  2807                           
  2808                           ;main.c: 735:     {;main.c: 736:         if(dataPacketRx[2] == 0x01)
  2809  06B7  0312               	decf	(_dataPacketRx^(0+384)+2),w
  2810  06B8  1D03               	btfss	3,2
  2811  06B9  2EBB               	goto	u6081
  2812  06BA  2EBC               	goto	u6080
  2813  06BB                     u6081:
  2814  06BB  2EF5               	goto	l4163
  2815  06BC                     u6080:
  2816  06BC                     l4159:
  2817                           
  2818                           ;main.c: 737:         {;main.c: 739:             PrepareTempHumDataPacket(temperature, h
      +                          umidity);
  2819  06BC  0818               	movf	(_temperature+3)^(0+384),w
  2820  06BD  1683               	bsf	3,5	;RP0=1, select bank1
  2821  06BE  1303               	bcf	3,6	;RP1=0, select bank1
  2822  06BF  00C0               	movwf	(PrepareTempHumDataPacket@temp+3)^(0+128)
  2823  06C0  1683               	bsf	3,5	;RP0=1, select bank3
  2824  06C1  1703               	bsf	3,6	;RP1=1, select bank3
  2825  06C2  0817               	movf	(_temperature+2)^(0+384),w
  2826  06C3  1683               	bsf	3,5	;RP0=1, select bank1
  2827  06C4  1303               	bcf	3,6	;RP1=0, select bank1
  2828  06C5  00BF               	movwf	(PrepareTempHumDataPacket@temp+2)^(0+128)
  2829  06C6  1683               	bsf	3,5	;RP0=1, select bank3
  2830  06C7  1703               	bsf	3,6	;RP1=1, select bank3
  2831  06C8  0816               	movf	(_temperature+1)^(0+384),w
  2832  06C9  1683               	bsf	3,5	;RP0=1, select bank1
  2833  06CA  1303               	bcf	3,6	;RP1=0, select bank1
  2834  06CB  00BE               	movwf	(PrepareTempHumDataPacket@temp+1)^(0+128)
  2835  06CC  1683               	bsf	3,5	;RP0=1, select bank3
  2836  06CD  1703               	bsf	3,6	;RP1=1, select bank3
  2837  06CE  0815               	movf	_temperature^(0+384),w
  2838  06CF  1683               	bsf	3,5	;RP0=1, select bank1
  2839  06D0  1303               	bcf	3,6	;RP1=0, select bank1
  2840  06D1  00BD               	movwf	PrepareTempHumDataPacket@temp^(0+128)
  2841  06D2  1683               	bsf	3,5	;RP0=1, select bank3
  2842  06D3  1703               	bsf	3,6	;RP1=1, select bank3
  2843  06D4  0845               	movf	(_humidity+3)^(0+384),w
  2844  06D5  1683               	bsf	3,5	;RP0=1, select bank1
  2845  06D6  1303               	bcf	3,6	;RP1=0, select bank1
  2846  06D7  00C4               	movwf	(PrepareTempHumDataPacket@hum+3)^(0+128)
  2847  06D8  1683               	bsf	3,5	;RP0=1, select bank3
  2848  06D9  1703               	bsf	3,6	;RP1=1, select bank3
  2849  06DA  0844               	movf	(_humidity+2)^(0+384),w
  2850  06DB  1683               	bsf	3,5	;RP0=1, select bank1
  2851  06DC  1303               	bcf	3,6	;RP1=0, select bank1
  2852  06DD  00C3               	movwf	(PrepareTempHumDataPacket@hum+2)^(0+128)
  2853  06DE  1683               	bsf	3,5	;RP0=1, select bank3
  2854  06DF  1703               	bsf	3,6	;RP1=1, select bank3
  2855  06E0  0843               	movf	(_humidity+1)^(0+384),w
  2856  06E1  1683               	bsf	3,5	;RP0=1, select bank1
  2857  06E2  1303               	bcf	3,6	;RP1=0, select bank1
  2858  06E3  00C2               	movwf	(PrepareTempHumDataPacket@hum+1)^(0+128)
  2859  06E4  1683               	bsf	3,5	;RP0=1, select bank3
  2860  06E5  1703               	bsf	3,6	;RP1=1, select bank3
  2861  06E6  0842               	movf	_humidity^(0+384),w
  2862  06E7  1683               	bsf	3,5	;RP0=1, select bank1
  2863  06E8  1303               	bcf	3,6	;RP1=0, select bank1
  2864  06E9  00C1               	movwf	PrepareTempHumDataPacket@hum^(0+128)
  2865  06EA  120A  118A  23A5  120A  118A  	fcall	_PrepareTempHumDataPacket
  2866  06EF                     l4161:
  2867                           
  2868                           ;main.c: 740:             UART_TxTempHumDataPacket(tempHumDataPacketTx);
  2869  06EF  30AB               	movlw	(low (_tempHumDataPacketTx| (0+256)))& (0+255)
  2870  06F0  160A  158A  26B4  120A  118A  	fcall	_UART_TxTempHumDataPacket
  2871  06F5                     l4163:
  2872                           
  2873                           ;main.c: 742:         if(dataPacketRx[2] == 0x20)
  2874  06F5  3020               	movlw	32
  2875  06F6  1683               	bsf	3,5	;RP0=1, select bank3
  2876  06F7  1703               	bsf	3,6	;RP1=1, select bank3
  2877  06F8  0612               	xorwf	(_dataPacketRx^(0+384)+2),w
  2878  06F9  1D03               	btfss	3,2
  2879  06FA  2EFC               	goto	u6091
  2880  06FB  2EFD               	goto	u6090
  2881  06FC                     u6091:
  2882  06FC  2F15               	goto	l4171
  2883  06FD                     u6090:
  2884  06FD                     l4165:
  2885                           
  2886                           ;main.c: 743:         {;main.c: 745:             alarmOn = dataPacketRx[3];
  2887  06FD  0813               	movf	(_dataPacketRx^(0+384)+3),w
  2888  06FE  00CC               	movwf	??_HandleRequest^(0+384)
  2889  06FF  084C               	movf	??_HandleRequest^(0+384),w
  2890  0700  1683               	bsf	3,5	;RP0=1, select bank1
  2891  0701  1303               	bcf	3,6	;RP1=0, select bank1
  2892  0702  00D6               	movwf	_alarmOn^(0+128)
  2893  0703                     l4167:
  2894                           
  2895                           ;main.c: 747:             PrepareBoolDataPacket(0x20,alarmOn);
  2896  0703  0856               	movf	_alarmOn^(0+128),w
  2897  0704  1683               	bsf	3,5	;RP0=1, select bank3
  2898  0705  1703               	bsf	3,6	;RP1=1, select bank3
  2899  0706  00CC               	movwf	??_HandleRequest^(0+384)
  2900  0707  084C               	movf	??_HandleRequest^(0+384),w
  2901  0708  00F3               	movwf	PrepareBoolDataPacket@state
  2902  0709  3020               	movlw	32
  2903  070A  160A  158A  2275  120A  118A  	fcall	_PrepareBoolDataPacket
  2904  070F                     l4169:
  2905                           
  2906                           ;main.c: 748:             UART_TxBoolDataPacket(boolDataPacketTx);
  2907  070F  30B9               	movlw	(low (_boolDataPacketTx| (0+256)))& (0+255)
  2908  0710  160A  158A  2588  120A  118A  	fcall	_UART_TxBoolDataPacket
  2909  0715                     l4171:
  2910                           
  2911                           ;main.c: 750:         if(dataPacketRx[2] == 0x04)
  2912  0715  3004               	movlw	4
  2913  0716  1683               	bsf	3,5	;RP0=1, select bank3
  2914  0717  1703               	bsf	3,6	;RP1=1, select bank3
  2915  0718  0612               	xorwf	(_dataPacketRx^(0+384)+2),w
  2916  0719  1D03               	btfss	3,2
  2917  071A  2F1C               	goto	u6101
  2918  071B  2F1D               	goto	u6100
  2919  071C                     u6101:
  2920  071C  2FBD               	goto	l4179
  2921  071D                     u6100:
  2922  071D                     l4173:
  2923                           
  2924                           ;main.c: 751:         {;main.c: 752:             setTemp = (float)(dataPacketRx[3] + dat
      +                          aPacketRx[4]*0.1);
  2925  071D  0814               	movf	(_dataPacketRx^(0+384)+4),w
  2926  071E  00CC               	movwf	??_HandleRequest^(0+384)
  2927  071F  01CD               	clrf	(??_HandleRequest^(0+384)+1)
  2928  0720  01CE               	clrf	(??_HandleRequest^(0+384)+2)
  2929  0721  01CF               	clrf	(??_HandleRequest^(0+384)+3)
  2930  0722  084F               	movf	(??_HandleRequest+3)^(0+384),w
  2931  0723  1283               	bcf	3,5	;RP0=0, select bank0
  2932  0724  1303               	bcf	3,6	;RP1=0, select bank0
  2933  0725  00A5               	movwf	___xxtofl@val+3
  2934  0726  1683               	bsf	3,5	;RP0=1, select bank3
  2935  0727  1703               	bsf	3,6	;RP1=1, select bank3
  2936  0728  084E               	movf	(??_HandleRequest+2)^(0+384),w
  2937  0729  1283               	bcf	3,5	;RP0=0, select bank0
  2938  072A  1303               	bcf	3,6	;RP1=0, select bank0
  2939  072B  00A4               	movwf	___xxtofl@val+2
  2940  072C  1683               	bsf	3,5	;RP0=1, select bank3
  2941  072D  1703               	bsf	3,6	;RP1=1, select bank3
  2942  072E  084D               	movf	(??_HandleRequest+1)^(0+384),w
  2943  072F  1283               	bcf	3,5	;RP0=0, select bank0
  2944  0730  1303               	bcf	3,6	;RP1=0, select bank0
  2945  0731  00A3               	movwf	___xxtofl@val+1
  2946  0732  1683               	bsf	3,5	;RP0=1, select bank3
  2947  0733  1703               	bsf	3,6	;RP1=1, select bank3
  2948  0734  084C               	movf	??_HandleRequest^(0+384),w
  2949  0735  1283               	bcf	3,5	;RP0=0, select bank0
  2950  0736  1303               	bcf	3,6	;RP1=0, select bank0
  2951  0737  00A2               	movwf	___xxtofl@val
  2952  0738  3001               	movlw	1
  2953  0739  160A  118A  235B  120A  118A  	fcall	___xxtofl
  2954  073E  1283               	bcf	3,5	;RP0=0, select bank0
  2955  073F  1303               	bcf	3,6	;RP1=0, select bank0
  2956  0740  0825               	movf	?___xxtofl+3,w
  2957  0741  00B7               	movwf	___flmul@a+3
  2958  0742  0824               	movf	?___xxtofl+2,w
  2959  0743  00B6               	movwf	___flmul@a+2
  2960  0744  0823               	movf	?___xxtofl+1,w
  2961  0745  00B5               	movwf	___flmul@a+1
  2962  0746  0822               	movf	?___xxtofl,w
  2963  0747  00B4               	movwf	___flmul@a
  2964  0748  303D               	movlw	61
  2965  0749  00B3               	movwf	___flmul@b+3
  2966  074A  30CC               	movlw	204
  2967  074B  00B2               	movwf	___flmul@b+2
  2968  074C  30CC               	movlw	204
  2969  074D  00B1               	movwf	___flmul@b+1
  2970  074E  30CD               	movlw	205
  2971  074F  00B0               	movwf	___flmul@b
  2972  0750  120A  118A  2044  120A  118A  	fcall	___flmul
  2973  0755  1283               	bcf	3,5	;RP0=0, select bank0
  2974  0756  1303               	bcf	3,6	;RP1=0, select bank0
  2975  0757  0833               	movf	?___flmul+3,w
  2976  0758  00D8               	movwf	___fladd@b+3
  2977  0759  0832               	movf	?___flmul+2,w
  2978  075A  00D7               	movwf	___fladd@b+2
  2979  075B  0831               	movf	?___flmul+1,w
  2980  075C  00D6               	movwf	___fladd@b+1
  2981  075D  0830               	movf	?___flmul,w
  2982  075E  00D5               	movwf	___fladd@b
  2983  075F  1683               	bsf	3,5	;RP0=1, select bank3
  2984  0760  1703               	bsf	3,6	;RP1=1, select bank3
  2985  0761  0813               	movf	(_dataPacketRx^(0+384)+3),w
  2986  0762  00D0               	movwf	(??_HandleRequest+4)^(0+384)
  2987  0763  01D1               	clrf	((??_HandleRequest+4)^(0+384)+1)
  2988  0764  01D2               	clrf	((??_HandleRequest+4)^(0+384)+2)
  2989  0765  01D3               	clrf	((??_HandleRequest+4)^(0+384)+3)
  2990  0766  0853               	movf	(??_HandleRequest+7)^(0+384),w
  2991  0767  1283               	bcf	3,5	;RP0=0, select bank0
  2992  0768  1303               	bcf	3,6	;RP1=0, select bank0
  2993  0769  00A5               	movwf	___xxtofl@val+3
  2994  076A  1683               	bsf	3,5	;RP0=1, select bank3
  2995  076B  1703               	bsf	3,6	;RP1=1, select bank3
  2996  076C  0852               	movf	(??_HandleRequest+6)^(0+384),w
  2997  076D  1283               	bcf	3,5	;RP0=0, select bank0
  2998  076E  1303               	bcf	3,6	;RP1=0, select bank0
  2999  076F  00A4               	movwf	___xxtofl@val+2
  3000  0770  1683               	bsf	3,5	;RP0=1, select bank3
  3001  0771  1703               	bsf	3,6	;RP1=1, select bank3
  3002  0772  0851               	movf	(??_HandleRequest+5)^(0+384),w
  3003  0773  1283               	bcf	3,5	;RP0=0, select bank0
  3004  0774  1303               	bcf	3,6	;RP1=0, select bank0
  3005  0775  00A3               	movwf	___xxtofl@val+1
  3006  0776  1683               	bsf	3,5	;RP0=1, select bank3
  3007  0777  1703               	bsf	3,6	;RP1=1, select bank3
  3008  0778  0850               	movf	(??_HandleRequest+4)^(0+384),w
  3009  0779  1283               	bcf	3,5	;RP0=0, select bank0
  3010  077A  1303               	bcf	3,6	;RP1=0, select bank0
  3011  077B  00A2               	movwf	___xxtofl@val
  3012  077C  3001               	movlw	1
  3013  077D  160A  118A  235B  120A  118A  	fcall	___xxtofl
  3014  0782  1283               	bcf	3,5	;RP0=0, select bank0
  3015  0783  1303               	bcf	3,6	;RP1=0, select bank0
  3016  0784  0825               	movf	?___xxtofl+3,w
  3017  0785  00DC               	movwf	___fladd@a+3
  3018  0786  0824               	movf	?___xxtofl+2,w
  3019  0787  00DB               	movwf	___fladd@a+2
  3020  0788  0823               	movf	?___xxtofl+1,w
  3021  0789  00DA               	movwf	___fladd@a+1
  3022  078A  0822               	movf	?___xxtofl,w
  3023  078B  00D9               	movwf	___fladd@a
  3024  078C  120A  158A  2578  120A  118A  	fcall	___fladd
  3025  0791  1283               	bcf	3,5	;RP0=0, select bank0
  3026  0792  1303               	bcf	3,6	;RP1=0, select bank0
  3027  0793  0858               	movf	?___fladd+3,w
  3028  0794  1683               	bsf	3,5	;RP0=1, select bank1
  3029  0795  1303               	bcf	3,6	;RP1=0, select bank1
  3030  0796  00E7               	movwf	(_setTemp+3)^(0+128)
  3031  0797  1283               	bcf	3,5	;RP0=0, select bank0
  3032  0798  1303               	bcf	3,6	;RP1=0, select bank0
  3033  0799  0857               	movf	?___fladd+2,w
  3034  079A  1683               	bsf	3,5	;RP0=1, select bank1
  3035  079B  1303               	bcf	3,6	;RP1=0, select bank1
  3036  079C  00E6               	movwf	(_setTemp+2)^(0+128)
  3037  079D  1283               	bcf	3,5	;RP0=0, select bank0
  3038  079E  1303               	bcf	3,6	;RP1=0, select bank0
  3039  079F  0856               	movf	?___fladd+1,w
  3040  07A0  1683               	bsf	3,5	;RP0=1, select bank1
  3041  07A1  1303               	bcf	3,6	;RP1=0, select bank1
  3042  07A2  00E5               	movwf	(_setTemp+1)^(0+128)
  3043  07A3  1283               	bcf	3,5	;RP0=0, select bank0
  3044  07A4  1303               	bcf	3,6	;RP1=0, select bank0
  3045  07A5  0855               	movf	?___fladd,w
  3046  07A6  1683               	bsf	3,5	;RP0=1, select bank1
  3047  07A7  1303               	bcf	3,6	;RP1=0, select bank1
  3048  07A8  00E4               	movwf	_setTemp^(0+128)
  3049  07A9                     l4175:
  3050                           
  3051                           ;main.c: 753:             if(currentDisplay == 3)
  3052  07A9  3003               	movlw	3
  3053  07AA  0679               	xorwf	_currentDisplay,w
  3054  07AB  1D03               	btfss	3,2
  3055  07AC  2FAE               	goto	u6111
  3056  07AD  2FAF               	goto	u6110
  3057  07AE                     u6111:
  3058  07AE  2FBD               	goto	l4179
  3059  07AF                     u6110:
  3060  07AF                     l4177:
  3061                           
  3062                           ;main.c: 754:                 UpdateLCDViewWithNumber(0xC6,setTemp);
  3063  07AF  0867               	movf	(_setTemp+3)^(0+128),w
  3064  07B0  00C0               	movwf	(UpdateLCDViewWithNumber@number+3)^(0+128)
  3065  07B1  0866               	movf	(_setTemp+2)^(0+128),w
  3066  07B2  00BF               	movwf	(UpdateLCDViewWithNumber@number+2)^(0+128)
  3067  07B3  0865               	movf	(_setTemp+1)^(0+128),w
  3068  07B4  00BE               	movwf	(UpdateLCDViewWithNumber@number+1)^(0+128)
  3069  07B5  0864               	movf	_setTemp^(0+128),w
  3070  07B6  00BD               	movwf	UpdateLCDViewWithNumber@number^(0+128)
  3071  07B7  30C6               	movlw	198
  3072  07B8  120A  158A  22F3  120A  118A  	fcall	_UpdateLCDViewWithNumber
  3073  07BD                     l4179:
  3074                           
  3075                           ;main.c: 756:         if(dataPacketRx[2] == 0x10)
  3076  07BD  3010               	movlw	16
  3077  07BE  1683               	bsf	3,5	;RP0=1, select bank3
  3078  07BF  1703               	bsf	3,6	;RP1=1, select bank3
  3079  07C0  0612               	xorwf	(_dataPacketRx^(0+384)+2),w
  3080  07C1  1D03               	btfss	3,2
  3081  07C2  2FC4               	goto	u6121
  3082  07C3  2FC5               	goto	u6120
  3083  07C4                     u6121:
  3084  07C4  2FCB               	goto	l412
  3085  07C5                     u6120:
  3086  07C5                     l4181:
  3087                           
  3088                           ;main.c: 757:         {;main.c: 758:             doorOpen = dataPacketRx[3];
  3089  07C5  0813               	movf	(_dataPacketRx^(0+384)+3),w
  3090  07C6  00CC               	movwf	??_HandleRequest^(0+384)
  3091  07C7  084C               	movf	??_HandleRequest^(0+384),w
  3092  07C8  1683               	bsf	3,5	;RP0=1, select bank1
  3093  07C9  1303               	bcf	3,6	;RP1=0, select bank1
  3094  07CA  00D8               	movwf	_doorOpen^(0+128)
  3095  07CB                     l412:
  3096  07CB  0008               	return
  3097  07CC                     __end_of_HandleRequest:
  3098                           
  3099                           	psect	text10
  3100  1EB4                     __ptext10:	
  3101 ;; *************** function _UART_TxTempHumDataPacket *****************
  3102 ;; Defined at:
  3103 ;;		line 604 in file "main.c"
  3104 ;; Parameters:    Size  Location     Type
  3105 ;;  dataPacket      1    wreg     PTR unsigned char 
  3106 ;;		 -> tempHumDataPacketTx(8), 
  3107 ;; Auto vars:     Size  Location     Type
  3108 ;;  dataPacket      1    7[COMMON] PTR unsigned char 
  3109 ;;		 -> tempHumDataPacketTx(8), 
  3110 ;; Return value:  Size  Location     Type
  3111 ;;                  1    wreg      void 
  3112 ;; Registers used:
  3113 ;;		wreg, fsr0l, fsr0h, status,2, status,0, pclath, cstack
  3114 ;; Tracked objects:
  3115 ;;		On entry : 0/0
  3116 ;;		On exit  : 0/0
  3117 ;;		Unchanged: 0/0
  3118 ;; Data sizes:     COMMON   BANK0   BANK1   BANK3   BANK2
  3119 ;;      Params:         0       0       0       0       0
  3120 ;;      Locals:         1       0       0       0       0
  3121 ;;      Temps:          0       2       0       0       0
  3122 ;;      Totals:         1       2       0       0       0
  3123 ;;Total ram usage:        3 bytes
  3124 ;; Hardware stack levels used: 1
  3125 ;; Hardware stack levels required when called: 2
  3126 ;; This function calls:
  3127 ;;		_UART_TxChar
  3128 ;;		___wmul
  3129 ;; This function is called by:
  3130 ;;		_HandleRequest
  3131 ;; This function uses a non-reentrant model
  3132 ;;
  3133                           
  3134                           
  3135                           ;psect for function _UART_TxTempHumDataPacket
  3136  1EB4                     _UART_TxTempHumDataPacket:
  3137                           
  3138                           ;incstack = 0
  3139                           ; Regs used in _UART_TxTempHumDataPacket: [wreg-fsr0h+status,2+status,0+pclath+cstack]
  3140                           ;UART_TxTempHumDataPacket@dataPacket stored from wreg
  3141  1EB4  00F7               	movwf	UART_TxTempHumDataPacket@dataPacket
  3142  1EB5                     l4015:
  3143                           
  3144                           ;main.c: 604: void UART_TxTempHumDataPacket(unsigned char dataPacket[8]);main.c: 605: {;
      +                          main.c: 606:     txAttempts = 0;
  3145  1EB5  01FA               	clrf	_txAttempts
  3146                           
  3147                           ;main.c: 607:     retransmissionCounter = 0;
  3148  1EB6  1683               	bsf	3,5	;RP0=1, select bank3
  3149  1EB7  1703               	bsf	3,6	;RP1=1, select bank3
  3150  1EB8  019B               	clrf	_retransmissionCounter^(0+384)
  3151  1EB9  019C               	clrf	(_retransmissionCounter+1)^(0+384)
  3152                           
  3153                           ;main.c: 611:     while(txAttempts<1)
  3154  1EBA  2F12               	goto	l359
  3155  1EBB                     l360:
  3156                           
  3157                           ;main.c: 612:     {;main.c: 613:         flagsSerial |= 0x04;
  3158  1EBB  1683               	bsf	3,5	;RP0=1, select bank1
  3159  1EBC  1303               	bcf	3,6	;RP1=0, select bank1
  3160  1EBD  1563               	bsf	_flagsSerial^(0+128),2
  3161  1EBE                     l4017:	
  3162                           ;main.c: 615:         while (retransmissionCounter < (txAttempts*1*300));
  3163                           
  3164  1EBE  087A               	movf	_txAttempts,w
  3165  1EBF  1283               	bcf	3,5	;RP0=0, select bank0
  3166  1EC0  1303               	bcf	3,6	;RP1=0, select bank0
  3167  1EC1  00A2               	movwf	??_UART_TxTempHumDataPacket
  3168  1EC2  01A3               	clrf	??_UART_TxTempHumDataPacket+1
  3169  1EC3  0822               	movf	??_UART_TxTempHumDataPacket,w
  3170  1EC4  00F3               	movwf	___wmul@multiplier
  3171  1EC5  0823               	movf	??_UART_TxTempHumDataPacket+1,w
  3172  1EC6  00F4               	movwf	___wmul@multiplier+1
  3173  1EC7  302C               	movlw	44
  3174  1EC8  00F5               	movwf	___wmul@multiplicand
  3175  1EC9  3001               	movlw	1
  3176  1ECA  00F6               	movwf	___wmul@multiplicand+1
  3177  1ECB  160A  158A  22DC  160A  158A  	fcall	___wmul
  3178  1ED0  0874               	movf	?___wmul+1,w
  3179  1ED1  1683               	bsf	3,5	;RP0=1, select bank3
  3180  1ED2  1703               	bsf	3,6	;RP1=1, select bank3
  3181  1ED3  021C               	subwf	(_retransmissionCounter+1)^(0+384),w
  3182  1ED4  1D03               	skipz
  3183  1ED5  2ED8               	goto	u5855
  3184  1ED6  0873               	movf	?___wmul,w
  3185  1ED7  021B               	subwf	_retransmissionCounter^(0+384),w
  3186  1ED8                     u5855:
  3187  1ED8  1C03               	skipc
  3188  1ED9  2EDB               	goto	u5851
  3189  1EDA  2EDC               	goto	u5850
  3190  1EDB                     u5851:
  3191  1EDB  2EBE               	goto	l4017
  3192  1EDC                     u5850:
  3193  1EDC                     l4019:
  3194                           
  3195                           ;main.c: 616:         retransmissionCounter = 0;
  3196  1EDC  019B               	clrf	_retransmissionCounter^(0+384)
  3197  1EDD  019C               	clrf	(_retransmissionCounter+1)^(0+384)
  3198  1EDE                     l4021:
  3199                           
  3200                           ;main.c: 617:         flagsSerial &= ~0x04;
  3201  1EDE  30FB               	movlw	251
  3202  1EDF  1283               	bcf	3,5	;RP0=0, select bank0
  3203  1EE0  1303               	bcf	3,6	;RP1=0, select bank0
  3204  1EE1  00A2               	movwf	??_UART_TxTempHumDataPacket
  3205  1EE2  0822               	movf	??_UART_TxTempHumDataPacket,w
  3206  1EE3  1683               	bsf	3,5	;RP0=1, select bank1
  3207  1EE4  1303               	bcf	3,6	;RP1=0, select bank1
  3208  1EE5  05E3               	andwf	_flagsSerial^(0+128),f
  3209  1EE6                     l4023:
  3210                           
  3211                           ;main.c: 618:         txSuccess = 1;
  3212  1EE6  01E8               	clrf	_txSuccess^(0+128)
  3213  1EE7  0AE8               	incf	_txSuccess^(0+128),f
  3214  1EE8                     l4025:
  3215                           
  3216                           ;main.c: 619:         for(i=0;i<8;i++)
  3217  1EE8  01F8               	clrf	_i
  3218  1EE9                     l4027:
  3219  1EE9  3008               	movlw	8
  3220  1EEA  0278               	subwf	_i,w
  3221  1EEB  1C03               	skipc
  3222  1EEC  2EEE               	goto	u5861
  3223  1EED  2EEF               	goto	u5860
  3224  1EEE                     u5861:
  3225  1EEE  2EF0               	goto	l4031
  3226  1EEF                     u5860:
  3227  1EEF  2F04               	goto	l4037
  3228  1EF0                     l4031:
  3229                           
  3230                           ;main.c: 620:         {;main.c: 621:             UART_TxChar(dataPacket[i]);
  3231  1EF0  0878               	movf	_i,w
  3232  1EF1  0777               	addwf	UART_TxTempHumDataPacket@dataPacket,w
  3233  1EF2  1283               	bcf	3,5	;RP0=0, select bank0
  3234  1EF3  00A2               	movwf	??_UART_TxTempHumDataPacket
  3235  1EF4  0822               	movf	??_UART_TxTempHumDataPacket,w
  3236  1EF5  0084               	movwf	4
  3237  1EF6  1783               	bsf	3,7	;select IRP bank2
  3238  1EF7  0800               	movf	0,w
  3239  1EF8  120A  118A  27CC  160A  158A  	fcall	_UART_TxChar
  3240  1EFD                     l4033:
  3241                           
  3242                           ;main.c: 622:         }
  3243  1EFD  3001               	movlw	1
  3244  1EFE  1283               	bcf	3,5	;RP0=0, select bank0
  3245  1EFF  1303               	bcf	3,6	;RP1=0, select bank0
  3246  1F00  00A2               	movwf	??_UART_TxTempHumDataPacket
  3247  1F01  0822               	movf	??_UART_TxTempHumDataPacket,w
  3248  1F02  07F8               	addwf	_i,f
  3249  1F03  2EE9               	goto	l4027
  3250  1F04                     l4037:
  3251                           
  3252                           ;main.c: 623:         if(txSuccess) break;
  3253  1F04  1683               	bsf	3,5	;RP0=1, select bank1
  3254  1F05  1303               	bcf	3,6	;RP1=0, select bank1
  3255  1F06  0868               	movf	_txSuccess^(0+128),w
  3256  1F07  1903               	btfsc	3,2
  3257  1F08  2F0A               	goto	u5871
  3258  1F09  2F0B               	goto	u5870
  3259  1F0A                     u5871:
  3260  1F0A  2F0C               	goto	l4041
  3261  1F0B                     u5870:
  3262  1F0B  2F17               	goto	l368
  3263  1F0C                     l4041:
  3264                           
  3265                           ;main.c: 624:         txAttempts++;
  3266  1F0C  3001               	movlw	1
  3267  1F0D  1283               	bcf	3,5	;RP0=0, select bank0
  3268  1F0E  1303               	bcf	3,6	;RP1=0, select bank0
  3269  1F0F  00A2               	movwf	??_UART_TxTempHumDataPacket
  3270  1F10  0822               	movf	??_UART_TxTempHumDataPacket,w
  3271  1F11  07FA               	addwf	_txAttempts,f
  3272  1F12                     l359:	
  3273                           ;main.c: 625:     }
  3274                           
  3275                           
  3276                           ;main.c: 611:     while(txAttempts<1)
  3277  1F12  087A               	movf	_txAttempts,w
  3278  1F13  1903               	btfsc	3,2
  3279  1F14  2F16               	goto	u5881
  3280  1F15  2F17               	goto	u5880
  3281  1F16                     u5881:
  3282  1F16  2EBB               	goto	l360
  3283  1F17                     u5880:
  3284  1F17                     l368:
  3285  1F17  0008               	return
  3286  1F18                     __end_of_UART_TxTempHumDataPacket:
  3287                           
  3288                           	psect	text11
  3289  03A5                     __ptext11:	
  3290 ;; *************** function _PrepareTempHumDataPacket *****************
  3291 ;; Defined at:
  3292 ;;		line 676 in file "main.c"
  3293 ;; Parameters:    Size  Location     Type
  3294 ;;  temp            4   29[BANK1 ] float 
  3295 ;;  hum             4   33[BANK1 ] float 
  3296 ;; Auto vars:     Size  Location     Type
  3297 ;;  decimal         4   41[BANK1 ] float 
  3298 ;; Return value:  Size  Location     Type
  3299 ;;                  1    wreg      void 
  3300 ;; Registers used:
  3301 ;;		wreg, status,2, status,0, btemp+1, pclath, cstack
  3302 ;; Tracked objects:
  3303 ;;		On entry : 0/0
  3304 ;;		On exit  : 0/0
  3305 ;;		Unchanged: 0/0
  3306 ;; Data sizes:     COMMON   BANK0   BANK1   BANK3   BANK2
  3307 ;;      Params:         0       0       8       0       0
  3308 ;;      Locals:         0       0       8       0       0
  3309 ;;      Temps:          0       0       4       0       0
  3310 ;;      Totals:         0       0      20       0       0
  3311 ;;Total ram usage:       20 bytes
  3312 ;; Hardware stack levels used: 1
  3313 ;; Hardware stack levels required when called: 3
  3314 ;; This function calls:
  3315 ;;		___fladd
  3316 ;;		___fldiv
  3317 ;;		___flge
  3318 ;;		___flmul
  3319 ;;		___flsub
  3320 ;;		___fltol
  3321 ;;		___xxtofl
  3322 ;; This function is called by:
  3323 ;;		_HandleRequest
  3324 ;; This function uses a non-reentrant model
  3325 ;;
  3326                           
  3327                           
  3328                           ;psect for function _PrepareTempHumDataPacket
  3329  03A5                     _PrepareTempHumDataPacket:
  3330  03A5                     l4043:	
  3331                           ;incstack = 0
  3332                           ; Regs used in _PrepareTempHumDataPacket: [wreg+status,2+status,0+btemp+1+pclath+cstack]
  3333                           
  3334                           
  3335                           ;main.c: 676: void PrepareTempHumDataPacket(float temp, float hum);main.c: 677: {;main.c
      +                          : 678:     tempHumDataPacketTx[0] = 0xFF;
  3336  03A5  30FF               	movlw	255
  3337  03A6  1683               	bsf	3,5	;RP0=1, select bank1
  3338  03A7  1303               	bcf	3,6	;RP1=0, select bank1
  3339  03A8  00C5               	movwf	??_PrepareTempHumDataPacket^(0+128)
  3340  03A9  0845               	movf	??_PrepareTempHumDataPacket^(0+128),w
  3341  03AA  1683               	bsf	3,5	;RP0=1, select bank3
  3342  03AB  1703               	bsf	3,6	;RP1=1, select bank3
  3343  03AC  00AB               	movwf	_tempHumDataPacketTx^(0+384)
  3344  03AD                     l4045:
  3345                           
  3346                           ;main.c: 679:     tempHumDataPacketTx[1] = 1;
  3347  03AD  01AC               	clrf	(_tempHumDataPacketTx^(0+384)+1)
  3348  03AE  0AAC               	incf	(_tempHumDataPacketTx^(0+384)+1),f
  3349  03AF                     l4047:
  3350                           
  3351                           ;main.c: 680:     tempHumDataPacketTx[2] = 0x01;
  3352  03AF  01AD               	clrf	(_tempHumDataPacketTx^(0+384)+2)
  3353  03B0  0AAD               	incf	(_tempHumDataPacketTx^(0+384)+2),f
  3354  03B1                     l4049:
  3355                           
  3356                           ;main.c: 681:     if(temp<0)
  3357  03B1  1683               	bsf	3,5	;RP0=1, select bank1
  3358  03B2  1303               	bcf	3,6	;RP1=0, select bank1
  3359  03B3  0840               	movf	(PrepareTempHumDataPacket@temp+3)^(0+128),w
  3360  03B4  00A3               	movwf	(___flge@ff1+3)^(0+128)
  3361  03B5  083F               	movf	(PrepareTempHumDataPacket@temp+2)^(0+128),w
  3362  03B6  00A2               	movwf	(___flge@ff1+2)^(0+128)
  3363  03B7  083E               	movf	(PrepareTempHumDataPacket@temp+1)^(0+128),w
  3364  03B8  00A1               	movwf	(___flge@ff1+1)^(0+128)
  3365  03B9  083D               	movf	PrepareTempHumDataPacket@temp^(0+128),w
  3366  03BA  00A0               	movwf	___flge@ff1^(0+128)
  3367  03BB  3000               	movlw	0
  3368  03BC  00A7               	movwf	(___flge@ff2+3)^(0+128)
  3369  03BD  3000               	movlw	0
  3370  03BE  00A6               	movwf	(___flge@ff2+2)^(0+128)
  3371  03BF  3000               	movlw	0
  3372  03C0  00A5               	movwf	(___flge@ff2+1)^(0+128)
  3373  03C1  3000               	movlw	0
  3374  03C2  00A4               	movwf	___flge@ff2^(0+128)
  3375  03C3  160A  118A  25DF  120A  118A  	fcall	___flge
  3376  03C8  1803               	btfsc	3,0
  3377  03C9  2BCB               	goto	u5891
  3378  03CA  2BCC               	goto	u5890
  3379  03CB                     u5891:
  3380  03CB  2CCC               	goto	l4055
  3381  03CC                     u5890:
  3382  03CC                     l4051:
  3383                           
  3384                           ;main.c: 682:     {;main.c: 683:         tempHumDataPacketTx[3] = 0x80 + (char)(temp*(-1
      +                          ));
  3385  03CC  1683               	bsf	3,5	;RP0=1, select bank1
  3386  03CD  1303               	bcf	3,6	;RP1=0, select bank1
  3387  03CE  0840               	movf	(PrepareTempHumDataPacket@temp+3)^(0+128),w
  3388  03CF  1283               	bcf	3,5	;RP0=0, select bank0
  3389  03D0  1303               	bcf	3,6	;RP1=0, select bank0
  3390  03D1  00B7               	movwf	___flmul@a+3
  3391  03D2  1683               	bsf	3,5	;RP0=1, select bank1
  3392  03D3  1303               	bcf	3,6	;RP1=0, select bank1
  3393  03D4  083F               	movf	(PrepareTempHumDataPacket@temp+2)^(0+128),w
  3394  03D5  1283               	bcf	3,5	;RP0=0, select bank0
  3395  03D6  1303               	bcf	3,6	;RP1=0, select bank0
  3396  03D7  00B6               	movwf	___flmul@a+2
  3397  03D8  1683               	bsf	3,5	;RP0=1, select bank1
  3398  03D9  1303               	bcf	3,6	;RP1=0, select bank1
  3399  03DA  083E               	movf	(PrepareTempHumDataPacket@temp+1)^(0+128),w
  3400  03DB  1283               	bcf	3,5	;RP0=0, select bank0
  3401  03DC  1303               	bcf	3,6	;RP1=0, select bank0
  3402  03DD  00B5               	movwf	___flmul@a+1
  3403  03DE  1683               	bsf	3,5	;RP0=1, select bank1
  3404  03DF  1303               	bcf	3,6	;RP1=0, select bank1
  3405  03E0  083D               	movf	PrepareTempHumDataPacket@temp^(0+128),w
  3406  03E1  1283               	bcf	3,5	;RP0=0, select bank0
  3407  03E2  1303               	bcf	3,6	;RP1=0, select bank0
  3408  03E3  00B4               	movwf	___flmul@a
  3409  03E4  30BF               	movlw	191
  3410  03E5  00B3               	movwf	___flmul@b+3
  3411  03E6  3080               	movlw	128
  3412  03E7  00B2               	movwf	___flmul@b+2
  3413  03E8  3000               	movlw	0
  3414  03E9  00B1               	movwf	___flmul@b+1
  3415  03EA  3000               	movlw	0
  3416  03EB  00B0               	movwf	___flmul@b
  3417  03EC  120A  118A  2044  120A  118A  	fcall	___flmul
  3418  03F1  1283               	bcf	3,5	;RP0=0, select bank0
  3419  03F2  1303               	bcf	3,6	;RP1=0, select bank0
  3420  03F3  0833               	movf	?___flmul+3,w
  3421  03F4  00CD               	movwf	___fltol@f1+3
  3422  03F5  0832               	movf	?___flmul+2,w
  3423  03F6  00CC               	movwf	___fltol@f1+2
  3424  03F7  0831               	movf	?___flmul+1,w
  3425  03F8  00CB               	movwf	___fltol@f1+1
  3426  03F9  0830               	movf	?___flmul,w
  3427  03FA  00CA               	movwf	___fltol@f1
  3428  03FB  160A  158A  2784  120A  118A  	fcall	___fltol
  3429  0400  1283               	bcf	3,5	;RP0=0, select bank0
  3430  0401  1303               	bcf	3,6	;RP1=0, select bank0
  3431  0402  084A               	movf	?___fltol,w
  3432  0403  3E80               	addlw	128
  3433  0404  1683               	bsf	3,5	;RP0=1, select bank1
  3434  0405  1303               	bcf	3,6	;RP1=0, select bank1
  3435  0406  00C5               	movwf	??_PrepareTempHumDataPacket^(0+128)
  3436  0407  0845               	movf	??_PrepareTempHumDataPacket^(0+128),w
  3437  0408  1683               	bsf	3,5	;RP0=1, select bank3
  3438  0409  1703               	bsf	3,6	;RP1=1, select bank3
  3439  040A  00AE               	movwf	(_tempHumDataPacketTx^(0+384)+3)
  3440                           
  3441                           ;main.c: 684:         float decimal = (float)(((temp * (-1)) + (int)temp)/0.1);
  3442  040B  303D               	movlw	61
  3443  040C  1683               	bsf	3,5	;RP0=1, select bank1
  3444  040D  1303               	bcf	3,6	;RP1=0, select bank1
  3445  040E  00AB               	movwf	(___fldiv@a+3)^(0+128)
  3446  040F  30CC               	movlw	204
  3447  0410  00AA               	movwf	(___fldiv@a+2)^(0+128)
  3448  0411  30CC               	movlw	204
  3449  0412  00A9               	movwf	(___fldiv@a+1)^(0+128)
  3450  0413  30CD               	movlw	205
  3451  0414  00A8               	movwf	___fldiv@a^(0+128)
  3452  0415  0840               	movf	(PrepareTempHumDataPacket@temp+3)^(0+128),w
  3453  0416  1283               	bcf	3,5	;RP0=0, select bank0
  3454  0417  1303               	bcf	3,6	;RP1=0, select bank0
  3455  0418  00CD               	movwf	___fltol@f1+3
  3456  0419  1683               	bsf	3,5	;RP0=1, select bank1
  3457  041A  1303               	bcf	3,6	;RP1=0, select bank1
  3458  041B  083F               	movf	(PrepareTempHumDataPacket@temp+2)^(0+128),w
  3459  041C  1283               	bcf	3,5	;RP0=0, select bank0
  3460  041D  1303               	bcf	3,6	;RP1=0, select bank0
  3461  041E  00CC               	movwf	___fltol@f1+2
  3462  041F  1683               	bsf	3,5	;RP0=1, select bank1
  3463  0420  1303               	bcf	3,6	;RP1=0, select bank1
  3464  0421  083E               	movf	(PrepareTempHumDataPacket@temp+1)^(0+128),w
  3465  0422  1283               	bcf	3,5	;RP0=0, select bank0
  3466  0423  1303               	bcf	3,6	;RP1=0, select bank0
  3467  0424  00CB               	movwf	___fltol@f1+1
  3468  0425  1683               	bsf	3,5	;RP0=1, select bank1
  3469  0426  1303               	bcf	3,6	;RP1=0, select bank1
  3470  0427  083D               	movf	PrepareTempHumDataPacket@temp^(0+128),w
  3471  0428  1283               	bcf	3,5	;RP0=0, select bank0
  3472  0429  1303               	bcf	3,6	;RP1=0, select bank0
  3473  042A  00CA               	movwf	___fltol@f1
  3474  042B  160A  158A  2784  120A  118A  	fcall	___fltol
  3475  0430  1283               	bcf	3,5	;RP0=0, select bank0
  3476  0431  1303               	bcf	3,6	;RP1=0, select bank0
  3477  0432  084A               	movf	?___fltol,w
  3478  0433  00A2               	movwf	___xxtofl@val
  3479  0434  084B               	movf	?___fltol+1,w
  3480  0435  00A3               	movwf	___xxtofl@val+1
  3481  0436  3000               	movlw	0
  3482  0437  1BA3               	btfsc	___xxtofl@val+1,7
  3483  0438  30FF               	movlw	255
  3484  0439  00A4               	movwf	___xxtofl@val+2
  3485  043A  00A5               	movwf	___xxtofl@val+3
  3486  043B  3001               	movlw	1
  3487  043C  160A  118A  235B  120A  118A  	fcall	___xxtofl
  3488  0441  1283               	bcf	3,5	;RP0=0, select bank0
  3489  0442  1303               	bcf	3,6	;RP1=0, select bank0
  3490  0443  0825               	movf	?___xxtofl+3,w
  3491  0444  00D8               	movwf	___fladd@b+3
  3492  0445  0824               	movf	?___xxtofl+2,w
  3493  0446  00D7               	movwf	___fladd@b+2
  3494  0447  0823               	movf	?___xxtofl+1,w
  3495  0448  00D6               	movwf	___fladd@b+1
  3496  0449  0822               	movf	?___xxtofl,w
  3497  044A  00D5               	movwf	___fladd@b
  3498  044B  30BF               	movlw	191
  3499  044C  00B3               	movwf	___flmul@b+3
  3500  044D  3080               	movlw	128
  3501  044E  00B2               	movwf	___flmul@b+2
  3502  044F  3000               	movlw	0
  3503  0450  00B1               	movwf	___flmul@b+1
  3504  0451  3000               	movlw	0
  3505  0452  00B0               	movwf	___flmul@b
  3506  0453  1683               	bsf	3,5	;RP0=1, select bank1
  3507  0454  1303               	bcf	3,6	;RP1=0, select bank1
  3508  0455  0840               	movf	(PrepareTempHumDataPacket@temp+3)^(0+128),w
  3509  0456  1283               	bcf	3,5	;RP0=0, select bank0
  3510  0457  1303               	bcf	3,6	;RP1=0, select bank0
  3511  0458  00B7               	movwf	___flmul@a+3
  3512  0459  1683               	bsf	3,5	;RP0=1, select bank1
  3513  045A  1303               	bcf	3,6	;RP1=0, select bank1
  3514  045B  083F               	movf	(PrepareTempHumDataPacket@temp+2)^(0+128),w
  3515  045C  1283               	bcf	3,5	;RP0=0, select bank0
  3516  045D  1303               	bcf	3,6	;RP1=0, select bank0
  3517  045E  00B6               	movwf	___flmul@a+2
  3518  045F  1683               	bsf	3,5	;RP0=1, select bank1
  3519  0460  1303               	bcf	3,6	;RP1=0, select bank1
  3520  0461  083E               	movf	(PrepareTempHumDataPacket@temp+1)^(0+128),w
  3521  0462  1283               	bcf	3,5	;RP0=0, select bank0
  3522  0463  1303               	bcf	3,6	;RP1=0, select bank0
  3523  0464  00B5               	movwf	___flmul@a+1
  3524  0465  1683               	bsf	3,5	;RP0=1, select bank1
  3525  0466  1303               	bcf	3,6	;RP1=0, select bank1
  3526  0467  083D               	movf	PrepareTempHumDataPacket@temp^(0+128),w
  3527  0468  1283               	bcf	3,5	;RP0=0, select bank0
  3528  0469  1303               	bcf	3,6	;RP1=0, select bank0
  3529  046A  00B4               	movwf	___flmul@a
  3530  046B  120A  118A  2044  120A  118A  	fcall	___flmul
  3531  0470  1283               	bcf	3,5	;RP0=0, select bank0
  3532  0471  1303               	bcf	3,6	;RP1=0, select bank0
  3533  0472  0833               	movf	?___flmul+3,w
  3534  0473  00DC               	movwf	___fladd@a+3
  3535  0474  0832               	movf	?___flmul+2,w
  3536  0475  00DB               	movwf	___fladd@a+2
  3537  0476  0831               	movf	?___flmul+1,w
  3538  0477  00DA               	movwf	___fladd@a+1
  3539  0478  0830               	movf	?___flmul,w
  3540  0479  00D9               	movwf	___fladd@a
  3541  047A  120A  158A  2578  120A  118A  	fcall	___fladd
  3542  047F  1283               	bcf	3,5	;RP0=0, select bank0
  3543  0480  1303               	bcf	3,6	;RP1=0, select bank0
  3544  0481  0858               	movf	?___fladd+3,w
  3545  0482  1683               	bsf	3,5	;RP0=1, select bank1
  3546  0483  1303               	bcf	3,6	;RP1=0, select bank1
  3547  0484  00AF               	movwf	(___fldiv@b+3)^(0+128)
  3548  0485  1283               	bcf	3,5	;RP0=0, select bank0
  3549  0486  1303               	bcf	3,6	;RP1=0, select bank0
  3550  0487  0857               	movf	?___fladd+2,w
  3551  0488  1683               	bsf	3,5	;RP0=1, select bank1
  3552  0489  1303               	bcf	3,6	;RP1=0, select bank1
  3553  048A  00AE               	movwf	(___fldiv@b+2)^(0+128)
  3554  048B  1283               	bcf	3,5	;RP0=0, select bank0
  3555  048C  1303               	bcf	3,6	;RP1=0, select bank0
  3556  048D  0856               	movf	?___fladd+1,w
  3557  048E  1683               	bsf	3,5	;RP0=1, select bank1
  3558  048F  1303               	bcf	3,6	;RP1=0, select bank1
  3559  0490  00AD               	movwf	(___fldiv@b+1)^(0+128)
  3560  0491  1283               	bcf	3,5	;RP0=0, select bank0
  3561  0492  1303               	bcf	3,6	;RP1=0, select bank0
  3562  0493  0855               	movf	?___fladd,w
  3563  0494  1683               	bsf	3,5	;RP0=1, select bank1
  3564  0495  1303               	bcf	3,6	;RP1=0, select bank1
  3565  0496  00AC               	movwf	___fldiv@b^(0+128)
  3566  0497  120A  158A  2090  120A  118A  	fcall	___fldiv
  3567  049C  1683               	bsf	3,5	;RP0=1, select bank1
  3568  049D  1303               	bcf	3,6	;RP1=0, select bank1
  3569  049E  082B               	movf	(?___fldiv+3)^(0+128),w
  3570  049F  00CC               	movwf	(PrepareTempHumDataPacket@decimal+3)^(0+128)
  3571  04A0  082A               	movf	(?___fldiv+2)^(0+128),w
  3572  04A1  00CB               	movwf	(PrepareTempHumDataPacket@decimal+2)^(0+128)
  3573  04A2  0829               	movf	(?___fldiv+1)^(0+128),w
  3574  04A3  00CA               	movwf	(PrepareTempHumDataPacket@decimal+1)^(0+128)
  3575  04A4  0828               	movf	?___fldiv^(0+128),w
  3576  04A5  00C9               	movwf	PrepareTempHumDataPacket@decimal^(0+128)
  3577  04A6                     l4053:
  3578                           
  3579                           ;main.c: 685:         tempHumDataPacketTx[4] = (char)decimal;
  3580  04A6  084C               	movf	(PrepareTempHumDataPacket@decimal+3)^(0+128),w
  3581  04A7  1283               	bcf	3,5	;RP0=0, select bank0
  3582  04A8  1303               	bcf	3,6	;RP1=0, select bank0
  3583  04A9  00CD               	movwf	___fltol@f1+3
  3584  04AA  1683               	bsf	3,5	;RP0=1, select bank1
  3585  04AB  1303               	bcf	3,6	;RP1=0, select bank1
  3586  04AC  084B               	movf	(PrepareTempHumDataPacket@decimal+2)^(0+128),w
  3587  04AD  1283               	bcf	3,5	;RP0=0, select bank0
  3588  04AE  1303               	bcf	3,6	;RP1=0, select bank0
  3589  04AF  00CC               	movwf	___fltol@f1+2
  3590  04B0  1683               	bsf	3,5	;RP0=1, select bank1
  3591  04B1  1303               	bcf	3,6	;RP1=0, select bank1
  3592  04B2  084A               	movf	(PrepareTempHumDataPacket@decimal+1)^(0+128),w
  3593  04B3  1283               	bcf	3,5	;RP0=0, select bank0
  3594  04B4  1303               	bcf	3,6	;RP1=0, select bank0
  3595  04B5  00CB               	movwf	___fltol@f1+1
  3596  04B6  1683               	bsf	3,5	;RP0=1, select bank1
  3597  04B7  1303               	bcf	3,6	;RP1=0, select bank1
  3598  04B8  0849               	movf	PrepareTempHumDataPacket@decimal^(0+128),w
  3599  04B9  1283               	bcf	3,5	;RP0=0, select bank0
  3600  04BA  1303               	bcf	3,6	;RP1=0, select bank0
  3601  04BB  00CA               	movwf	___fltol@f1
  3602  04BC  160A  158A  2784  120A  118A  	fcall	___fltol
  3603  04C1  1283               	bcf	3,5	;RP0=0, select bank0
  3604  04C2  1303               	bcf	3,6	;RP1=0, select bank0
  3605  04C3  084A               	movf	?___fltol,w
  3606  04C4  1683               	bsf	3,5	;RP0=1, select bank1
  3607  04C5  1303               	bcf	3,6	;RP1=0, select bank1
  3608  04C6  00C5               	movwf	??_PrepareTempHumDataPacket^(0+128)
  3609  04C7  0845               	movf	??_PrepareTempHumDataPacket^(0+128),w
  3610  04C8  1683               	bsf	3,5	;RP0=1, select bank3
  3611  04C9  1703               	bsf	3,6	;RP1=1, select bank3
  3612  04CA  00AF               	movwf	(_tempHumDataPacketTx^(0+384)+4)
  3613                           
  3614                           ;main.c: 686:      }
  3615  04CB  2DA0               	goto	l4061
  3616  04CC                     l4055:
  3617                           
  3618                           ;main.c: 688:     {;main.c: 689:         tempHumDataPacketTx[3] = (char)(temp);;
  3619  04CC  1683               	bsf	3,5	;RP0=1, select bank1
  3620  04CD  1303               	bcf	3,6	;RP1=0, select bank1
  3621  04CE  0840               	movf	(PrepareTempHumDataPacket@temp+3)^(0+128),w
  3622  04CF  1283               	bcf	3,5	;RP0=0, select bank0
  3623  04D0  1303               	bcf	3,6	;RP1=0, select bank0
  3624  04D1  00CD               	movwf	___fltol@f1+3
  3625  04D2  1683               	bsf	3,5	;RP0=1, select bank1
  3626  04D3  1303               	bcf	3,6	;RP1=0, select bank1
  3627  04D4  083F               	movf	(PrepareTempHumDataPacket@temp+2)^(0+128),w
  3628  04D5  1283               	bcf	3,5	;RP0=0, select bank0
  3629  04D6  1303               	bcf	3,6	;RP1=0, select bank0
  3630  04D7  00CC               	movwf	___fltol@f1+2
  3631  04D8  1683               	bsf	3,5	;RP0=1, select bank1
  3632  04D9  1303               	bcf	3,6	;RP1=0, select bank1
  3633  04DA  083E               	movf	(PrepareTempHumDataPacket@temp+1)^(0+128),w
  3634  04DB  1283               	bcf	3,5	;RP0=0, select bank0
  3635  04DC  1303               	bcf	3,6	;RP1=0, select bank0
  3636  04DD  00CB               	movwf	___fltol@f1+1
  3637  04DE  1683               	bsf	3,5	;RP0=1, select bank1
  3638  04DF  1303               	bcf	3,6	;RP1=0, select bank1
  3639  04E0  083D               	movf	PrepareTempHumDataPacket@temp^(0+128),w
  3640  04E1  1283               	bcf	3,5	;RP0=0, select bank0
  3641  04E2  1303               	bcf	3,6	;RP1=0, select bank0
  3642  04E3  00CA               	movwf	___fltol@f1
  3643  04E4  160A  158A  2784  120A  118A  	fcall	___fltol
  3644  04E9  1283               	bcf	3,5	;RP0=0, select bank0
  3645  04EA  1303               	bcf	3,6	;RP1=0, select bank0
  3646  04EB  084A               	movf	?___fltol,w
  3647  04EC  1683               	bsf	3,5	;RP0=1, select bank1
  3648  04ED  1303               	bcf	3,6	;RP1=0, select bank1
  3649  04EE  00C5               	movwf	??_PrepareTempHumDataPacket^(0+128)
  3650  04EF  0845               	movf	??_PrepareTempHumDataPacket^(0+128),w
  3651  04F0  1683               	bsf	3,5	;RP0=1, select bank3
  3652  04F1  1703               	bsf	3,6	;RP1=1, select bank3
  3653  04F2  00AE               	movwf	(_tempHumDataPacketTx^(0+384)+3)
  3654  04F3                     l4057:
  3655                           
  3656                           ;main.c: 690:         tempHumDataPacketTx[4] = (char)((temp-(char)temp)/0.1);
  3657  04F3  1683               	bsf	3,5	;RP0=1, select bank1
  3658  04F4  1303               	bcf	3,6	;RP1=0, select bank1
  3659  04F5  0840               	movf	(PrepareTempHumDataPacket@temp+3)^(0+128),w
  3660  04F6  00A7               	movwf	(___flsub@b+3)^(0+128)
  3661  04F7  083F               	movf	(PrepareTempHumDataPacket@temp+2)^(0+128),w
  3662  04F8  00A6               	movwf	(___flsub@b+2)^(0+128)
  3663  04F9  083E               	movf	(PrepareTempHumDataPacket@temp+1)^(0+128),w
  3664  04FA  00A5               	movwf	(___flsub@b+1)^(0+128)
  3665  04FB  083D               	movf	PrepareTempHumDataPacket@temp^(0+128),w
  3666  04FC  00A4               	movwf	___flsub@b^(0+128)
  3667  04FD  0840               	movf	(PrepareTempHumDataPacket@temp+3)^(0+128),w
  3668  04FE  1283               	bcf	3,5	;RP0=0, select bank0
  3669  04FF  1303               	bcf	3,6	;RP1=0, select bank0
  3670  0500  00CD               	movwf	___fltol@f1+3
  3671  0501  1683               	bsf	3,5	;RP0=1, select bank1
  3672  0502  1303               	bcf	3,6	;RP1=0, select bank1
  3673  0503  083F               	movf	(PrepareTempHumDataPacket@temp+2)^(0+128),w
  3674  0504  1283               	bcf	3,5	;RP0=0, select bank0
  3675  0505  1303               	bcf	3,6	;RP1=0, select bank0
  3676  0506  00CC               	movwf	___fltol@f1+2
  3677  0507  1683               	bsf	3,5	;RP0=1, select bank1
  3678  0508  1303               	bcf	3,6	;RP1=0, select bank1
  3679  0509  083E               	movf	(PrepareTempHumDataPacket@temp+1)^(0+128),w
  3680  050A  1283               	bcf	3,5	;RP0=0, select bank0
  3681  050B  1303               	bcf	3,6	;RP1=0, select bank0
  3682  050C  00CB               	movwf	___fltol@f1+1
  3683  050D  1683               	bsf	3,5	;RP0=1, select bank1
  3684  050E  1303               	bcf	3,6	;RP1=0, select bank1
  3685  050F  083D               	movf	PrepareTempHumDataPacket@temp^(0+128),w
  3686  0510  1283               	bcf	3,5	;RP0=0, select bank0
  3687  0511  1303               	bcf	3,6	;RP1=0, select bank0
  3688  0512  00CA               	movwf	___fltol@f1
  3689  0513  160A  158A  2784  120A  118A  	fcall	___fltol
  3690  0518  1283               	bcf	3,5	;RP0=0, select bank0
  3691  0519  1303               	bcf	3,6	;RP1=0, select bank0
  3692  051A  084A               	movf	?___fltol,w
  3693  051B  1683               	bsf	3,5	;RP0=1, select bank1
  3694  051C  1303               	bcf	3,6	;RP1=0, select bank1
  3695  051D  00C5               	movwf	??_PrepareTempHumDataPacket^(0+128)
  3696  051E  01C6               	clrf	(??_PrepareTempHumDataPacket^(0+128)+1)
  3697  051F  01C7               	clrf	(??_PrepareTempHumDataPacket^(0+128)+2)
  3698  0520  01C8               	clrf	(??_PrepareTempHumDataPacket^(0+128)+3)
  3699  0521  0848               	movf	(??_PrepareTempHumDataPacket+3)^(0+128),w
  3700  0522  1283               	bcf	3,5	;RP0=0, select bank0
  3701  0523  1303               	bcf	3,6	;RP1=0, select bank0
  3702  0524  00A5               	movwf	___xxtofl@val+3
  3703  0525  1683               	bsf	3,5	;RP0=1, select bank1
  3704  0526  1303               	bcf	3,6	;RP1=0, select bank1
  3705  0527  0847               	movf	(??_PrepareTempHumDataPacket+2)^(0+128),w
  3706  0528  1283               	bcf	3,5	;RP0=0, select bank0
  3707  0529  1303               	bcf	3,6	;RP1=0, select bank0
  3708  052A  00A4               	movwf	___xxtofl@val+2
  3709  052B  1683               	bsf	3,5	;RP0=1, select bank1
  3710  052C  1303               	bcf	3,6	;RP1=0, select bank1
  3711  052D  0846               	movf	(??_PrepareTempHumDataPacket+1)^(0+128),w
  3712  052E  1283               	bcf	3,5	;RP0=0, select bank0
  3713  052F  1303               	bcf	3,6	;RP1=0, select bank0
  3714  0530  00A3               	movwf	___xxtofl@val+1
  3715  0531  1683               	bsf	3,5	;RP0=1, select bank1
  3716  0532  1303               	bcf	3,6	;RP1=0, select bank1
  3717  0533  0845               	movf	??_PrepareTempHumDataPacket^(0+128),w
  3718  0534  1283               	bcf	3,5	;RP0=0, select bank0
  3719  0535  1303               	bcf	3,6	;RP1=0, select bank0
  3720  0536  00A2               	movwf	___xxtofl@val
  3721  0537  3001               	movlw	1
  3722  0538  160A  118A  235B  120A  118A  	fcall	___xxtofl
  3723  053D  1283               	bcf	3,5	;RP0=0, select bank0
  3724  053E  1303               	bcf	3,6	;RP1=0, select bank0
  3725  053F  0825               	movf	?___xxtofl+3,w
  3726  0540  1683               	bsf	3,5	;RP0=1, select bank1
  3727  0541  1303               	bcf	3,6	;RP1=0, select bank1
  3728  0542  00A3               	movwf	(___flsub@a+3)^(0+128)
  3729  0543  1283               	bcf	3,5	;RP0=0, select bank0
  3730  0544  1303               	bcf	3,6	;RP1=0, select bank0
  3731  0545  0824               	movf	?___xxtofl+2,w
  3732  0546  1683               	bsf	3,5	;RP0=1, select bank1
  3733  0547  1303               	bcf	3,6	;RP1=0, select bank1
  3734  0548  00A2               	movwf	(___flsub@a+2)^(0+128)
  3735  0549  1283               	bcf	3,5	;RP0=0, select bank0
  3736  054A  1303               	bcf	3,6	;RP1=0, select bank0
  3737  054B  0823               	movf	?___xxtofl+1,w
  3738  054C  1683               	bsf	3,5	;RP0=1, select bank1
  3739  054D  1303               	bcf	3,6	;RP1=0, select bank1
  3740  054E  00A1               	movwf	(___flsub@a+1)^(0+128)
  3741  054F  1283               	bcf	3,5	;RP0=0, select bank0
  3742  0550  1303               	bcf	3,6	;RP1=0, select bank0
  3743  0551  0822               	movf	?___xxtofl,w
  3744  0552  1683               	bsf	3,5	;RP0=1, select bank1
  3745  0553  1303               	bcf	3,6	;RP1=0, select bank1
  3746  0554  00A0               	movwf	___flsub@a^(0+128)
  3747  0555  160A  158A  2487  120A  118A  	fcall	___flsub
  3748  055A  1683               	bsf	3,5	;RP0=1, select bank1
  3749  055B  1303               	bcf	3,6	;RP1=0, select bank1
  3750  055C  0823               	movf	(?___flsub+3)^(0+128),w
  3751  055D  00AF               	movwf	(___fldiv@b+3)^(0+128)
  3752  055E  0822               	movf	(?___flsub+2)^(0+128),w
  3753  055F  00AE               	movwf	(___fldiv@b+2)^(0+128)
  3754  0560  0821               	movf	(?___flsub+1)^(0+128),w
  3755  0561  00AD               	movwf	(___fldiv@b+1)^(0+128)
  3756  0562  0820               	movf	?___flsub^(0+128),w
  3757  0563  00AC               	movwf	___fldiv@b^(0+128)
  3758  0564  303D               	movlw	61
  3759  0565  00AB               	movwf	(___fldiv@a+3)^(0+128)
  3760  0566  30CC               	movlw	204
  3761  0567  00AA               	movwf	(___fldiv@a+2)^(0+128)
  3762  0568  30CC               	movlw	204
  3763  0569  00A9               	movwf	(___fldiv@a+1)^(0+128)
  3764  056A  30CD               	movlw	205
  3765  056B  00A8               	movwf	___fldiv@a^(0+128)
  3766  056C  120A  158A  2090  120A  118A  	fcall	___fldiv
  3767  0571  1683               	bsf	3,5	;RP0=1, select bank1
  3768  0572  1303               	bcf	3,6	;RP1=0, select bank1
  3769  0573  082B               	movf	(?___fldiv+3)^(0+128),w
  3770  0574  00D0               	movwf	(_PrepareTempHumDataPacket$908+3)^(0+128)
  3771  0575  082A               	movf	(?___fldiv+2)^(0+128),w
  3772  0576  00CF               	movwf	(_PrepareTempHumDataPacket$908+2)^(0+128)
  3773  0577  0829               	movf	(?___fldiv+1)^(0+128),w
  3774  0578  00CE               	movwf	(_PrepareTempHumDataPacket$908+1)^(0+128)
  3775  0579  0828               	movf	?___fldiv^(0+128),w
  3776  057A  00CD               	movwf	_PrepareTempHumDataPacket$908^(0+128)
  3777  057B                     l4059:
  3778                           
  3779                           ;main.c: 690:         tempHumDataPacketTx[4] = (char)((temp-(char)temp)/0.1);
  3780  057B  0850               	movf	(_PrepareTempHumDataPacket$908+3)^(0+128),w
  3781  057C  1283               	bcf	3,5	;RP0=0, select bank0
  3782  057D  1303               	bcf	3,6	;RP1=0, select bank0
  3783  057E  00CD               	movwf	___fltol@f1+3
  3784  057F  1683               	bsf	3,5	;RP0=1, select bank1
  3785  0580  1303               	bcf	3,6	;RP1=0, select bank1
  3786  0581  084F               	movf	(_PrepareTempHumDataPacket$908+2)^(0+128),w
  3787  0582  1283               	bcf	3,5	;RP0=0, select bank0
  3788  0583  1303               	bcf	3,6	;RP1=0, select bank0
  3789  0584  00CC               	movwf	___fltol@f1+2
  3790  0585  1683               	bsf	3,5	;RP0=1, select bank1
  3791  0586  1303               	bcf	3,6	;RP1=0, select bank1
  3792  0587  084E               	movf	(_PrepareTempHumDataPacket$908+1)^(0+128),w
  3793  0588  1283               	bcf	3,5	;RP0=0, select bank0
  3794  0589  1303               	bcf	3,6	;RP1=0, select bank0
  3795  058A  00CB               	movwf	___fltol@f1+1
  3796  058B  1683               	bsf	3,5	;RP0=1, select bank1
  3797  058C  1303               	bcf	3,6	;RP1=0, select bank1
  3798  058D  084D               	movf	_PrepareTempHumDataPacket$908^(0+128),w
  3799  058E  1283               	bcf	3,5	;RP0=0, select bank0
  3800  058F  1303               	bcf	3,6	;RP1=0, select bank0
  3801  0590  00CA               	movwf	___fltol@f1
  3802  0591  160A  158A  2784  120A  118A  	fcall	___fltol
  3803  0596  1283               	bcf	3,5	;RP0=0, select bank0
  3804  0597  1303               	bcf	3,6	;RP1=0, select bank0
  3805  0598  084A               	movf	?___fltol,w
  3806  0599  1683               	bsf	3,5	;RP0=1, select bank1
  3807  059A  1303               	bcf	3,6	;RP1=0, select bank1
  3808  059B  00C5               	movwf	??_PrepareTempHumDataPacket^(0+128)
  3809  059C  0845               	movf	??_PrepareTempHumDataPacket^(0+128),w
  3810  059D  1683               	bsf	3,5	;RP0=1, select bank3
  3811  059E  1703               	bsf	3,6	;RP1=1, select bank3
  3812  059F  00AF               	movwf	(_tempHumDataPacketTx^(0+384)+4)
  3813  05A0                     l4061:
  3814                           
  3815                           ;main.c: 692:     tempHumDataPacketTx[5] = (char)hum;
  3816  05A0  1683               	bsf	3,5	;RP0=1, select bank1
  3817  05A1  1303               	bcf	3,6	;RP1=0, select bank1
  3818  05A2  0844               	movf	(PrepareTempHumDataPacket@hum+3)^(0+128),w
  3819  05A3  1283               	bcf	3,5	;RP0=0, select bank0
  3820  05A4  1303               	bcf	3,6	;RP1=0, select bank0
  3821  05A5  00CD               	movwf	___fltol@f1+3
  3822  05A6  1683               	bsf	3,5	;RP0=1, select bank1
  3823  05A7  1303               	bcf	3,6	;RP1=0, select bank1
  3824  05A8  0843               	movf	(PrepareTempHumDataPacket@hum+2)^(0+128),w
  3825  05A9  1283               	bcf	3,5	;RP0=0, select bank0
  3826  05AA  1303               	bcf	3,6	;RP1=0, select bank0
  3827  05AB  00CC               	movwf	___fltol@f1+2
  3828  05AC  1683               	bsf	3,5	;RP0=1, select bank1
  3829  05AD  1303               	bcf	3,6	;RP1=0, select bank1
  3830  05AE  0842               	movf	(PrepareTempHumDataPacket@hum+1)^(0+128),w
  3831  05AF  1283               	bcf	3,5	;RP0=0, select bank0
  3832  05B0  1303               	bcf	3,6	;RP1=0, select bank0
  3833  05B1  00CB               	movwf	___fltol@f1+1
  3834  05B2  1683               	bsf	3,5	;RP0=1, select bank1
  3835  05B3  1303               	bcf	3,6	;RP1=0, select bank1
  3836  05B4  0841               	movf	PrepareTempHumDataPacket@hum^(0+128),w
  3837  05B5  1283               	bcf	3,5	;RP0=0, select bank0
  3838  05B6  1303               	bcf	3,6	;RP1=0, select bank0
  3839  05B7  00CA               	movwf	___fltol@f1
  3840  05B8  160A  158A  2784  120A  118A  	fcall	___fltol
  3841  05BD  1283               	bcf	3,5	;RP0=0, select bank0
  3842  05BE  1303               	bcf	3,6	;RP1=0, select bank0
  3843  05BF  084A               	movf	?___fltol,w
  3844  05C0  1683               	bsf	3,5	;RP0=1, select bank1
  3845  05C1  1303               	bcf	3,6	;RP1=0, select bank1
  3846  05C2  00C5               	movwf	??_PrepareTempHumDataPacket^(0+128)
  3847  05C3  0845               	movf	??_PrepareTempHumDataPacket^(0+128),w
  3848  05C4  1683               	bsf	3,5	;RP0=1, select bank3
  3849  05C5  1703               	bsf	3,6	;RP1=1, select bank3
  3850  05C6  00B0               	movwf	(_tempHumDataPacketTx^(0+384)+5)
  3851  05C7                     l4063:
  3852                           
  3853                           ;main.c: 693:     tempHumDataPacketTx[6] = (char)((hum-(char)hum)/0.1);
  3854  05C7  1683               	bsf	3,5	;RP0=1, select bank1
  3855  05C8  1303               	bcf	3,6	;RP1=0, select bank1
  3856  05C9  0844               	movf	(PrepareTempHumDataPacket@hum+3)^(0+128),w
  3857  05CA  00A7               	movwf	(___flsub@b+3)^(0+128)
  3858  05CB  0843               	movf	(PrepareTempHumDataPacket@hum+2)^(0+128),w
  3859  05CC  00A6               	movwf	(___flsub@b+2)^(0+128)
  3860  05CD  0842               	movf	(PrepareTempHumDataPacket@hum+1)^(0+128),w
  3861  05CE  00A5               	movwf	(___flsub@b+1)^(0+128)
  3862  05CF  0841               	movf	PrepareTempHumDataPacket@hum^(0+128),w
  3863  05D0  00A4               	movwf	___flsub@b^(0+128)
  3864  05D1  0844               	movf	(PrepareTempHumDataPacket@hum+3)^(0+128),w
  3865  05D2  1283               	bcf	3,5	;RP0=0, select bank0
  3866  05D3  1303               	bcf	3,6	;RP1=0, select bank0
  3867  05D4  00CD               	movwf	___fltol@f1+3
  3868  05D5  1683               	bsf	3,5	;RP0=1, select bank1
  3869  05D6  1303               	bcf	3,6	;RP1=0, select bank1
  3870  05D7  0843               	movf	(PrepareTempHumDataPacket@hum+2)^(0+128),w
  3871  05D8  1283               	bcf	3,5	;RP0=0, select bank0
  3872  05D9  1303               	bcf	3,6	;RP1=0, select bank0
  3873  05DA  00CC               	movwf	___fltol@f1+2
  3874  05DB  1683               	bsf	3,5	;RP0=1, select bank1
  3875  05DC  1303               	bcf	3,6	;RP1=0, select bank1
  3876  05DD  0842               	movf	(PrepareTempHumDataPacket@hum+1)^(0+128),w
  3877  05DE  1283               	bcf	3,5	;RP0=0, select bank0
  3878  05DF  1303               	bcf	3,6	;RP1=0, select bank0
  3879  05E0  00CB               	movwf	___fltol@f1+1
  3880  05E1  1683               	bsf	3,5	;RP0=1, select bank1
  3881  05E2  1303               	bcf	3,6	;RP1=0, select bank1
  3882  05E3  0841               	movf	PrepareTempHumDataPacket@hum^(0+128),w
  3883  05E4  1283               	bcf	3,5	;RP0=0, select bank0
  3884  05E5  1303               	bcf	3,6	;RP1=0, select bank0
  3885  05E6  00CA               	movwf	___fltol@f1
  3886  05E7  160A  158A  2784  120A  118A  	fcall	___fltol
  3887  05EC  1283               	bcf	3,5	;RP0=0, select bank0
  3888  05ED  1303               	bcf	3,6	;RP1=0, select bank0
  3889  05EE  084A               	movf	?___fltol,w
  3890  05EF  1683               	bsf	3,5	;RP0=1, select bank1
  3891  05F0  1303               	bcf	3,6	;RP1=0, select bank1
  3892  05F1  00C5               	movwf	??_PrepareTempHumDataPacket^(0+128)
  3893  05F2  01C6               	clrf	(??_PrepareTempHumDataPacket^(0+128)+1)
  3894  05F3  01C7               	clrf	(??_PrepareTempHumDataPacket^(0+128)+2)
  3895  05F4  01C8               	clrf	(??_PrepareTempHumDataPacket^(0+128)+3)
  3896  05F5  0848               	movf	(??_PrepareTempHumDataPacket+3)^(0+128),w
  3897  05F6  1283               	bcf	3,5	;RP0=0, select bank0
  3898  05F7  1303               	bcf	3,6	;RP1=0, select bank0
  3899  05F8  00A5               	movwf	___xxtofl@val+3
  3900  05F9  1683               	bsf	3,5	;RP0=1, select bank1
  3901  05FA  1303               	bcf	3,6	;RP1=0, select bank1
  3902  05FB  0847               	movf	(??_PrepareTempHumDataPacket+2)^(0+128),w
  3903  05FC  1283               	bcf	3,5	;RP0=0, select bank0
  3904  05FD  1303               	bcf	3,6	;RP1=0, select bank0
  3905  05FE  00A4               	movwf	___xxtofl@val+2
  3906  05FF  1683               	bsf	3,5	;RP0=1, select bank1
  3907  0600  1303               	bcf	3,6	;RP1=0, select bank1
  3908  0601  0846               	movf	(??_PrepareTempHumDataPacket+1)^(0+128),w
  3909  0602  1283               	bcf	3,5	;RP0=0, select bank0
  3910  0603  1303               	bcf	3,6	;RP1=0, select bank0
  3911  0604  00A3               	movwf	___xxtofl@val+1
  3912  0605  1683               	bsf	3,5	;RP0=1, select bank1
  3913  0606  1303               	bcf	3,6	;RP1=0, select bank1
  3914  0607  0845               	movf	??_PrepareTempHumDataPacket^(0+128),w
  3915  0608  1283               	bcf	3,5	;RP0=0, select bank0
  3916  0609  1303               	bcf	3,6	;RP1=0, select bank0
  3917  060A  00A2               	movwf	___xxtofl@val
  3918  060B  3001               	movlw	1
  3919  060C  160A  118A  235B  120A  118A  	fcall	___xxtofl
  3920  0611  1283               	bcf	3,5	;RP0=0, select bank0
  3921  0612  1303               	bcf	3,6	;RP1=0, select bank0
  3922  0613  0825               	movf	?___xxtofl+3,w
  3923  0614  1683               	bsf	3,5	;RP0=1, select bank1
  3924  0615  1303               	bcf	3,6	;RP1=0, select bank1
  3925  0616  00A3               	movwf	(___flsub@a+3)^(0+128)
  3926  0617  1283               	bcf	3,5	;RP0=0, select bank0
  3927  0618  1303               	bcf	3,6	;RP1=0, select bank0
  3928  0619  0824               	movf	?___xxtofl+2,w
  3929  061A  1683               	bsf	3,5	;RP0=1, select bank1
  3930  061B  1303               	bcf	3,6	;RP1=0, select bank1
  3931  061C  00A2               	movwf	(___flsub@a+2)^(0+128)
  3932  061D  1283               	bcf	3,5	;RP0=0, select bank0
  3933  061E  1303               	bcf	3,6	;RP1=0, select bank0
  3934  061F  0823               	movf	?___xxtofl+1,w
  3935  0620  1683               	bsf	3,5	;RP0=1, select bank1
  3936  0621  1303               	bcf	3,6	;RP1=0, select bank1
  3937  0622  00A1               	movwf	(___flsub@a+1)^(0+128)
  3938  0623  1283               	bcf	3,5	;RP0=0, select bank0
  3939  0624  1303               	bcf	3,6	;RP1=0, select bank0
  3940  0625  0822               	movf	?___xxtofl,w
  3941  0626  1683               	bsf	3,5	;RP0=1, select bank1
  3942  0627  1303               	bcf	3,6	;RP1=0, select bank1
  3943  0628  00A0               	movwf	___flsub@a^(0+128)
  3944  0629  160A  158A  2487  120A  118A  	fcall	___flsub
  3945  062E  1683               	bsf	3,5	;RP0=1, select bank1
  3946  062F  1303               	bcf	3,6	;RP1=0, select bank1
  3947  0630  0823               	movf	(?___flsub+3)^(0+128),w
  3948  0631  00AF               	movwf	(___fldiv@b+3)^(0+128)
  3949  0632  0822               	movf	(?___flsub+2)^(0+128),w
  3950  0633  00AE               	movwf	(___fldiv@b+2)^(0+128)
  3951  0634  0821               	movf	(?___flsub+1)^(0+128),w
  3952  0635  00AD               	movwf	(___fldiv@b+1)^(0+128)
  3953  0636  0820               	movf	?___flsub^(0+128),w
  3954  0637  00AC               	movwf	___fldiv@b^(0+128)
  3955  0638  303D               	movlw	61
  3956  0639  00AB               	movwf	(___fldiv@a+3)^(0+128)
  3957  063A  30CC               	movlw	204
  3958  063B  00AA               	movwf	(___fldiv@a+2)^(0+128)
  3959  063C  30CC               	movlw	204
  3960  063D  00A9               	movwf	(___fldiv@a+1)^(0+128)
  3961  063E  30CD               	movlw	205
  3962  063F  00A8               	movwf	___fldiv@a^(0+128)
  3963  0640  120A  158A  2090  120A  118A  	fcall	___fldiv
  3964  0645  1683               	bsf	3,5	;RP0=1, select bank1
  3965  0646  1303               	bcf	3,6	;RP1=0, select bank1
  3966  0647  082B               	movf	(?___fldiv+3)^(0+128),w
  3967  0648  00D0               	movwf	(_PrepareTempHumDataPacket$908+3)^(0+128)
  3968  0649  082A               	movf	(?___fldiv+2)^(0+128),w
  3969  064A  00CF               	movwf	(_PrepareTempHumDataPacket$908+2)^(0+128)
  3970  064B  0829               	movf	(?___fldiv+1)^(0+128),w
  3971  064C  00CE               	movwf	(_PrepareTempHumDataPacket$908+1)^(0+128)
  3972  064D  0828               	movf	?___fldiv^(0+128),w
  3973  064E  00CD               	movwf	_PrepareTempHumDataPacket$908^(0+128)
  3974                           
  3975                           ;main.c: 693:     tempHumDataPacketTx[6] = (char)((hum-(char)hum)/0.1);
  3976  064F  0850               	movf	(_PrepareTempHumDataPacket$908+3)^(0+128),w
  3977  0650  1283               	bcf	3,5	;RP0=0, select bank0
  3978  0651  1303               	bcf	3,6	;RP1=0, select bank0
  3979  0652  00CD               	movwf	___fltol@f1+3
  3980  0653  1683               	bsf	3,5	;RP0=1, select bank1
  3981  0654  1303               	bcf	3,6	;RP1=0, select bank1
  3982  0655  084F               	movf	(_PrepareTempHumDataPacket$908+2)^(0+128),w
  3983  0656  1283               	bcf	3,5	;RP0=0, select bank0
  3984  0657  1303               	bcf	3,6	;RP1=0, select bank0
  3985  0658  00CC               	movwf	___fltol@f1+2
  3986  0659  1683               	bsf	3,5	;RP0=1, select bank1
  3987  065A  1303               	bcf	3,6	;RP1=0, select bank1
  3988  065B  084E               	movf	(_PrepareTempHumDataPacket$908+1)^(0+128),w
  3989  065C  1283               	bcf	3,5	;RP0=0, select bank0
  3990  065D  1303               	bcf	3,6	;RP1=0, select bank0
  3991  065E  00CB               	movwf	___fltol@f1+1
  3992  065F  1683               	bsf	3,5	;RP0=1, select bank1
  3993  0660  1303               	bcf	3,6	;RP1=0, select bank1
  3994  0661  084D               	movf	_PrepareTempHumDataPacket$908^(0+128),w
  3995  0662  1283               	bcf	3,5	;RP0=0, select bank0
  3996  0663  1303               	bcf	3,6	;RP1=0, select bank0
  3997  0664  00CA               	movwf	___fltol@f1
  3998  0665  160A  158A  2784  120A  118A  	fcall	___fltol
  3999  066A  1283               	bcf	3,5	;RP0=0, select bank0
  4000  066B  1303               	bcf	3,6	;RP1=0, select bank0
  4001  066C  084A               	movf	?___fltol,w
  4002  066D  1683               	bsf	3,5	;RP0=1, select bank1
  4003  066E  1303               	bcf	3,6	;RP1=0, select bank1
  4004  066F  00C5               	movwf	??_PrepareTempHumDataPacket^(0+128)
  4005  0670  0845               	movf	??_PrepareTempHumDataPacket^(0+128),w
  4006  0671  1683               	bsf	3,5	;RP0=1, select bank3
  4007  0672  1703               	bsf	3,6	;RP1=1, select bank3
  4008  0673  00B1               	movwf	(_tempHumDataPacketTx^(0+384)+6)
  4009  0674                     l4065:
  4010                           
  4011                           ;main.c: 694:     tempHumDataPacketTx[7] = 0xFE;
  4012  0674  30FE               	movlw	254
  4013  0675  1683               	bsf	3,5	;RP0=1, select bank1
  4014  0676  1303               	bcf	3,6	;RP1=0, select bank1
  4015  0677  00C5               	movwf	??_PrepareTempHumDataPacket^(0+128)
  4016  0678  0845               	movf	??_PrepareTempHumDataPacket^(0+128),w
  4017  0679  1683               	bsf	3,5	;RP0=1, select bank3
  4018  067A  1703               	bsf	3,6	;RP1=1, select bank3
  4019  067B  00B2               	movwf	(_tempHumDataPacketTx^(0+384)+7)
  4020  067C                     l397:
  4021  067C  0008               	return
  4022  067D                     __end_of_PrepareTempHumDataPacket:
  4023                           
  4024                           	psect	text12
  4025  1A61                     __ptext12:	
  4026 ;; *************** function _ManageHeater *****************
  4027 ;; Defined at:
  4028 ;;		line 441 in file "main.c"
  4029 ;; Parameters:    Size  Location     Type
  4030 ;;  duty            1    wreg     unsigned char 
  4031 ;; Auto vars:     Size  Location     Type
  4032 ;;  duty            1    4[COMMON] unsigned char 
  4033 ;; Return value:  Size  Location     Type
  4034 ;;                  1    wreg      void 
  4035 ;; Registers used:
  4036 ;;		wreg, status,2, status,0
  4037 ;; Tracked objects:
  4038 ;;		On entry : 0/0
  4039 ;;		On exit  : 0/0
  4040 ;;		Unchanged: 0/0
  4041 ;; Data sizes:     COMMON   BANK0   BANK1   BANK3   BANK2
  4042 ;;      Params:         0       0       0       0       0
  4043 ;;      Locals:         1       0       0       0       0
  4044 ;;      Temps:          1       0       0       0       0
  4045 ;;      Totals:         2       0       0       0       0
  4046 ;;Total ram usage:        2 bytes
  4047 ;; Hardware stack levels used: 1
  4048 ;; Hardware stack levels required when called: 1
  4049 ;; This function calls:
  4050 ;;		Nothing
  4051 ;; This function is called by:
  4052 ;;		_main
  4053 ;; This function uses a non-reentrant model
  4054 ;;
  4055                           
  4056                           
  4057                           ;psect for function _ManageHeater
  4058  1A61                     _ManageHeater:
  4059                           
  4060                           ;incstack = 0
  4061                           ; Regs used in _ManageHeater: [wreg+status,2+status,0]
  4062                           ;ManageHeater@duty stored from wreg
  4063  1A61  00F4               	movwf	ManageHeater@duty
  4064  1A62                     l3537:
  4065                           
  4066                           ;main.c: 441: void ManageHeater(char duty);main.c: 442: {;main.c: 443:     if(dutyCounte
      +                          r<duty)
  4067  1A62  0874               	movf	ManageHeater@duty,w
  4068  1A63  1683               	bsf	3,5	;RP0=1, select bank1
  4069  1A64  1303               	bcf	3,6	;RP1=0, select bank1
  4070  1A65  025C               	subwf	_dutyCounter^(0+128),w
  4071  1A66  1803               	skipnc
  4072  1A67  2A69               	goto	u4981
  4073  1A68  2A6A               	goto	u4980
  4074  1A69                     u4981:
  4075  1A69  2A6E               	goto	l3541
  4076  1A6A                     u4980:
  4077  1A6A                     l3539:
  4078                           
  4079                           ;main.c: 444:     {;main.c: 445:         PORTC |= 1<<5;
  4080  1A6A  1283               	bcf	3,5	;RP0=0, select bank0
  4081  1A6B  1303               	bcf	3,6	;RP1=0, select bank0
  4082  1A6C  1687               	bsf	7,5	;volatile
  4083                           
  4084                           ;main.c: 446:     }
  4085  1A6D  2A74               	goto	l292
  4086  1A6E                     l3541:
  4087                           
  4088                           ;main.c: 448:     {;main.c: 449:         PORTC &= ~(1<<5);
  4089  1A6E  30DF               	movlw	223
  4090  1A6F  00F3               	movwf	??_ManageHeater
  4091  1A70  0873               	movf	??_ManageHeater,w
  4092  1A71  1283               	bcf	3,5	;RP0=0, select bank0
  4093  1A72  1303               	bcf	3,6	;RP1=0, select bank0
  4094  1A73  0587               	andwf	7,f	;volatile
  4095  1A74                     l292:
  4096  1A74  0008               	return
  4097  1A75                     __end_of_ManageHeater:
  4098                           
  4099                           	psect	text13
  4100  1B38                     __ptext13:	
  4101 ;; *************** function _ManageDisplays *****************
  4102 ;; Defined at:
  4103 ;;		line 416 in file "main.c"
  4104 ;; Parameters:    Size  Location     Type
  4105 ;;		None
  4106 ;; Auto vars:     Size  Location     Type
  4107 ;;		None
  4108 ;; Return value:  Size  Location     Type
  4109 ;;                  1    wreg      void 
  4110 ;; Registers used:
  4111 ;;		wreg, fsr0l, fsr0h, status,2, status,0, btemp+1, pclath, cstack
  4112 ;; Tracked objects:
  4113 ;;		On entry : 0/0
  4114 ;;		On exit  : 0/0
  4115 ;;		Unchanged: 0/0
  4116 ;; Data sizes:     COMMON   BANK0   BANK1   BANK3   BANK2
  4117 ;;      Params:         0       0       0       0       0
  4118 ;;      Locals:         0       0       0       0       0
  4119 ;;      Temps:          0       0       1       0       0
  4120 ;;      Totals:         0       0       1       0       0
  4121 ;;Total ram usage:        1 bytes
  4122 ;; Hardware stack levels used: 1
  4123 ;; Hardware stack levels required when called: 5
  4124 ;; This function calls:
  4125 ;;		_HandleKeypadReading
  4126 ;;		_SendLCD
  4127 ;;		_SendLCDString
  4128 ;;		_UpdateLCDViewWithNumber
  4129 ;; This function is called by:
  4130 ;;		_main
  4131 ;; This function uses a non-reentrant model
  4132 ;;
  4133                           
  4134                           
  4135                           ;psect for function _ManageDisplays
  4136  1B38                     _ManageDisplays:
  4137  1B38                     l4387:	
  4138                           ;incstack = 0
  4139                           ; Regs used in _ManageDisplays: [wreg-fsr0h+status,2+status,0+btemp+1+pclath+cstack]
  4140                           
  4141                           
  4142                           ;main.c: 418:     HandleKeypadReading(keypadReading);
  4143  1B38  1683               	bsf	3,5	;RP0=1, select bank1
  4144  1B39  1303               	bcf	3,6	;RP1=0, select bank1
  4145  1B3A  085D               	movf	_keypadReading^(0+128),w
  4146  1B3B  160A  118A  26EF  160A  158A  	fcall	_HandleKeypadReading
  4147  1B40                     l4389:
  4148                           
  4149                           ;main.c: 419:     if(currentDisplay != oldDisplay)
  4150  1B40  0879               	movf	_currentDisplay,w
  4151  1B41  1683               	bsf	3,5	;RP0=1, select bank1
  4152  1B42  1303               	bcf	3,6	;RP1=0, select bank1
  4153  1B43  065B               	xorwf	_oldDisplay^(0+128),w
  4154  1B44  1903               	skipnz
  4155  1B45  2B47               	goto	u6531
  4156  1B46  2B48               	goto	u6530
  4157  1B47                     u6531:
  4158  1B47  2B5F               	goto	l4397
  4159  1B48                     u6530:
  4160  1B48                     l4391:
  4161                           
  4162                           ;main.c: 420:     {;main.c: 421:         SendLCD(0x01,0x00);
  4163  1B48  01F3               	clrf	SendLCD@type
  4164  1B49  3001               	movlw	1
  4165  1B4A  160A  158A  2307  160A  158A  	fcall	_SendLCD
  4166  1B4F                     l4393:
  4167                           
  4168                           ;main.c: 422:         SendLCDString(displays[currentDisplay]);
  4169  1B4F  0879               	movf	_currentDisplay,w
  4170  1B50  3EBE               	addlw	(low (_displays| (0+256)))& (0+255)
  4171  1B51  0084               	movwf	4
  4172  1B52  1783               	bsf	3,7	;select IRP bank3
  4173  1B53  0800               	movf	0,w
  4174  1B54  160A  158A  252A  160A  158A  	fcall	_SendLCDString
  4175  1B59                     l4395:
  4176                           
  4177                           ;main.c: 423:         oldDisplay = currentDisplay;
  4178  1B59  0879               	movf	_currentDisplay,w
  4179  1B5A  1683               	bsf	3,5	;RP0=1, select bank1
  4180  1B5B  1303               	bcf	3,6	;RP1=0, select bank1
  4181  1B5C  00CA               	movwf	??_ManageDisplays^(0+128)
  4182  1B5D  084A               	movf	??_ManageDisplays^(0+128),w
  4183  1B5E  00DB               	movwf	_oldDisplay^(0+128)
  4184  1B5F                     l4397:
  4185                           
  4186                           ;main.c: 425:     if(currentDisplay == 3)
  4187  1B5F  3003               	movlw	3
  4188  1B60  0679               	xorwf	_currentDisplay,w
  4189  1B61  1D03               	btfss	3,2
  4190  1B62  2B64               	goto	u6541
  4191  1B63  2B65               	goto	u6540
  4192  1B64                     u6541:
  4193  1B64  2B73               	goto	l282
  4194  1B65                     u6540:
  4195  1B65                     l4399:
  4196                           
  4197                           ;main.c: 426:             UpdateLCDViewWithNumber(0xC6,setTemp);
  4198  1B65  0867               	movf	(_setTemp+3)^(0+128),w
  4199  1B66  00C0               	movwf	(UpdateLCDViewWithNumber@number+3)^(0+128)
  4200  1B67  0866               	movf	(_setTemp+2)^(0+128),w
  4201  1B68  00BF               	movwf	(UpdateLCDViewWithNumber@number+2)^(0+128)
  4202  1B69  0865               	movf	(_setTemp+1)^(0+128),w
  4203  1B6A  00BE               	movwf	(UpdateLCDViewWithNumber@number+1)^(0+128)
  4204  1B6B  0864               	movf	_setTemp^(0+128),w
  4205  1B6C  00BD               	movwf	UpdateLCDViewWithNumber@number^(0+128)
  4206  1B6D  30C6               	movlw	198
  4207  1B6E  120A  158A  22F3  160A  158A  	fcall	_UpdateLCDViewWithNumber
  4208  1B73                     l282:
  4209  1B73  0008               	return
  4210  1B74                     __end_of_ManageDisplays:
  4211                           
  4212                           	psect	text14
  4213  0AF3                     __ptext14:	
  4214 ;; *************** function _UpdateLCDViewWithNumber *****************
  4215 ;; Defined at:
  4216 ;;		line 548 in file "main.c"
  4217 ;; Parameters:    Size  Location     Type
  4218 ;;  position        1    wreg     unsigned char 
  4219 ;;  number          4   29[BANK1 ] float 
  4220 ;; Auto vars:     Size  Location     Type
  4221 ;;  position        1   37[BANK1 ] unsigned char 
  4222 ;;  tens            1   41[BANK1 ] unsigned char 
  4223 ;;  hundreds        1   40[BANK1 ] unsigned char 
  4224 ;;  unit            1   39[BANK1 ] unsigned char 
  4225 ;;  decimal         1   38[BANK1 ] unsigned char 
  4226 ;; Return value:  Size  Location     Type
  4227 ;;                  1    wreg      void 
  4228 ;; Registers used:
  4229 ;;		wreg, status,2, status,0, btemp+1, pclath, cstack
  4230 ;; Tracked objects:
  4231 ;;		On entry : 0/0
  4232 ;;		On exit  : 0/0
  4233 ;;		Unchanged: 0/0
  4234 ;; Data sizes:     COMMON   BANK0   BANK1   BANK3   BANK2
  4235 ;;      Params:         0       0       4       0       0
  4236 ;;      Locals:         0       0       5       0       0
  4237 ;;      Temps:          0       0       4       0       0
  4238 ;;      Totals:         0       0      13       0       0
  4239 ;;Total ram usage:       13 bytes
  4240 ;; Hardware stack levels used: 1
  4241 ;; Hardware stack levels required when called: 3
  4242 ;; This function calls:
  4243 ;;		_SendLCD
  4244 ;;		___fldiv
  4245 ;;		___flge
  4246 ;;		___flmul
  4247 ;;		___flsub
  4248 ;;		___fltol
  4249 ;;		___wmul
  4250 ;;		___xxtofl
  4251 ;; This function is called by:
  4252 ;;		_ManageDisplays
  4253 ;;		_UpdateTempHumDisplay
  4254 ;;		_HandleRequest
  4255 ;; This function uses a non-reentrant model
  4256 ;;
  4257                           
  4258                           
  4259                           ;psect for function _UpdateLCDViewWithNumber
  4260  0AF3                     _UpdateLCDViewWithNumber:
  4261                           
  4262                           ;incstack = 0
  4263                           ; Regs used in _UpdateLCDViewWithNumber: [wreg+status,2+status,0+btemp+1+pclath+cstack]
  4264                           ;UpdateLCDViewWithNumber@position stored from wreg
  4265  0AF3  1683               	bsf	3,5	;RP0=1, select bank1
  4266  0AF4  1303               	bcf	3,6	;RP1=0, select bank1
  4267  0AF5  00C5               	movwf	UpdateLCDViewWithNumber@position^(0+128)
  4268  0AF6                     l3987:
  4269                           
  4270                           ;main.c: 548: void UpdateLCDViewWithNumber(char position, float number);main.c: 549: {;m
      +                          ain.c: 550:     SendLCD(position, 0x00);
  4271  0AF6  01F3               	clrf	SendLCD@type
  4272  0AF7  0845               	movf	UpdateLCDViewWithNumber@position^(0+128),w
  4273  0AF8  160A  158A  2307  120A  158A  	fcall	_SendLCD
  4274                           
  4275                           ;main.c: 551:     if(number < 0)
  4276  0AFD  1683               	bsf	3,5	;RP0=1, select bank1
  4277  0AFE  1303               	bcf	3,6	;RP1=0, select bank1
  4278  0AFF  0840               	movf	(UpdateLCDViewWithNumber@number+3)^(0+128),w
  4279  0B00  00A3               	movwf	(___flge@ff1+3)^(0+128)
  4280  0B01  083F               	movf	(UpdateLCDViewWithNumber@number+2)^(0+128),w
  4281  0B02  00A2               	movwf	(___flge@ff1+2)^(0+128)
  4282  0B03  083E               	movf	(UpdateLCDViewWithNumber@number+1)^(0+128),w
  4283  0B04  00A1               	movwf	(___flge@ff1+1)^(0+128)
  4284  0B05  083D               	movf	UpdateLCDViewWithNumber@number^(0+128),w
  4285  0B06  00A0               	movwf	___flge@ff1^(0+128)
  4286  0B07  3000               	movlw	0
  4287  0B08  00A7               	movwf	(___flge@ff2+3)^(0+128)
  4288  0B09  3000               	movlw	0
  4289  0B0A  00A6               	movwf	(___flge@ff2+2)^(0+128)
  4290  0B0B  3000               	movlw	0
  4291  0B0C  00A5               	movwf	(___flge@ff2+1)^(0+128)
  4292  0B0D  3000               	movlw	0
  4293  0B0E  00A4               	movwf	___flge@ff2^(0+128)
  4294  0B0F  160A  118A  25DF  120A  158A  	fcall	___flge
  4295  0B14  1803               	btfsc	3,0
  4296  0B15  2B17               	goto	u5821
  4297  0B16  2B18               	goto	u5820
  4298  0B17                     u5821:
  4299  0B17  2B5F               	goto	l3993
  4300  0B18                     u5820:
  4301  0B18                     l3989:
  4302                           
  4303                           ;main.c: 552:     {;main.c: 553:         SendLCD('-', 0x01);
  4304  0B18  01F3               	clrf	SendLCD@type
  4305  0B19  0AF3               	incf	SendLCD@type,f
  4306  0B1A  302D               	movlw	45
  4307  0B1B  160A  158A  2307  120A  158A  	fcall	_SendLCD
  4308  0B20                     l3991:
  4309                           
  4310                           ;main.c: 554:         number *= -1;
  4311  0B20  30BF               	movlw	191
  4312  0B21  1283               	bcf	3,5	;RP0=0, select bank0
  4313  0B22  1303               	bcf	3,6	;RP1=0, select bank0
  4314  0B23  00B3               	movwf	___flmul@b+3
  4315  0B24  3080               	movlw	128
  4316  0B25  00B2               	movwf	___flmul@b+2
  4317  0B26  3000               	movlw	0
  4318  0B27  00B1               	movwf	___flmul@b+1
  4319  0B28  3000               	movlw	0
  4320  0B29  00B0               	movwf	___flmul@b
  4321  0B2A  1683               	bsf	3,5	;RP0=1, select bank1
  4322  0B2B  1303               	bcf	3,6	;RP1=0, select bank1
  4323  0B2C  0840               	movf	(UpdateLCDViewWithNumber@number+3)^(0+128),w
  4324  0B2D  1283               	bcf	3,5	;RP0=0, select bank0
  4325  0B2E  1303               	bcf	3,6	;RP1=0, select bank0
  4326  0B2F  00B7               	movwf	___flmul@a+3
  4327  0B30  1683               	bsf	3,5	;RP0=1, select bank1
  4328  0B31  1303               	bcf	3,6	;RP1=0, select bank1
  4329  0B32  083F               	movf	(UpdateLCDViewWithNumber@number+2)^(0+128),w
  4330  0B33  1283               	bcf	3,5	;RP0=0, select bank0
  4331  0B34  1303               	bcf	3,6	;RP1=0, select bank0
  4332  0B35  00B6               	movwf	___flmul@a+2
  4333  0B36  1683               	bsf	3,5	;RP0=1, select bank1
  4334  0B37  1303               	bcf	3,6	;RP1=0, select bank1
  4335  0B38  083E               	movf	(UpdateLCDViewWithNumber@number+1)^(0+128),w
  4336  0B39  1283               	bcf	3,5	;RP0=0, select bank0
  4337  0B3A  1303               	bcf	3,6	;RP1=0, select bank0
  4338  0B3B  00B5               	movwf	___flmul@a+1
  4339  0B3C  1683               	bsf	3,5	;RP0=1, select bank1
  4340  0B3D  1303               	bcf	3,6	;RP1=0, select bank1
  4341  0B3E  083D               	movf	UpdateLCDViewWithNumber@number^(0+128),w
  4342  0B3F  1283               	bcf	3,5	;RP0=0, select bank0
  4343  0B40  1303               	bcf	3,6	;RP1=0, select bank0
  4344  0B41  00B4               	movwf	___flmul@a
  4345  0B42  120A  118A  2044  120A  158A  	fcall	___flmul
  4346  0B47  1283               	bcf	3,5	;RP0=0, select bank0
  4347  0B48  1303               	bcf	3,6	;RP1=0, select bank0
  4348  0B49  0833               	movf	?___flmul+3,w
  4349  0B4A  1683               	bsf	3,5	;RP0=1, select bank1
  4350  0B4B  1303               	bcf	3,6	;RP1=0, select bank1
  4351  0B4C  00C0               	movwf	(UpdateLCDViewWithNumber@number+3)^(0+128)
  4352  0B4D  1283               	bcf	3,5	;RP0=0, select bank0
  4353  0B4E  1303               	bcf	3,6	;RP1=0, select bank0
  4354  0B4F  0832               	movf	?___flmul+2,w
  4355  0B50  1683               	bsf	3,5	;RP0=1, select bank1
  4356  0B51  1303               	bcf	3,6	;RP1=0, select bank1
  4357  0B52  00BF               	movwf	(UpdateLCDViewWithNumber@number+2)^(0+128)
  4358  0B53  1283               	bcf	3,5	;RP0=0, select bank0
  4359  0B54  1303               	bcf	3,6	;RP1=0, select bank0
  4360  0B55  0831               	movf	?___flmul+1,w
  4361  0B56  1683               	bsf	3,5	;RP0=1, select bank1
  4362  0B57  1303               	bcf	3,6	;RP1=0, select bank1
  4363  0B58  00BE               	movwf	(UpdateLCDViewWithNumber@number+1)^(0+128)
  4364  0B59  1283               	bcf	3,5	;RP0=0, select bank0
  4365  0B5A  1303               	bcf	3,6	;RP1=0, select bank0
  4366  0B5B  0830               	movf	?___flmul,w
  4367  0B5C  1683               	bsf	3,5	;RP0=1, select bank1
  4368  0B5D  1303               	bcf	3,6	;RP1=0, select bank1
  4369  0B5E  00BD               	movwf	UpdateLCDViewWithNumber@number^(0+128)
  4370  0B5F                     l3993:
  4371                           
  4372                           ;main.c: 556:     char hundreds = (char)(number/100);
  4373  0B5F  1683               	bsf	3,5	;RP0=1, select bank1
  4374  0B60  1303               	bcf	3,6	;RP1=0, select bank1
  4375  0B61  0840               	movf	(UpdateLCDViewWithNumber@number+3)^(0+128),w
  4376  0B62  00AF               	movwf	(___fldiv@b+3)^(0+128)
  4377  0B63  083F               	movf	(UpdateLCDViewWithNumber@number+2)^(0+128),w
  4378  0B64  00AE               	movwf	(___fldiv@b+2)^(0+128)
  4379  0B65  083E               	movf	(UpdateLCDViewWithNumber@number+1)^(0+128),w
  4380  0B66  00AD               	movwf	(___fldiv@b+1)^(0+128)
  4381  0B67  083D               	movf	UpdateLCDViewWithNumber@number^(0+128),w
  4382  0B68  00AC               	movwf	___fldiv@b^(0+128)
  4383  0B69  3042               	movlw	66
  4384  0B6A  00AB               	movwf	(___fldiv@a+3)^(0+128)
  4385  0B6B  30C8               	movlw	200
  4386  0B6C  00AA               	movwf	(___fldiv@a+2)^(0+128)
  4387  0B6D  3000               	movlw	0
  4388  0B6E  00A9               	movwf	(___fldiv@a+1)^(0+128)
  4389  0B6F  3000               	movlw	0
  4390  0B70  00A8               	movwf	___fldiv@a^(0+128)
  4391  0B71  120A  158A  2090  120A  158A  	fcall	___fldiv
  4392  0B76  1683               	bsf	3,5	;RP0=1, select bank1
  4393  0B77  1303               	bcf	3,6	;RP1=0, select bank1
  4394  0B78  082B               	movf	(?___fldiv+3)^(0+128),w
  4395  0B79  1283               	bcf	3,5	;RP0=0, select bank0
  4396  0B7A  1303               	bcf	3,6	;RP1=0, select bank0
  4397  0B7B  00CD               	movwf	___fltol@f1+3
  4398  0B7C  1683               	bsf	3,5	;RP0=1, select bank1
  4399  0B7D  1303               	bcf	3,6	;RP1=0, select bank1
  4400  0B7E  082A               	movf	(?___fldiv+2)^(0+128),w
  4401  0B7F  1283               	bcf	3,5	;RP0=0, select bank0
  4402  0B80  1303               	bcf	3,6	;RP1=0, select bank0
  4403  0B81  00CC               	movwf	___fltol@f1+2
  4404  0B82  1683               	bsf	3,5	;RP0=1, select bank1
  4405  0B83  1303               	bcf	3,6	;RP1=0, select bank1
  4406  0B84  0829               	movf	(?___fldiv+1)^(0+128),w
  4407  0B85  1283               	bcf	3,5	;RP0=0, select bank0
  4408  0B86  1303               	bcf	3,6	;RP1=0, select bank0
  4409  0B87  00CB               	movwf	___fltol@f1+1
  4410  0B88  1683               	bsf	3,5	;RP0=1, select bank1
  4411  0B89  1303               	bcf	3,6	;RP1=0, select bank1
  4412  0B8A  0828               	movf	?___fldiv^(0+128),w
  4413  0B8B  1283               	bcf	3,5	;RP0=0, select bank0
  4414  0B8C  1303               	bcf	3,6	;RP1=0, select bank0
  4415  0B8D  00CA               	movwf	___fltol@f1
  4416  0B8E  160A  158A  2784  120A  158A  	fcall	___fltol
  4417  0B93  1283               	bcf	3,5	;RP0=0, select bank0
  4418  0B94  1303               	bcf	3,6	;RP1=0, select bank0
  4419  0B95  084A               	movf	?___fltol,w
  4420  0B96  1683               	bsf	3,5	;RP0=1, select bank1
  4421  0B97  1303               	bcf	3,6	;RP1=0, select bank1
  4422  0B98  00C1               	movwf	??_UpdateLCDViewWithNumber^(0+128)
  4423  0B99  0841               	movf	??_UpdateLCDViewWithNumber^(0+128),w
  4424  0B9A  00C8               	movwf	UpdateLCDViewWithNumber@hundreds^(0+128)
  4425  0B9B                     l3995:
  4426                           
  4427                           ;main.c: 557:     if(hundreds != 0) SendLCD(hundreds + '0', 0x01);
  4428  0B9B  0848               	movf	UpdateLCDViewWithNumber@hundreds^(0+128),w
  4429  0B9C  1903               	btfsc	3,2
  4430  0B9D  2B9F               	goto	u5831
  4431  0B9E  2BA0               	goto	u5830
  4432  0B9F                     u5831:
  4433  0B9F  2BA9               	goto	l3999
  4434  0BA0                     u5830:
  4435  0BA0                     l3997:
  4436  0BA0  01F3               	clrf	SendLCD@type
  4437  0BA1  0AF3               	incf	SendLCD@type,f
  4438  0BA2  0848               	movf	UpdateLCDViewWithNumber@hundreds^(0+128),w
  4439  0BA3  3E30               	addlw	48
  4440  0BA4  160A  158A  2307  120A  158A  	fcall	_SendLCD
  4441  0BA9                     l3999:
  4442                           
  4443                           ;main.c: 558:     number -= hundreds*100;
  4444  0BA9  3064               	movlw	100
  4445  0BAA  00F5               	movwf	___wmul@multiplicand
  4446  0BAB  3000               	movlw	0
  4447  0BAC  00F6               	movwf	___wmul@multiplicand+1
  4448  0BAD  1683               	bsf	3,5	;RP0=1, select bank1
  4449  0BAE  1303               	bcf	3,6	;RP1=0, select bank1
  4450  0BAF  0848               	movf	UpdateLCDViewWithNumber@hundreds^(0+128),w
  4451  0BB0  00C1               	movwf	??_UpdateLCDViewWithNumber^(0+128)
  4452  0BB1  01C2               	clrf	(??_UpdateLCDViewWithNumber^(0+128)+1)
  4453  0BB2  0841               	movf	??_UpdateLCDViewWithNumber^(0+128),w
  4454  0BB3  00F3               	movwf	___wmul@multiplier
  4455  0BB4  0842               	movf	(??_UpdateLCDViewWithNumber+1)^(0+128),w
  4456  0BB5  00F4               	movwf	___wmul@multiplier+1
  4457  0BB6  160A  158A  22DC  120A  158A  	fcall	___wmul
  4458  0BBB  0873               	movf	?___wmul,w
  4459  0BBC  1283               	bcf	3,5	;RP0=0, select bank0
  4460  0BBD  1303               	bcf	3,6	;RP1=0, select bank0
  4461  0BBE  00A2               	movwf	___xxtofl@val
  4462  0BBF  0874               	movf	?___wmul+1,w
  4463  0BC0  00A3               	movwf	___xxtofl@val+1
  4464  0BC1  3000               	movlw	0
  4465  0BC2  1BA3               	btfsc	___xxtofl@val+1,7
  4466  0BC3  30FF               	movlw	255
  4467  0BC4  00A4               	movwf	___xxtofl@val+2
  4468  0BC5  00A5               	movwf	___xxtofl@val+3
  4469  0BC6  3001               	movlw	1
  4470  0BC7  160A  118A  235B  120A  158A  	fcall	___xxtofl
  4471  0BCC  1283               	bcf	3,5	;RP0=0, select bank0
  4472  0BCD  1303               	bcf	3,6	;RP1=0, select bank0
  4473  0BCE  0825               	movf	?___xxtofl+3,w
  4474  0BCF  1683               	bsf	3,5	;RP0=1, select bank1
  4475  0BD0  1303               	bcf	3,6	;RP1=0, select bank1
  4476  0BD1  00A3               	movwf	(___flsub@a+3)^(0+128)
  4477  0BD2  1283               	bcf	3,5	;RP0=0, select bank0
  4478  0BD3  1303               	bcf	3,6	;RP1=0, select bank0
  4479  0BD4  0824               	movf	?___xxtofl+2,w
  4480  0BD5  1683               	bsf	3,5	;RP0=1, select bank1
  4481  0BD6  1303               	bcf	3,6	;RP1=0, select bank1
  4482  0BD7  00A2               	movwf	(___flsub@a+2)^(0+128)
  4483  0BD8  1283               	bcf	3,5	;RP0=0, select bank0
  4484  0BD9  1303               	bcf	3,6	;RP1=0, select bank0
  4485  0BDA  0823               	movf	?___xxtofl+1,w
  4486  0BDB  1683               	bsf	3,5	;RP0=1, select bank1
  4487  0BDC  1303               	bcf	3,6	;RP1=0, select bank1
  4488  0BDD  00A1               	movwf	(___flsub@a+1)^(0+128)
  4489  0BDE  1283               	bcf	3,5	;RP0=0, select bank0
  4490  0BDF  1303               	bcf	3,6	;RP1=0, select bank0
  4491  0BE0  0822               	movf	?___xxtofl,w
  4492  0BE1  1683               	bsf	3,5	;RP0=1, select bank1
  4493  0BE2  1303               	bcf	3,6	;RP1=0, select bank1
  4494  0BE3  00A0               	movwf	___flsub@a^(0+128)
  4495  0BE4  0840               	movf	(UpdateLCDViewWithNumber@number+3)^(0+128),w
  4496  0BE5  00A7               	movwf	(___flsub@b+3)^(0+128)
  4497  0BE6  083F               	movf	(UpdateLCDViewWithNumber@number+2)^(0+128),w
  4498  0BE7  00A6               	movwf	(___flsub@b+2)^(0+128)
  4499  0BE8  083E               	movf	(UpdateLCDViewWithNumber@number+1)^(0+128),w
  4500  0BE9  00A5               	movwf	(___flsub@b+1)^(0+128)
  4501  0BEA  083D               	movf	UpdateLCDViewWithNumber@number^(0+128),w
  4502  0BEB  00A4               	movwf	___flsub@b^(0+128)
  4503  0BEC  160A  158A  2487  120A  158A  	fcall	___flsub
  4504  0BF1  1683               	bsf	3,5	;RP0=1, select bank1
  4505  0BF2  1303               	bcf	3,6	;RP1=0, select bank1
  4506  0BF3  0823               	movf	(?___flsub+3)^(0+128),w
  4507  0BF4  00C0               	movwf	(UpdateLCDViewWithNumber@number+3)^(0+128)
  4508  0BF5  0822               	movf	(?___flsub+2)^(0+128),w
  4509  0BF6  00BF               	movwf	(UpdateLCDViewWithNumber@number+2)^(0+128)
  4510  0BF7  0821               	movf	(?___flsub+1)^(0+128),w
  4511  0BF8  00BE               	movwf	(UpdateLCDViewWithNumber@number+1)^(0+128)
  4512  0BF9  0820               	movf	?___flsub^(0+128),w
  4513  0BFA  00BD               	movwf	UpdateLCDViewWithNumber@number^(0+128)
  4514  0BFB                     l4001:
  4515                           
  4516                           ;main.c: 559:     char tens = (char)(number/10);
  4517  0BFB  0840               	movf	(UpdateLCDViewWithNumber@number+3)^(0+128),w
  4518  0BFC  00AF               	movwf	(___fldiv@b+3)^(0+128)
  4519  0BFD  083F               	movf	(UpdateLCDViewWithNumber@number+2)^(0+128),w
  4520  0BFE  00AE               	movwf	(___fldiv@b+2)^(0+128)
  4521  0BFF  083E               	movf	(UpdateLCDViewWithNumber@number+1)^(0+128),w
  4522  0C00  00AD               	movwf	(___fldiv@b+1)^(0+128)
  4523  0C01  083D               	movf	UpdateLCDViewWithNumber@number^(0+128),w
  4524  0C02  00AC               	movwf	___fldiv@b^(0+128)
  4525  0C03  3041               	movlw	65
  4526  0C04  00AB               	movwf	(___fldiv@a+3)^(0+128)
  4527  0C05  3020               	movlw	32
  4528  0C06  00AA               	movwf	(___fldiv@a+2)^(0+128)
  4529  0C07  3000               	movlw	0
  4530  0C08  00A9               	movwf	(___fldiv@a+1)^(0+128)
  4531  0C09  3000               	movlw	0
  4532  0C0A  00A8               	movwf	___fldiv@a^(0+128)
  4533  0C0B  120A  158A  2090  120A  158A  	fcall	___fldiv
  4534  0C10  1683               	bsf	3,5	;RP0=1, select bank1
  4535  0C11  1303               	bcf	3,6	;RP1=0, select bank1
  4536  0C12  082B               	movf	(?___fldiv+3)^(0+128),w
  4537  0C13  1283               	bcf	3,5	;RP0=0, select bank0
  4538  0C14  1303               	bcf	3,6	;RP1=0, select bank0
  4539  0C15  00CD               	movwf	___fltol@f1+3
  4540  0C16  1683               	bsf	3,5	;RP0=1, select bank1
  4541  0C17  1303               	bcf	3,6	;RP1=0, select bank1
  4542  0C18  082A               	movf	(?___fldiv+2)^(0+128),w
  4543  0C19  1283               	bcf	3,5	;RP0=0, select bank0
  4544  0C1A  1303               	bcf	3,6	;RP1=0, select bank0
  4545  0C1B  00CC               	movwf	___fltol@f1+2
  4546  0C1C  1683               	bsf	3,5	;RP0=1, select bank1
  4547  0C1D  1303               	bcf	3,6	;RP1=0, select bank1
  4548  0C1E  0829               	movf	(?___fldiv+1)^(0+128),w
  4549  0C1F  1283               	bcf	3,5	;RP0=0, select bank0
  4550  0C20  1303               	bcf	3,6	;RP1=0, select bank0
  4551  0C21  00CB               	movwf	___fltol@f1+1
  4552  0C22  1683               	bsf	3,5	;RP0=1, select bank1
  4553  0C23  1303               	bcf	3,6	;RP1=0, select bank1
  4554  0C24  0828               	movf	?___fldiv^(0+128),w
  4555  0C25  1283               	bcf	3,5	;RP0=0, select bank0
  4556  0C26  1303               	bcf	3,6	;RP1=0, select bank0
  4557  0C27  00CA               	movwf	___fltol@f1
  4558  0C28  160A  158A  2784  120A  158A  	fcall	___fltol
  4559  0C2D  1283               	bcf	3,5	;RP0=0, select bank0
  4560  0C2E  1303               	bcf	3,6	;RP1=0, select bank0
  4561  0C2F  084A               	movf	?___fltol,w
  4562  0C30  1683               	bsf	3,5	;RP0=1, select bank1
  4563  0C31  1303               	bcf	3,6	;RP1=0, select bank1
  4564  0C32  00C1               	movwf	??_UpdateLCDViewWithNumber^(0+128)
  4565  0C33  0841               	movf	??_UpdateLCDViewWithNumber^(0+128),w
  4566  0C34  00C9               	movwf	UpdateLCDViewWithNumber@tens^(0+128)
  4567  0C35                     l4003:
  4568                           
  4569                           ;main.c: 560:     if(tens != 0) SendLCD(tens + '0', 0x01);
  4570  0C35  0849               	movf	UpdateLCDViewWithNumber@tens^(0+128),w
  4571  0C36  1903               	btfsc	3,2
  4572  0C37  2C39               	goto	u5841
  4573  0C38  2C3A               	goto	u5840
  4574  0C39                     u5841:
  4575  0C39  2C43               	goto	l4007
  4576  0C3A                     u5840:
  4577  0C3A                     l4005:
  4578  0C3A  01F3               	clrf	SendLCD@type
  4579  0C3B  0AF3               	incf	SendLCD@type,f
  4580  0C3C  0849               	movf	UpdateLCDViewWithNumber@tens^(0+128),w
  4581  0C3D  3E30               	addlw	48
  4582  0C3E  160A  158A  2307  120A  158A  	fcall	_SendLCD
  4583  0C43                     l4007:
  4584                           
  4585                           ;main.c: 561:     number -= tens * 10;
  4586  0C43  300A               	movlw	10
  4587  0C44  00F5               	movwf	___wmul@multiplicand
  4588  0C45  3000               	movlw	0
  4589  0C46  00F6               	movwf	___wmul@multiplicand+1
  4590  0C47  1683               	bsf	3,5	;RP0=1, select bank1
  4591  0C48  1303               	bcf	3,6	;RP1=0, select bank1
  4592  0C49  0849               	movf	UpdateLCDViewWithNumber@tens^(0+128),w
  4593  0C4A  00C1               	movwf	??_UpdateLCDViewWithNumber^(0+128)
  4594  0C4B  01C2               	clrf	(??_UpdateLCDViewWithNumber^(0+128)+1)
  4595  0C4C  0841               	movf	??_UpdateLCDViewWithNumber^(0+128),w
  4596  0C4D  00F3               	movwf	___wmul@multiplier
  4597  0C4E  0842               	movf	(??_UpdateLCDViewWithNumber+1)^(0+128),w
  4598  0C4F  00F4               	movwf	___wmul@multiplier+1
  4599  0C50  160A  158A  22DC  120A  158A  	fcall	___wmul
  4600  0C55  0873               	movf	?___wmul,w
  4601  0C56  1283               	bcf	3,5	;RP0=0, select bank0
  4602  0C57  1303               	bcf	3,6	;RP1=0, select bank0
  4603  0C58  00A2               	movwf	___xxtofl@val
  4604  0C59  0874               	movf	?___wmul+1,w
  4605  0C5A  00A3               	movwf	___xxtofl@val+1
  4606  0C5B  3000               	movlw	0
  4607  0C5C  1BA3               	btfsc	___xxtofl@val+1,7
  4608  0C5D  30FF               	movlw	255
  4609  0C5E  00A4               	movwf	___xxtofl@val+2
  4610  0C5F  00A5               	movwf	___xxtofl@val+3
  4611  0C60  3001               	movlw	1
  4612  0C61  160A  118A  235B  120A  158A  	fcall	___xxtofl
  4613  0C66  1283               	bcf	3,5	;RP0=0, select bank0
  4614  0C67  1303               	bcf	3,6	;RP1=0, select bank0
  4615  0C68  0825               	movf	?___xxtofl+3,w
  4616  0C69  1683               	bsf	3,5	;RP0=1, select bank1
  4617  0C6A  1303               	bcf	3,6	;RP1=0, select bank1
  4618  0C6B  00A3               	movwf	(___flsub@a+3)^(0+128)
  4619  0C6C  1283               	bcf	3,5	;RP0=0, select bank0
  4620  0C6D  1303               	bcf	3,6	;RP1=0, select bank0
  4621  0C6E  0824               	movf	?___xxtofl+2,w
  4622  0C6F  1683               	bsf	3,5	;RP0=1, select bank1
  4623  0C70  1303               	bcf	3,6	;RP1=0, select bank1
  4624  0C71  00A2               	movwf	(___flsub@a+2)^(0+128)
  4625  0C72  1283               	bcf	3,5	;RP0=0, select bank0
  4626  0C73  1303               	bcf	3,6	;RP1=0, select bank0
  4627  0C74  0823               	movf	?___xxtofl+1,w
  4628  0C75  1683               	bsf	3,5	;RP0=1, select bank1
  4629  0C76  1303               	bcf	3,6	;RP1=0, select bank1
  4630  0C77  00A1               	movwf	(___flsub@a+1)^(0+128)
  4631  0C78  1283               	bcf	3,5	;RP0=0, select bank0
  4632  0C79  1303               	bcf	3,6	;RP1=0, select bank0
  4633  0C7A  0822               	movf	?___xxtofl,w
  4634  0C7B  1683               	bsf	3,5	;RP0=1, select bank1
  4635  0C7C  1303               	bcf	3,6	;RP1=0, select bank1
  4636  0C7D  00A0               	movwf	___flsub@a^(0+128)
  4637  0C7E  0840               	movf	(UpdateLCDViewWithNumber@number+3)^(0+128),w
  4638  0C7F  00A7               	movwf	(___flsub@b+3)^(0+128)
  4639  0C80  083F               	movf	(UpdateLCDViewWithNumber@number+2)^(0+128),w
  4640  0C81  00A6               	movwf	(___flsub@b+2)^(0+128)
  4641  0C82  083E               	movf	(UpdateLCDViewWithNumber@number+1)^(0+128),w
  4642  0C83  00A5               	movwf	(___flsub@b+1)^(0+128)
  4643  0C84  083D               	movf	UpdateLCDViewWithNumber@number^(0+128),w
  4644  0C85  00A4               	movwf	___flsub@b^(0+128)
  4645  0C86  160A  158A  2487  120A  158A  	fcall	___flsub
  4646  0C8B  1683               	bsf	3,5	;RP0=1, select bank1
  4647  0C8C  1303               	bcf	3,6	;RP1=0, select bank1
  4648  0C8D  0823               	movf	(?___flsub+3)^(0+128),w
  4649  0C8E  00C0               	movwf	(UpdateLCDViewWithNumber@number+3)^(0+128)
  4650  0C8F  0822               	movf	(?___flsub+2)^(0+128),w
  4651  0C90  00BF               	movwf	(UpdateLCDViewWithNumber@number+2)^(0+128)
  4652  0C91  0821               	movf	(?___flsub+1)^(0+128),w
  4653  0C92  00BE               	movwf	(UpdateLCDViewWithNumber@number+1)^(0+128)
  4654  0C93  0820               	movf	?___flsub^(0+128),w
  4655  0C94  00BD               	movwf	UpdateLCDViewWithNumber@number^(0+128)
  4656  0C95                     l4009:
  4657                           
  4658                           ;main.c: 562:     char unit = (char)(number/1);
  4659  0C95  0840               	movf	(UpdateLCDViewWithNumber@number+3)^(0+128),w
  4660  0C96  00AF               	movwf	(___fldiv@b+3)^(0+128)
  4661  0C97  083F               	movf	(UpdateLCDViewWithNumber@number+2)^(0+128),w
  4662  0C98  00AE               	movwf	(___fldiv@b+2)^(0+128)
  4663  0C99  083E               	movf	(UpdateLCDViewWithNumber@number+1)^(0+128),w
  4664  0C9A  00AD               	movwf	(___fldiv@b+1)^(0+128)
  4665  0C9B  083D               	movf	UpdateLCDViewWithNumber@number^(0+128),w
  4666  0C9C  00AC               	movwf	___fldiv@b^(0+128)
  4667  0C9D  303F               	movlw	63
  4668  0C9E  00AB               	movwf	(___fldiv@a+3)^(0+128)
  4669  0C9F  3080               	movlw	128
  4670  0CA0  00AA               	movwf	(___fldiv@a+2)^(0+128)
  4671  0CA1  3000               	movlw	0
  4672  0CA2  00A9               	movwf	(___fldiv@a+1)^(0+128)
  4673  0CA3  3000               	movlw	0
  4674  0CA4  00A8               	movwf	___fldiv@a^(0+128)
  4675  0CA5  120A  158A  2090  120A  158A  	fcall	___fldiv
  4676  0CAA  1683               	bsf	3,5	;RP0=1, select bank1
  4677  0CAB  1303               	bcf	3,6	;RP1=0, select bank1
  4678  0CAC  082B               	movf	(?___fldiv+3)^(0+128),w
  4679  0CAD  1283               	bcf	3,5	;RP0=0, select bank0
  4680  0CAE  1303               	bcf	3,6	;RP1=0, select bank0
  4681  0CAF  00CD               	movwf	___fltol@f1+3
  4682  0CB0  1683               	bsf	3,5	;RP0=1, select bank1
  4683  0CB1  1303               	bcf	3,6	;RP1=0, select bank1
  4684  0CB2  082A               	movf	(?___fldiv+2)^(0+128),w
  4685  0CB3  1283               	bcf	3,5	;RP0=0, select bank0
  4686  0CB4  1303               	bcf	3,6	;RP1=0, select bank0
  4687  0CB5  00CC               	movwf	___fltol@f1+2
  4688  0CB6  1683               	bsf	3,5	;RP0=1, select bank1
  4689  0CB7  1303               	bcf	3,6	;RP1=0, select bank1
  4690  0CB8  0829               	movf	(?___fldiv+1)^(0+128),w
  4691  0CB9  1283               	bcf	3,5	;RP0=0, select bank0
  4692  0CBA  1303               	bcf	3,6	;RP1=0, select bank0
  4693  0CBB  00CB               	movwf	___fltol@f1+1
  4694  0CBC  1683               	bsf	3,5	;RP0=1, select bank1
  4695  0CBD  1303               	bcf	3,6	;RP1=0, select bank1
  4696  0CBE  0828               	movf	?___fldiv^(0+128),w
  4697  0CBF  1283               	bcf	3,5	;RP0=0, select bank0
  4698  0CC0  1303               	bcf	3,6	;RP1=0, select bank0
  4699  0CC1  00CA               	movwf	___fltol@f1
  4700  0CC2  160A  158A  2784  120A  158A  	fcall	___fltol
  4701  0CC7  1283               	bcf	3,5	;RP0=0, select bank0
  4702  0CC8  1303               	bcf	3,6	;RP1=0, select bank0
  4703  0CC9  084A               	movf	?___fltol,w
  4704  0CCA  1683               	bsf	3,5	;RP0=1, select bank1
  4705  0CCB  1303               	bcf	3,6	;RP1=0, select bank1
  4706  0CCC  00C1               	movwf	??_UpdateLCDViewWithNumber^(0+128)
  4707  0CCD  0841               	movf	??_UpdateLCDViewWithNumber^(0+128),w
  4708  0CCE  00C7               	movwf	UpdateLCDViewWithNumber@unit^(0+128)
  4709                           
  4710                           ;main.c: 563:     SendLCD(unit + '0', 0x01);
  4711  0CCF  01F3               	clrf	SendLCD@type
  4712  0CD0  0AF3               	incf	SendLCD@type,f
  4713  0CD1  0847               	movf	UpdateLCDViewWithNumber@unit^(0+128),w
  4714  0CD2  3E30               	addlw	48
  4715  0CD3  160A  158A  2307  120A  158A  	fcall	_SendLCD
  4716  0CD8                     l4011:
  4717                           
  4718                           ;main.c: 564:     number -= unit;
  4719  0CD8  1683               	bsf	3,5	;RP0=1, select bank1
  4720  0CD9  1303               	bcf	3,6	;RP1=0, select bank1
  4721  0CDA  0847               	movf	UpdateLCDViewWithNumber@unit^(0+128),w
  4722  0CDB  00C1               	movwf	??_UpdateLCDViewWithNumber^(0+128)
  4723  0CDC  01C2               	clrf	(??_UpdateLCDViewWithNumber^(0+128)+1)
  4724  0CDD  01C3               	clrf	(??_UpdateLCDViewWithNumber^(0+128)+2)
  4725  0CDE  01C4               	clrf	(??_UpdateLCDViewWithNumber^(0+128)+3)
  4726  0CDF  0844               	movf	(??_UpdateLCDViewWithNumber+3)^(0+128),w
  4727  0CE0  1283               	bcf	3,5	;RP0=0, select bank0
  4728  0CE1  1303               	bcf	3,6	;RP1=0, select bank0
  4729  0CE2  00A5               	movwf	___xxtofl@val+3
  4730  0CE3  1683               	bsf	3,5	;RP0=1, select bank1
  4731  0CE4  1303               	bcf	3,6	;RP1=0, select bank1
  4732  0CE5  0843               	movf	(??_UpdateLCDViewWithNumber+2)^(0+128),w
  4733  0CE6  1283               	bcf	3,5	;RP0=0, select bank0
  4734  0CE7  1303               	bcf	3,6	;RP1=0, select bank0
  4735  0CE8  00A4               	movwf	___xxtofl@val+2
  4736  0CE9  1683               	bsf	3,5	;RP0=1, select bank1
  4737  0CEA  1303               	bcf	3,6	;RP1=0, select bank1
  4738  0CEB  0842               	movf	(??_UpdateLCDViewWithNumber+1)^(0+128),w
  4739  0CEC  1283               	bcf	3,5	;RP0=0, select bank0
  4740  0CED  1303               	bcf	3,6	;RP1=0, select bank0
  4741  0CEE  00A3               	movwf	___xxtofl@val+1
  4742  0CEF  1683               	bsf	3,5	;RP0=1, select bank1
  4743  0CF0  1303               	bcf	3,6	;RP1=0, select bank1
  4744  0CF1  0841               	movf	??_UpdateLCDViewWithNumber^(0+128),w
  4745  0CF2  1283               	bcf	3,5	;RP0=0, select bank0
  4746  0CF3  1303               	bcf	3,6	;RP1=0, select bank0
  4747  0CF4  00A2               	movwf	___xxtofl@val
  4748  0CF5  3001               	movlw	1
  4749  0CF6  160A  118A  235B  120A  158A  	fcall	___xxtofl
  4750  0CFB  1283               	bcf	3,5	;RP0=0, select bank0
  4751  0CFC  1303               	bcf	3,6	;RP1=0, select bank0
  4752  0CFD  0825               	movf	?___xxtofl+3,w
  4753  0CFE  1683               	bsf	3,5	;RP0=1, select bank1
  4754  0CFF  1303               	bcf	3,6	;RP1=0, select bank1
  4755  0D00  00A3               	movwf	(___flsub@a+3)^(0+128)
  4756  0D01  1283               	bcf	3,5	;RP0=0, select bank0
  4757  0D02  1303               	bcf	3,6	;RP1=0, select bank0
  4758  0D03  0824               	movf	?___xxtofl+2,w
  4759  0D04  1683               	bsf	3,5	;RP0=1, select bank1
  4760  0D05  1303               	bcf	3,6	;RP1=0, select bank1
  4761  0D06  00A2               	movwf	(___flsub@a+2)^(0+128)
  4762  0D07  1283               	bcf	3,5	;RP0=0, select bank0
  4763  0D08  1303               	bcf	3,6	;RP1=0, select bank0
  4764  0D09  0823               	movf	?___xxtofl+1,w
  4765  0D0A  1683               	bsf	3,5	;RP0=1, select bank1
  4766  0D0B  1303               	bcf	3,6	;RP1=0, select bank1
  4767  0D0C  00A1               	movwf	(___flsub@a+1)^(0+128)
  4768  0D0D  1283               	bcf	3,5	;RP0=0, select bank0
  4769  0D0E  1303               	bcf	3,6	;RP1=0, select bank0
  4770  0D0F  0822               	movf	?___xxtofl,w
  4771  0D10  1683               	bsf	3,5	;RP0=1, select bank1
  4772  0D11  1303               	bcf	3,6	;RP1=0, select bank1
  4773  0D12  00A0               	movwf	___flsub@a^(0+128)
  4774  0D13  0840               	movf	(UpdateLCDViewWithNumber@number+3)^(0+128),w
  4775  0D14  00A7               	movwf	(___flsub@b+3)^(0+128)
  4776  0D15  083F               	movf	(UpdateLCDViewWithNumber@number+2)^(0+128),w
  4777  0D16  00A6               	movwf	(___flsub@b+2)^(0+128)
  4778  0D17  083E               	movf	(UpdateLCDViewWithNumber@number+1)^(0+128),w
  4779  0D18  00A5               	movwf	(___flsub@b+1)^(0+128)
  4780  0D19  083D               	movf	UpdateLCDViewWithNumber@number^(0+128),w
  4781  0D1A  00A4               	movwf	___flsub@b^(0+128)
  4782  0D1B  160A  158A  2487  120A  158A  	fcall	___flsub
  4783  0D20  1683               	bsf	3,5	;RP0=1, select bank1
  4784  0D21  1303               	bcf	3,6	;RP1=0, select bank1
  4785  0D22  0823               	movf	(?___flsub+3)^(0+128),w
  4786  0D23  00C0               	movwf	(UpdateLCDViewWithNumber@number+3)^(0+128)
  4787  0D24  0822               	movf	(?___flsub+2)^(0+128),w
  4788  0D25  00BF               	movwf	(UpdateLCDViewWithNumber@number+2)^(0+128)
  4789  0D26  0821               	movf	(?___flsub+1)^(0+128),w
  4790  0D27  00BE               	movwf	(UpdateLCDViewWithNumber@number+1)^(0+128)
  4791  0D28  0820               	movf	?___flsub^(0+128),w
  4792  0D29  00BD               	movwf	UpdateLCDViewWithNumber@number^(0+128)
  4793  0D2A                     l4013:
  4794                           
  4795                           ;main.c: 565:     char decimal = (char)(number/0.1);
  4796  0D2A  0840               	movf	(UpdateLCDViewWithNumber@number+3)^(0+128),w
  4797  0D2B  00AF               	movwf	(___fldiv@b+3)^(0+128)
  4798  0D2C  083F               	movf	(UpdateLCDViewWithNumber@number+2)^(0+128),w
  4799  0D2D  00AE               	movwf	(___fldiv@b+2)^(0+128)
  4800  0D2E  083E               	movf	(UpdateLCDViewWithNumber@number+1)^(0+128),w
  4801  0D2F  00AD               	movwf	(___fldiv@b+1)^(0+128)
  4802  0D30  083D               	movf	UpdateLCDViewWithNumber@number^(0+128),w
  4803  0D31  00AC               	movwf	___fldiv@b^(0+128)
  4804  0D32  303D               	movlw	61
  4805  0D33  00AB               	movwf	(___fldiv@a+3)^(0+128)
  4806  0D34  30CC               	movlw	204
  4807  0D35  00AA               	movwf	(___fldiv@a+2)^(0+128)
  4808  0D36  30CC               	movlw	204
  4809  0D37  00A9               	movwf	(___fldiv@a+1)^(0+128)
  4810  0D38  30CD               	movlw	205
  4811  0D39  00A8               	movwf	___fldiv@a^(0+128)
  4812  0D3A  120A  158A  2090  120A  158A  	fcall	___fldiv
  4813  0D3F  1683               	bsf	3,5	;RP0=1, select bank1
  4814  0D40  1303               	bcf	3,6	;RP1=0, select bank1
  4815  0D41  082B               	movf	(?___fldiv+3)^(0+128),w
  4816  0D42  1283               	bcf	3,5	;RP0=0, select bank0
  4817  0D43  1303               	bcf	3,6	;RP1=0, select bank0
  4818  0D44  00CD               	movwf	___fltol@f1+3
  4819  0D45  1683               	bsf	3,5	;RP0=1, select bank1
  4820  0D46  1303               	bcf	3,6	;RP1=0, select bank1
  4821  0D47  082A               	movf	(?___fldiv+2)^(0+128),w
  4822  0D48  1283               	bcf	3,5	;RP0=0, select bank0
  4823  0D49  1303               	bcf	3,6	;RP1=0, select bank0
  4824  0D4A  00CC               	movwf	___fltol@f1+2
  4825  0D4B  1683               	bsf	3,5	;RP0=1, select bank1
  4826  0D4C  1303               	bcf	3,6	;RP1=0, select bank1
  4827  0D4D  0829               	movf	(?___fldiv+1)^(0+128),w
  4828  0D4E  1283               	bcf	3,5	;RP0=0, select bank0
  4829  0D4F  1303               	bcf	3,6	;RP1=0, select bank0
  4830  0D50  00CB               	movwf	___fltol@f1+1
  4831  0D51  1683               	bsf	3,5	;RP0=1, select bank1
  4832  0D52  1303               	bcf	3,6	;RP1=0, select bank1
  4833  0D53  0828               	movf	?___fldiv^(0+128),w
  4834  0D54  1283               	bcf	3,5	;RP0=0, select bank0
  4835  0D55  1303               	bcf	3,6	;RP1=0, select bank0
  4836  0D56  00CA               	movwf	___fltol@f1
  4837  0D57  160A  158A  2784  120A  158A  	fcall	___fltol
  4838  0D5C  1283               	bcf	3,5	;RP0=0, select bank0
  4839  0D5D  1303               	bcf	3,6	;RP1=0, select bank0
  4840  0D5E  084A               	movf	?___fltol,w
  4841  0D5F  1683               	bsf	3,5	;RP0=1, select bank1
  4842  0D60  1303               	bcf	3,6	;RP1=0, select bank1
  4843  0D61  00C1               	movwf	??_UpdateLCDViewWithNumber^(0+128)
  4844  0D62  0841               	movf	??_UpdateLCDViewWithNumber^(0+128),w
  4845  0D63  00C6               	movwf	UpdateLCDViewWithNumber@decimal^(0+128)
  4846                           
  4847                           ;main.c: 566:     SendLCD('.', 0x01);
  4848  0D64  01F3               	clrf	SendLCD@type
  4849  0D65  0AF3               	incf	SendLCD@type,f
  4850  0D66  302E               	movlw	46
  4851  0D67  160A  158A  2307  120A  158A  	fcall	_SendLCD
  4852                           
  4853                           ;main.c: 567:     SendLCD(decimal + '0', 0x01);
  4854  0D6C  01F3               	clrf	SendLCD@type
  4855  0D6D  0AF3               	incf	SendLCD@type,f
  4856  0D6E  1683               	bsf	3,5	;RP0=1, select bank1
  4857  0D6F  1303               	bcf	3,6	;RP1=0, select bank1
  4858  0D70  0846               	movf	UpdateLCDViewWithNumber@decimal^(0+128),w
  4859  0D71  3E30               	addlw	48
  4860  0D72  160A  158A  2307  120A  158A  	fcall	_SendLCD
  4861  0D77                     l341:
  4862  0D77  0008               	return
  4863  0D78                     __end_of_UpdateLCDViewWithNumber:
  4864                           
  4865                           	psect	text15
  4866  0044                     __ptext15:	
  4867 ;; *************** function ___flmul *****************
  4868 ;; Defined at:
  4869 ;;		line 8 in file "C:\Program Files\Microchip\xc8\v2.32\pic\sources\c90\common\sprcmul.c"
  4870 ;; Parameters:    Size  Location     Type
  4871 ;;  b               4   16[BANK0 ] void 
  4872 ;;  a               4   20[BANK0 ] void 
  4873 ;; Auto vars:     Size  Location     Type
  4874 ;;  prod            4   36[BANK0 ] struct .
  4875 ;;  grs             4   30[BANK0 ] unsigned long 
  4876 ;;  temp            2   40[BANK0 ] struct .
  4877 ;;  bexp            1   35[BANK0 ] unsigned char 
  4878 ;;  aexp            1   34[BANK0 ] unsigned char 
  4879 ;;  sign            1   29[BANK0 ] unsigned char 
  4880 ;; Return value:  Size  Location     Type
  4881 ;;                  4   16[BANK0 ] unsigned char 
  4882 ;; Registers used:
  4883 ;;		wreg, status,2, status,0, btemp+1, pclath, cstack
  4884 ;; Tracked objects:
  4885 ;;		On entry : 0/0
  4886 ;;		On exit  : 0/0
  4887 ;;		Unchanged: 0/0
  4888 ;; Data sizes:     COMMON   BANK0   BANK1   BANK3   BANK2
  4889 ;;      Params:         0       8       0       0       0
  4890 ;;      Locals:         0      13       0       0       0
  4891 ;;      Temps:          0       5       0       0       0
  4892 ;;      Totals:         0      26       0       0       0
  4893 ;;Total ram usage:       26 bytes
  4894 ;; Hardware stack levels used: 1
  4895 ;; Hardware stack levels required when called: 2
  4896 ;; This function calls:
  4897 ;;		__Umul8_16
  4898 ;; This function is called by:
  4899 ;;		_ReadTemperature
  4900 ;;		_UpdateLCDViewWithNumber
  4901 ;;		_PrepareTempHumDataPacket
  4902 ;;		_HandleRequest
  4903 ;; This function uses a non-reentrant model
  4904 ;;
  4905                           
  4906                           
  4907                           ;psect for function ___flmul
  4908  0044                     ___flmul:
  4909  0044                     l2809:	
  4910                           ;incstack = 0
  4911                           ; Regs used in ___flmul: [wreg+status,2+status,0+btemp+1+pclath+cstack]
  4912                           
  4913  0044  1283               	bcf	3,5	;RP0=0, select bank0
  4914  0045  1303               	bcf	3,6	;RP1=0, select bank0
  4915  0046  0833               	movf	___flmul@b+3,w
  4916  0047  3980               	andlw	128
  4917  0048  00B8               	movwf	??___flmul
  4918  0049  0838               	movf	??___flmul,w
  4919  004A  00BD               	movwf	___flmul@sign
  4920  004B                     l2811:
  4921  004B  0833               	movf	___flmul@b+3,w
  4922  004C  00B8               	movwf	??___flmul
  4923  004D  0738               	addwf	??___flmul,w
  4924  004E  00B9               	movwf	??___flmul+1
  4925  004F  0839               	movf	??___flmul+1,w
  4926  0050  00C3               	movwf	___flmul@bexp
  4927  0051                     l2813:
  4928  0051  1FB2               	btfss	___flmul@b+2,7
  4929  0052  2854               	goto	u3631
  4930  0053  2855               	goto	u3630
  4931  0054                     u3631:
  4932  0054  2856               	goto	l2817
  4933  0055                     u3630:
  4934  0055                     l2815:
  4935  0055  1443               	bsf	___flmul@bexp,0
  4936  0056                     l2817:
  4937  0056  0843               	movf	___flmul@bexp,w
  4938  0057  1903               	btfsc	3,2
  4939  0058  285A               	goto	u3641
  4940  0059  285B               	goto	u3640
  4941  005A                     u3641:
  4942  005A  286A               	goto	l2825
  4943  005B                     u3640:
  4944  005B                     l2819:
  4945  005B  0A43               	incf	___flmul@bexp,w
  4946  005C  1D03               	btfss	3,2
  4947  005D  285F               	goto	u3651
  4948  005E  2860               	goto	u3650
  4949  005F                     u3651:
  4950  005F  2868               	goto	l2823
  4951  0060                     u3650:
  4952  0060                     l2821:
  4953  0060  3000               	movlw	0
  4954  0061  00B3               	movwf	___flmul@b+3
  4955  0062  3000               	movlw	0
  4956  0063  00B2               	movwf	___flmul@b+2
  4957  0064  3000               	movlw	0
  4958  0065  00B1               	movwf	___flmul@b+1
  4959  0066  3000               	movlw	0
  4960  0067  00B0               	movwf	___flmul@b
  4961  0068                     l2823:
  4962  0068  17B2               	bsf	___flmul@b+2,7
  4963  0069  2872               	goto	l2827
  4964  006A                     l2825:
  4965  006A  3000               	movlw	0
  4966  006B  00B3               	movwf	___flmul@b+3
  4967  006C  3000               	movlw	0
  4968  006D  00B2               	movwf	___flmul@b+2
  4969  006E  3000               	movlw	0
  4970  006F  00B1               	movwf	___flmul@b+1
  4971  0070  3000               	movlw	0
  4972  0071  00B0               	movwf	___flmul@b
  4973  0072                     l2827:
  4974  0072  0837               	movf	___flmul@a+3,w
  4975  0073  3980               	andlw	128
  4976  0074  00B8               	movwf	??___flmul
  4977  0075  0838               	movf	??___flmul,w
  4978  0076  06BD               	xorwf	___flmul@sign,f
  4979  0077                     l2829:
  4980  0077  0837               	movf	___flmul@a+3,w
  4981  0078  00B8               	movwf	??___flmul
  4982  0079  0738               	addwf	??___flmul,w
  4983  007A  00B9               	movwf	??___flmul+1
  4984  007B  0839               	movf	??___flmul+1,w
  4985  007C  00C2               	movwf	___flmul@aexp
  4986  007D                     l2831:
  4987  007D  1FB6               	btfss	___flmul@a+2,7
  4988  007E  2880               	goto	u3661
  4989  007F  2881               	goto	u3660
  4990  0080                     u3661:
  4991  0080  2882               	goto	l2835
  4992  0081                     u3660:
  4993  0081                     l2833:
  4994  0081  1442               	bsf	___flmul@aexp,0
  4995  0082                     l2835:
  4996  0082  0842               	movf	___flmul@aexp,w
  4997  0083  1903               	btfsc	3,2
  4998  0084  2886               	goto	u3671
  4999  0085  2887               	goto	u3670
  5000  0086                     u3671:
  5001  0086  2896               	goto	l2843
  5002  0087                     u3670:
  5003  0087                     l2837:
  5004  0087  0A42               	incf	___flmul@aexp,w
  5005  0088  1D03               	btfss	3,2
  5006  0089  288B               	goto	u3681
  5007  008A  288C               	goto	u3680
  5008  008B                     u3681:
  5009  008B  2894               	goto	l2841
  5010  008C                     u3680:
  5011  008C                     l2839:
  5012  008C  3000               	movlw	0
  5013  008D  00B7               	movwf	___flmul@a+3
  5014  008E  3000               	movlw	0
  5015  008F  00B6               	movwf	___flmul@a+2
  5016  0090  3000               	movlw	0
  5017  0091  00B5               	movwf	___flmul@a+1
  5018  0092  3000               	movlw	0
  5019  0093  00B4               	movwf	___flmul@a
  5020  0094                     l2841:
  5021  0094  17B6               	bsf	___flmul@a+2,7
  5022  0095  289E               	goto	l2845
  5023  0096                     l2843:
  5024  0096  3000               	movlw	0
  5025  0097  00B7               	movwf	___flmul@a+3
  5026  0098  3000               	movlw	0
  5027  0099  00B6               	movwf	___flmul@a+2
  5028  009A  3000               	movlw	0
  5029  009B  00B5               	movwf	___flmul@a+1
  5030  009C  3000               	movlw	0
  5031  009D  00B4               	movwf	___flmul@a
  5032  009E                     l2845:
  5033  009E  0842               	movf	___flmul@aexp,w
  5034  009F  1903               	btfsc	3,2
  5035  00A0  28A2               	goto	u3691
  5036  00A1  28A3               	goto	u3690
  5037  00A2                     u3691:
  5038  00A2  28A8               	goto	l2849
  5039  00A3                     u3690:
  5040  00A3                     l2847:
  5041  00A3  0843               	movf	___flmul@bexp,w
  5042  00A4  1D03               	btfss	3,2
  5043  00A5  28A7               	goto	u3701
  5044  00A6  28A8               	goto	u3700
  5045  00A7                     u3701:
  5046  00A7  28B1               	goto	l2853
  5047  00A8                     u3700:
  5048  00A8                     l2849:
  5049  00A8  3000               	movlw	0
  5050  00A9  00B3               	movwf	?___flmul+3
  5051  00AA  3000               	movlw	0
  5052  00AB  00B2               	movwf	?___flmul+2
  5053  00AC  3000               	movlw	0
  5054  00AD  00B1               	movwf	?___flmul+1
  5055  00AE  3000               	movlw	0
  5056  00AF  00B0               	movwf	?___flmul
  5057  00B0  2BA4               	goto	l902
  5058  00B1                     l2853:
  5059  00B1  0830               	movf	___flmul@b,w
  5060  00B2  00B8               	movwf	??___flmul
  5061  00B3  0838               	movf	??___flmul,w
  5062  00B4  00F3               	movwf	__Umul8_16@multiplicand
  5063  00B5  0836               	movf	___flmul@a+2,w
  5064  00B6  160A  158A  22B3  120A  118A  	fcall	__Umul8_16
  5065  00BB  0874               	movf	?__Umul8_16+1,w
  5066  00BC  1283               	bcf	3,5	;RP0=0, select bank0
  5067  00BD  1303               	bcf	3,6	;RP1=0, select bank0
  5068  00BE  00C9               	movwf	___flmul@temp+1
  5069  00BF  0873               	movf	?__Umul8_16,w
  5070  00C0  00C8               	movwf	___flmul@temp
  5071  00C1                     l2855:
  5072  00C1  0848               	movf	___flmul@temp,w
  5073  00C2  00B8               	movwf	??___flmul
  5074  00C3  01B9               	clrf	??___flmul+1
  5075  00C4  01BA               	clrf	??___flmul+2
  5076  00C5  01BB               	clrf	??___flmul+3
  5077  00C6  083B               	movf	??___flmul+3,w
  5078  00C7  00C1               	movwf	___flmul@grs+3
  5079  00C8  083A               	movf	??___flmul+2,w
  5080  00C9  00C0               	movwf	___flmul@grs+2
  5081  00CA  0839               	movf	??___flmul+1,w
  5082  00CB  00BF               	movwf	___flmul@grs+1
  5083  00CC  0838               	movf	??___flmul,w
  5084  00CD  00BE               	movwf	___flmul@grs
  5085  00CE                     l2857:
  5086  00CE  0849               	movf	___flmul@temp+1,w
  5087  00CF  00B8               	movwf	??___flmul
  5088  00D0  01B9               	clrf	??___flmul+1
  5089  00D1  01BA               	clrf	??___flmul+2
  5090  00D2  01BB               	clrf	??___flmul+3
  5091  00D3  083B               	movf	??___flmul+3,w
  5092  00D4  00C7               	movwf	___flmul@prod+3
  5093  00D5  083A               	movf	??___flmul+2,w
  5094  00D6  00C6               	movwf	___flmul@prod+2
  5095  00D7  0839               	movf	??___flmul+1,w
  5096  00D8  00C5               	movwf	___flmul@prod+1
  5097  00D9  0838               	movf	??___flmul,w
  5098  00DA  00C4               	movwf	___flmul@prod
  5099  00DB  0831               	movf	___flmul@b+1,w
  5100  00DC  00B8               	movwf	??___flmul
  5101  00DD  0838               	movf	??___flmul,w
  5102  00DE  00F3               	movwf	__Umul8_16@multiplicand
  5103  00DF  0835               	movf	___flmul@a+1,w
  5104  00E0  160A  158A  22B3  120A  118A  	fcall	__Umul8_16
  5105  00E5  0874               	movf	?__Umul8_16+1,w
  5106  00E6  1283               	bcf	3,5	;RP0=0, select bank0
  5107  00E7  1303               	bcf	3,6	;RP1=0, select bank0
  5108  00E8  00C9               	movwf	___flmul@temp+1
  5109  00E9  0873               	movf	?__Umul8_16,w
  5110  00EA  00C8               	movwf	___flmul@temp
  5111  00EB                     l2859:
  5112  00EB  0848               	movf	___flmul@temp,w
  5113  00EC  00B8               	movwf	??___flmul
  5114  00ED  01B9               	clrf	??___flmul+1
  5115  00EE  01BA               	clrf	??___flmul+2
  5116  00EF  01BB               	clrf	??___flmul+3
  5117  00F0  0838               	movf	??___flmul,w
  5118  00F1  07BE               	addwf	___flmul@grs,f
  5119  00F2  0839               	movf	??___flmul+1,w
  5120  00F3  1103               	clrz
  5121  00F4  1803               	skipnc
  5122  00F5  3E01               	addlw	1
  5123  00F6  1903               	skipnz
  5124  00F7  28F9               	goto	u3711
  5125  00F8  07BF               	addwf	___flmul@grs+1,f
  5126  00F9                     u3711:
  5127  00F9  083A               	movf	??___flmul+2,w
  5128  00FA  1103               	clrz
  5129  00FB  1803               	skipnc
  5130  00FC  3E01               	addlw	1
  5131  00FD  1903               	skipnz
  5132  00FE  2900               	goto	u3712
  5133  00FF  07C0               	addwf	___flmul@grs+2,f
  5134  0100                     u3712:
  5135  0100  083B               	movf	??___flmul+3,w
  5136  0101  1103               	clrz
  5137  0102  1803               	skipnc
  5138  0103  3E01               	addlw	1
  5139  0104  1903               	skipnz
  5140  0105  2907               	goto	u3713
  5141  0106  07C1               	addwf	___flmul@grs+3,f
  5142  0107                     u3713:
  5143  0107                     l2861:
  5144  0107  0849               	movf	___flmul@temp+1,w
  5145  0108  00B8               	movwf	??___flmul
  5146  0109  01B9               	clrf	??___flmul+1
  5147  010A  01BA               	clrf	??___flmul+2
  5148  010B  01BB               	clrf	??___flmul+3
  5149  010C  0838               	movf	??___flmul,w
  5150  010D  07C4               	addwf	___flmul@prod,f
  5151  010E  0839               	movf	??___flmul+1,w
  5152  010F  1103               	clrz
  5153  0110  1803               	skipnc
  5154  0111  3E01               	addlw	1
  5155  0112  1903               	skipnz
  5156  0113  2915               	goto	u3721
  5157  0114  07C5               	addwf	___flmul@prod+1,f
  5158  0115                     u3721:
  5159  0115  083A               	movf	??___flmul+2,w
  5160  0116  1103               	clrz
  5161  0117  1803               	skipnc
  5162  0118  3E01               	addlw	1
  5163  0119  1903               	skipnz
  5164  011A  291C               	goto	u3722
  5165  011B  07C6               	addwf	___flmul@prod+2,f
  5166  011C                     u3722:
  5167  011C  083B               	movf	??___flmul+3,w
  5168  011D  1103               	clrz
  5169  011E  1803               	skipnc
  5170  011F  3E01               	addlw	1
  5171  0120  1903               	skipnz
  5172  0121  2923               	goto	u3723
  5173  0122  07C7               	addwf	___flmul@prod+3,f
  5174  0123                     u3723:
  5175  0123  0832               	movf	___flmul@b+2,w
  5176  0124  00B8               	movwf	??___flmul
  5177  0125  0838               	movf	??___flmul,w
  5178  0126  00F3               	movwf	__Umul8_16@multiplicand
  5179  0127  0834               	movf	___flmul@a,w
  5180  0128  160A  158A  22B3  120A  118A  	fcall	__Umul8_16
  5181  012D  0874               	movf	?__Umul8_16+1,w
  5182  012E  1283               	bcf	3,5	;RP0=0, select bank0
  5183  012F  1303               	bcf	3,6	;RP1=0, select bank0
  5184  0130  00C9               	movwf	___flmul@temp+1
  5185  0131  0873               	movf	?__Umul8_16,w
  5186  0132  00C8               	movwf	___flmul@temp
  5187  0133                     l2863:
  5188  0133  0848               	movf	___flmul@temp,w
  5189  0134  00B8               	movwf	??___flmul
  5190  0135  01B9               	clrf	??___flmul+1
  5191  0136  01BA               	clrf	??___flmul+2
  5192  0137  01BB               	clrf	??___flmul+3
  5193  0138  0838               	movf	??___flmul,w
  5194  0139  07BE               	addwf	___flmul@grs,f
  5195  013A  0839               	movf	??___flmul+1,w
  5196  013B  1103               	clrz
  5197  013C  1803               	skipnc
  5198  013D  3E01               	addlw	1
  5199  013E  1903               	skipnz
  5200  013F  2941               	goto	u3731
  5201  0140  07BF               	addwf	___flmul@grs+1,f
  5202  0141                     u3731:
  5203  0141  083A               	movf	??___flmul+2,w
  5204  0142  1103               	clrz
  5205  0143  1803               	skipnc
  5206  0144  3E01               	addlw	1
  5207  0145  1903               	skipnz
  5208  0146  2948               	goto	u3732
  5209  0147  07C0               	addwf	___flmul@grs+2,f
  5210  0148                     u3732:
  5211  0148  083B               	movf	??___flmul+3,w
  5212  0149  1103               	clrz
  5213  014A  1803               	skipnc
  5214  014B  3E01               	addlw	1
  5215  014C  1903               	skipnz
  5216  014D  294F               	goto	u3733
  5217  014E  07C1               	addwf	___flmul@grs+3,f
  5218  014F                     u3733:
  5219  014F                     l2865:
  5220  014F  0849               	movf	___flmul@temp+1,w
  5221  0150  00B8               	movwf	??___flmul
  5222  0151  01B9               	clrf	??___flmul+1
  5223  0152  01BA               	clrf	??___flmul+2
  5224  0153  01BB               	clrf	??___flmul+3
  5225  0154  0838               	movf	??___flmul,w
  5226  0155  07C4               	addwf	___flmul@prod,f
  5227  0156  0839               	movf	??___flmul+1,w
  5228  0157  1103               	clrz
  5229  0158  1803               	skipnc
  5230  0159  3E01               	addlw	1
  5231  015A  1903               	skipnz
  5232  015B  295D               	goto	u3741
  5233  015C  07C5               	addwf	___flmul@prod+1,f
  5234  015D                     u3741:
  5235  015D  083A               	movf	??___flmul+2,w
  5236  015E  1103               	clrz
  5237  015F  1803               	skipnc
  5238  0160  3E01               	addlw	1
  5239  0161  1903               	skipnz
  5240  0162  2964               	goto	u3742
  5241  0163  07C6               	addwf	___flmul@prod+2,f
  5242  0164                     u3742:
  5243  0164  083B               	movf	??___flmul+3,w
  5244  0165  1103               	clrz
  5245  0166  1803               	skipnc
  5246  0167  3E01               	addlw	1
  5247  0168  1903               	skipnz
  5248  0169  296B               	goto	u3743
  5249  016A  07C7               	addwf	___flmul@prod+3,f
  5250  016B                     u3743:
  5251  016B                     l2867:
  5252  016B  3008               	movlw	8
  5253  016C  00B8               	movwf	??___flmul
  5254  016D                     u3755:
  5255  016D  1003               	clrc
  5256  016E  0DBE               	rlf	___flmul@grs,f
  5257  016F  0DBF               	rlf	___flmul@grs+1,f
  5258  0170  0DC0               	rlf	___flmul@grs+2,f
  5259  0171  0DC1               	rlf	___flmul@grs+3,f
  5260  0172  0BB8               	decfsz	??___flmul,f
  5261  0173  296D               	goto	u3755
  5262  0174                     l2869:
  5263  0174  0831               	movf	___flmul@b+1,w
  5264  0175  00B8               	movwf	??___flmul
  5265  0176  0838               	movf	??___flmul,w
  5266  0177  00F3               	movwf	__Umul8_16@multiplicand
  5267  0178  0834               	movf	___flmul@a,w
  5268  0179  160A  158A  22B3  120A  118A  	fcall	__Umul8_16
  5269  017E  0874               	movf	?__Umul8_16+1,w
  5270  017F  1283               	bcf	3,5	;RP0=0, select bank0
  5271  0180  1303               	bcf	3,6	;RP1=0, select bank0
  5272  0181  00C9               	movwf	___flmul@temp+1
  5273  0182  0873               	movf	?__Umul8_16,w
  5274  0183  00C8               	movwf	___flmul@temp
  5275  0184                     l2871:
  5276  0184  0848               	movf	___flmul@temp,w
  5277  0185  00B8               	movwf	??___flmul
  5278  0186  0849               	movf	___flmul@temp+1,w
  5279  0187  00B9               	movwf	??___flmul+1
  5280  0188  01BA               	clrf	??___flmul+2
  5281  0189  01BB               	clrf	??___flmul+3
  5282  018A  0838               	movf	??___flmul,w
  5283  018B  07BE               	addwf	___flmul@grs,f
  5284  018C  0839               	movf	??___flmul+1,w
  5285  018D  1103               	clrz
  5286  018E  1803               	skipnc
  5287  018F  3E01               	addlw	1
  5288  0190  1903               	skipnz
  5289  0191  2993               	goto	u3761
  5290  0192  07BF               	addwf	___flmul@grs+1,f
  5291  0193                     u3761:
  5292  0193  083A               	movf	??___flmul+2,w
  5293  0194  1103               	clrz
  5294  0195  1803               	skipnc
  5295  0196  3E01               	addlw	1
  5296  0197  1903               	skipnz
  5297  0198  299A               	goto	u3762
  5298  0199  07C0               	addwf	___flmul@grs+2,f
  5299  019A                     u3762:
  5300  019A  083B               	movf	??___flmul+3,w
  5301  019B  1103               	clrz
  5302  019C  1803               	skipnc
  5303  019D  3E01               	addlw	1
  5304  019E  1903               	skipnz
  5305  019F  29A1               	goto	u3763
  5306  01A0  07C1               	addwf	___flmul@grs+3,f
  5307  01A1                     u3763:
  5308  01A1                     l2873:
  5309  01A1  0830               	movf	___flmul@b,w
  5310  01A2  00B8               	movwf	??___flmul
  5311  01A3  0838               	movf	??___flmul,w
  5312  01A4  00F3               	movwf	__Umul8_16@multiplicand
  5313  01A5  0835               	movf	___flmul@a+1,w
  5314  01A6  160A  158A  22B3  120A  118A  	fcall	__Umul8_16
  5315  01AB  0874               	movf	?__Umul8_16+1,w
  5316  01AC  1283               	bcf	3,5	;RP0=0, select bank0
  5317  01AD  1303               	bcf	3,6	;RP1=0, select bank0
  5318  01AE  00C9               	movwf	___flmul@temp+1
  5319  01AF  0873               	movf	?__Umul8_16,w
  5320  01B0  00C8               	movwf	___flmul@temp
  5321  01B1                     l2875:
  5322  01B1  0848               	movf	___flmul@temp,w
  5323  01B2  00B8               	movwf	??___flmul
  5324  01B3  0849               	movf	___flmul@temp+1,w
  5325  01B4  00B9               	movwf	??___flmul+1
  5326  01B5  01BA               	clrf	??___flmul+2
  5327  01B6  01BB               	clrf	??___flmul+3
  5328  01B7  0838               	movf	??___flmul,w
  5329  01B8  07BE               	addwf	___flmul@grs,f
  5330  01B9  0839               	movf	??___flmul+1,w
  5331  01BA  1103               	clrz
  5332  01BB  1803               	skipnc
  5333  01BC  3E01               	addlw	1
  5334  01BD  1903               	skipnz
  5335  01BE  29C0               	goto	u3771
  5336  01BF  07BF               	addwf	___flmul@grs+1,f
  5337  01C0                     u3771:
  5338  01C0  083A               	movf	??___flmul+2,w
  5339  01C1  1103               	clrz
  5340  01C2  1803               	skipnc
  5341  01C3  3E01               	addlw	1
  5342  01C4  1903               	skipnz
  5343  01C5  29C7               	goto	u3772
  5344  01C6  07C0               	addwf	___flmul@grs+2,f
  5345  01C7                     u3772:
  5346  01C7  083B               	movf	??___flmul+3,w
  5347  01C8  1103               	clrz
  5348  01C9  1803               	skipnc
  5349  01CA  3E01               	addlw	1
  5350  01CB  1903               	skipnz
  5351  01CC  29CE               	goto	u3773
  5352  01CD  07C1               	addwf	___flmul@grs+3,f
  5353  01CE                     u3773:
  5354  01CE                     l2877:
  5355  01CE  3008               	movlw	8
  5356  01CF  00B8               	movwf	??___flmul
  5357  01D0                     u3785:
  5358  01D0  1003               	clrc
  5359  01D1  0DBE               	rlf	___flmul@grs,f
  5360  01D2  0DBF               	rlf	___flmul@grs+1,f
  5361  01D3  0DC0               	rlf	___flmul@grs+2,f
  5362  01D4  0DC1               	rlf	___flmul@grs+3,f
  5363  01D5  0BB8               	decfsz	??___flmul,f
  5364  01D6  29D0               	goto	u3785
  5365  01D7  0830               	movf	___flmul@b,w
  5366  01D8  00B8               	movwf	??___flmul
  5367  01D9  0838               	movf	??___flmul,w
  5368  01DA  00F3               	movwf	__Umul8_16@multiplicand
  5369  01DB  0834               	movf	___flmul@a,w
  5370  01DC  160A  158A  22B3  120A  118A  	fcall	__Umul8_16
  5371  01E1  0874               	movf	?__Umul8_16+1,w
  5372  01E2  1283               	bcf	3,5	;RP0=0, select bank0
  5373  01E3  1303               	bcf	3,6	;RP1=0, select bank0
  5374  01E4  00C9               	movwf	___flmul@temp+1
  5375  01E5  0873               	movf	?__Umul8_16,w
  5376  01E6  00C8               	movwf	___flmul@temp
  5377  01E7                     l2879:
  5378  01E7  0848               	movf	___flmul@temp,w
  5379  01E8  00B8               	movwf	??___flmul
  5380  01E9  0849               	movf	___flmul@temp+1,w
  5381  01EA  00B9               	movwf	??___flmul+1
  5382  01EB  01BA               	clrf	??___flmul+2
  5383  01EC  01BB               	clrf	??___flmul+3
  5384  01ED  0838               	movf	??___flmul,w
  5385  01EE  07BE               	addwf	___flmul@grs,f
  5386  01EF  0839               	movf	??___flmul+1,w
  5387  01F0  1103               	clrz
  5388  01F1  1803               	skipnc
  5389  01F2  3E01               	addlw	1
  5390  01F3  1903               	skipnz
  5391  01F4  29F6               	goto	u3791
  5392  01F5  07BF               	addwf	___flmul@grs+1,f
  5393  01F6                     u3791:
  5394  01F6  083A               	movf	??___flmul+2,w
  5395  01F7  1103               	clrz
  5396  01F8  1803               	skipnc
  5397  01F9  3E01               	addlw	1
  5398  01FA  1903               	skipnz
  5399  01FB  29FD               	goto	u3792
  5400  01FC  07C0               	addwf	___flmul@grs+2,f
  5401  01FD                     u3792:
  5402  01FD  083B               	movf	??___flmul+3,w
  5403  01FE  1103               	clrz
  5404  01FF  1803               	skipnc
  5405  0200  3E01               	addlw	1
  5406  0201  1903               	skipnz
  5407  0202  2A04               	goto	u3793
  5408  0203  07C1               	addwf	___flmul@grs+3,f
  5409  0204                     u3793:
  5410  0204                     l2881:
  5411  0204  0831               	movf	___flmul@b+1,w
  5412  0205  00B8               	movwf	??___flmul
  5413  0206  0838               	movf	??___flmul,w
  5414  0207  00F3               	movwf	__Umul8_16@multiplicand
  5415  0208  0836               	movf	___flmul@a+2,w
  5416  0209  160A  158A  22B3  120A  118A  	fcall	__Umul8_16
  5417  020E  0874               	movf	?__Umul8_16+1,w
  5418  020F  1283               	bcf	3,5	;RP0=0, select bank0
  5419  0210  1303               	bcf	3,6	;RP1=0, select bank0
  5420  0211  00C9               	movwf	___flmul@temp+1
  5421  0212  0873               	movf	?__Umul8_16,w
  5422  0213  00C8               	movwf	___flmul@temp
  5423  0214  0848               	movf	___flmul@temp,w
  5424  0215  00B8               	movwf	??___flmul
  5425  0216  0849               	movf	___flmul@temp+1,w
  5426  0217  00B9               	movwf	??___flmul+1
  5427  0218  01BA               	clrf	??___flmul+2
  5428  0219  01BB               	clrf	??___flmul+3
  5429  021A  0838               	movf	??___flmul,w
  5430  021B  07C4               	addwf	___flmul@prod,f
  5431  021C  0839               	movf	??___flmul+1,w
  5432  021D  1103               	clrz
  5433  021E  1803               	skipnc
  5434  021F  3E01               	addlw	1
  5435  0220  1903               	skipnz
  5436  0221  2A23               	goto	u3801
  5437  0222  07C5               	addwf	___flmul@prod+1,f
  5438  0223                     u3801:
  5439  0223  083A               	movf	??___flmul+2,w
  5440  0224  1103               	clrz
  5441  0225  1803               	skipnc
  5442  0226  3E01               	addlw	1
  5443  0227  1903               	skipnz
  5444  0228  2A2A               	goto	u3802
  5445  0229  07C6               	addwf	___flmul@prod+2,f
  5446  022A                     u3802:
  5447  022A  083B               	movf	??___flmul+3,w
  5448  022B  1103               	clrz
  5449  022C  1803               	skipnc
  5450  022D  3E01               	addlw	1
  5451  022E  1903               	skipnz
  5452  022F  2A31               	goto	u3803
  5453  0230  07C7               	addwf	___flmul@prod+3,f
  5454  0231                     u3803:
  5455  0231                     l2883:
  5456  0231  0832               	movf	___flmul@b+2,w
  5457  0232  00B8               	movwf	??___flmul
  5458  0233  0838               	movf	??___flmul,w
  5459  0234  00F3               	movwf	__Umul8_16@multiplicand
  5460  0235  0835               	movf	___flmul@a+1,w
  5461  0236  160A  158A  22B3  120A  118A  	fcall	__Umul8_16
  5462  023B  0874               	movf	?__Umul8_16+1,w
  5463  023C  1283               	bcf	3,5	;RP0=0, select bank0
  5464  023D  1303               	bcf	3,6	;RP1=0, select bank0
  5465  023E  00C9               	movwf	___flmul@temp+1
  5466  023F  0873               	movf	?__Umul8_16,w
  5467  0240  00C8               	movwf	___flmul@temp
  5468  0241                     l2885:
  5469  0241  0848               	movf	___flmul@temp,w
  5470  0242  00B8               	movwf	??___flmul
  5471  0243  0849               	movf	___flmul@temp+1,w
  5472  0244  00B9               	movwf	??___flmul+1
  5473  0245  01BA               	clrf	??___flmul+2
  5474  0246  01BB               	clrf	??___flmul+3
  5475  0247  0838               	movf	??___flmul,w
  5476  0248  07C4               	addwf	___flmul@prod,f
  5477  0249  0839               	movf	??___flmul+1,w
  5478  024A  1103               	clrz
  5479  024B  1803               	skipnc
  5480  024C  3E01               	addlw	1
  5481  024D  1903               	skipnz
  5482  024E  2A50               	goto	u3811
  5483  024F  07C5               	addwf	___flmul@prod+1,f
  5484  0250                     u3811:
  5485  0250  083A               	movf	??___flmul+2,w
  5486  0251  1103               	clrz
  5487  0252  1803               	skipnc
  5488  0253  3E01               	addlw	1
  5489  0254  1903               	skipnz
  5490  0255  2A57               	goto	u3812
  5491  0256  07C6               	addwf	___flmul@prod+2,f
  5492  0257                     u3812:
  5493  0257  083B               	movf	??___flmul+3,w
  5494  0258  1103               	clrz
  5495  0259  1803               	skipnc
  5496  025A  3E01               	addlw	1
  5497  025B  1903               	skipnz
  5498  025C  2A5E               	goto	u3813
  5499  025D  07C7               	addwf	___flmul@prod+3,f
  5500  025E                     u3813:
  5501  025E  0832               	movf	___flmul@b+2,w
  5502  025F  00B8               	movwf	??___flmul
  5503  0260  0838               	movf	??___flmul,w
  5504  0261  00F3               	movwf	__Umul8_16@multiplicand
  5505  0262  0836               	movf	___flmul@a+2,w
  5506  0263  160A  158A  22B3  120A  118A  	fcall	__Umul8_16
  5507  0268  0874               	movf	?__Umul8_16+1,w
  5508  0269  1283               	bcf	3,5	;RP0=0, select bank0
  5509  026A  1303               	bcf	3,6	;RP1=0, select bank0
  5510  026B  00C9               	movwf	___flmul@temp+1
  5511  026C  0873               	movf	?__Umul8_16,w
  5512  026D  00C8               	movwf	___flmul@temp
  5513  026E                     l2887:
  5514  026E  0848               	movf	___flmul@temp,w
  5515  026F  00B8               	movwf	??___flmul
  5516  0270  0849               	movf	___flmul@temp+1,w
  5517  0271  00B9               	movwf	??___flmul+1
  5518  0272  01BA               	clrf	??___flmul+2
  5519  0273  01BB               	clrf	??___flmul+3
  5520  0274  3008               	movlw	8
  5521  0275                     u3825:
  5522  0275  1003               	clrc
  5523  0276  0DB8               	rlf	??___flmul,f
  5524  0277  0DB9               	rlf	??___flmul+1,f
  5525  0278  0DBA               	rlf	??___flmul+2,f
  5526  0279  0DBB               	rlf	??___flmul+3,f
  5527  027A                     u3820:
  5528  027A  3EFF               	addlw	-1
  5529  027B  1D03               	skipz
  5530  027C  2A75               	goto	u3825
  5531  027D  0838               	movf	??___flmul,w
  5532  027E  07C4               	addwf	___flmul@prod,f
  5533  027F  0839               	movf	??___flmul+1,w
  5534  0280  1103               	clrz
  5535  0281  1803               	skipnc
  5536  0282  3E01               	addlw	1
  5537  0283  1903               	skipnz
  5538  0284  2A86               	goto	u3831
  5539  0285  07C5               	addwf	___flmul@prod+1,f
  5540  0286                     u3831:
  5541  0286  083A               	movf	??___flmul+2,w
  5542  0287  1103               	clrz
  5543  0288  1803               	skipnc
  5544  0289  3E01               	addlw	1
  5545  028A  1903               	skipnz
  5546  028B  2A8D               	goto	u3832
  5547  028C  07C6               	addwf	___flmul@prod+2,f
  5548  028D                     u3832:
  5549  028D  083B               	movf	??___flmul+3,w
  5550  028E  1103               	clrz
  5551  028F  1803               	skipnc
  5552  0290  3E01               	addlw	1
  5553  0291  1903               	skipnz
  5554  0292  2A94               	goto	u3833
  5555  0293  07C7               	addwf	___flmul@prod+3,f
  5556  0294                     u3833:
  5557  0294                     l2889:
  5558  0294  083E               	movf	___flmul@grs,w
  5559  0295  00B8               	movwf	??___flmul
  5560  0296  083F               	movf	___flmul@grs+1,w
  5561  0297  00B9               	movwf	??___flmul+1
  5562  0298  0840               	movf	___flmul@grs+2,w
  5563  0299  00BA               	movwf	??___flmul+2
  5564  029A  0841               	movf	___flmul@grs+3,w
  5565  029B  00BB               	movwf	??___flmul+3
  5566  029C  3018               	movlw	24
  5567  029D                     u3845:
  5568  029D  1003               	clrc
  5569  029E  0CBB               	rrf	??___flmul+3,f
  5570  029F  0CBA               	rrf	??___flmul+2,f
  5571  02A0  0CB9               	rrf	??___flmul+1,f
  5572  02A1  0CB8               	rrf	??___flmul,f
  5573  02A2                     u3840:
  5574  02A2  3EFF               	addlw	-1
  5575  02A3  1D03               	skipz
  5576  02A4  2A9D               	goto	u3845
  5577  02A5  0838               	movf	??___flmul,w
  5578  02A6  07C4               	addwf	___flmul@prod,f
  5579  02A7  0839               	movf	??___flmul+1,w
  5580  02A8  1103               	clrz
  5581  02A9  1803               	skipnc
  5582  02AA  3E01               	addlw	1
  5583  02AB  1903               	skipnz
  5584  02AC  2AAE               	goto	u3851
  5585  02AD  07C5               	addwf	___flmul@prod+1,f
  5586  02AE                     u3851:
  5587  02AE  083A               	movf	??___flmul+2,w
  5588  02AF  1103               	clrz
  5589  02B0  1803               	skipnc
  5590  02B1  3E01               	addlw	1
  5591  02B2  1903               	skipnz
  5592  02B3  2AB5               	goto	u3852
  5593  02B4  07C6               	addwf	___flmul@prod+2,f
  5594  02B5                     u3852:
  5595  02B5  083B               	movf	??___flmul+3,w
  5596  02B6  1103               	clrz
  5597  02B7  1803               	skipnc
  5598  02B8  3E01               	addlw	1
  5599  02B9  1903               	skipnz
  5600  02BA  2ABC               	goto	u3853
  5601  02BB  07C7               	addwf	___flmul@prod+3,f
  5602  02BC                     u3853:
  5603  02BC                     l2891:
  5604  02BC  3008               	movlw	8
  5605  02BD  00B8               	movwf	??___flmul
  5606  02BE                     u3865:
  5607  02BE  1003               	clrc
  5608  02BF  0DBE               	rlf	___flmul@grs,f
  5609  02C0  0DBF               	rlf	___flmul@grs+1,f
  5610  02C1  0DC0               	rlf	___flmul@grs+2,f
  5611  02C2  0DC1               	rlf	___flmul@grs+3,f
  5612  02C3  0BB8               	decfsz	??___flmul,f
  5613  02C4  2ABE               	goto	u3865
  5614  02C5                     l2893:
  5615  02C5  0843               	movf	___flmul@bexp,w
  5616  02C6  0742               	addwf	___flmul@aexp,w
  5617  02C7  00B8               	movwf	??___flmul
  5618  02C8  01B9               	clrf	??___flmul+1
  5619  02C9  0DB9               	rlf	??___flmul+1,f
  5620  02CA  0838               	movf	??___flmul,w
  5621  02CB  3E82               	addlw	130
  5622  02CC  00C8               	movwf	___flmul@temp
  5623  02CD  0839               	movf	??___flmul+1,w
  5624  02CE  1803               	skipnc
  5625  02CF  3E01               	addlw	1
  5626  02D0  3EFF               	addlw	255
  5627  02D1  00C9               	movwf	___flmul@temp+1
  5628  02D2  2AF0               	goto	l2905
  5629  02D3                     l2895:
  5630  02D3  3001               	movlw	1
  5631  02D4  00B8               	movwf	??___flmul
  5632  02D5                     u3875:
  5633  02D5  1003               	clrc
  5634  02D6  0DC4               	rlf	___flmul@prod,f
  5635  02D7  0DC5               	rlf	___flmul@prod+1,f
  5636  02D8  0DC6               	rlf	___flmul@prod+2,f
  5637  02D9  0DC7               	rlf	___flmul@prod+3,f
  5638  02DA  0BB8               	decfsz	??___flmul,f
  5639  02DB  2AD5               	goto	u3875
  5640  02DC                     l2897:
  5641  02DC  1FC1               	btfss	___flmul@grs+3,7
  5642  02DD  2ADF               	goto	u3881
  5643  02DE  2AE0               	goto	u3880
  5644  02DF                     u3881:
  5645  02DF  2AE1               	goto	l2901
  5646  02E0                     u3880:
  5647  02E0                     l2899:
  5648  02E0  1444               	bsf	___flmul@prod,0
  5649  02E1                     l2901:
  5650  02E1  3001               	movlw	1
  5651  02E2  00B8               	movwf	??___flmul
  5652  02E3                     u3895:
  5653  02E3  1003               	clrc
  5654  02E4  0DBE               	rlf	___flmul@grs,f
  5655  02E5  0DBF               	rlf	___flmul@grs+1,f
  5656  02E6  0DC0               	rlf	___flmul@grs+2,f
  5657  02E7  0DC1               	rlf	___flmul@grs+3,f
  5658  02E8  0BB8               	decfsz	??___flmul,f
  5659  02E9  2AE3               	goto	u3895
  5660  02EA                     l2903:
  5661  02EA  30FF               	movlw	255
  5662  02EB  07C8               	addwf	___flmul@temp,f
  5663  02EC  1803               	skipnc
  5664  02ED  0AC9               	incf	___flmul@temp+1,f
  5665  02EE  30FF               	movlw	255
  5666  02EF  07C9               	addwf	___flmul@temp+1,f
  5667  02F0                     l2905:
  5668  02F0  1FC6               	btfss	___flmul@prod+2,7
  5669  02F1  2AF3               	goto	u3901
  5670  02F2  2AF4               	goto	u3900
  5671  02F3                     u3901:
  5672  02F3  2AD3               	goto	l2895
  5673  02F4                     u3900:
  5674  02F4                     l2907:
  5675  02F4  01C2               	clrf	___flmul@aexp
  5676  02F5                     l2909:
  5677  02F5  1FC1               	btfss	___flmul@grs+3,7
  5678  02F6  2AF8               	goto	u3911
  5679  02F7  2AF9               	goto	u3910
  5680  02F8                     u3911:
  5681  02F8  2B15               	goto	l2917
  5682  02F9                     u3910:
  5683  02F9                     l2911:
  5684  02F9  30FF               	movlw	255
  5685  02FA  053E               	andwf	___flmul@grs,w
  5686  02FB  00B8               	movwf	??___flmul
  5687  02FC  30FF               	movlw	255
  5688  02FD  053F               	andwf	___flmul@grs+1,w
  5689  02FE  00B9               	movwf	??___flmul+1
  5690  02FF  30FF               	movlw	255
  5691  0300  0540               	andwf	___flmul@grs+2,w
  5692  0301  00BA               	movwf	??___flmul+2
  5693  0302  307F               	movlw	127
  5694  0303  0541               	andwf	___flmul@grs+3,w
  5695  0304  00BB               	movwf	??___flmul+3
  5696  0305  083B               	movf	??___flmul+3,w
  5697  0306  043A               	iorwf	??___flmul+2,w
  5698  0307  0439               	iorwf	??___flmul+1,w
  5699  0308  0438               	iorwf	??___flmul,w
  5700  0309  1903               	skipnz
  5701  030A  2B0C               	goto	u3921
  5702  030B  2B0D               	goto	u3920
  5703  030C                     u3921:
  5704  030C  2B10               	goto	l908
  5705  030D                     u3920:
  5706  030D                     l2913:
  5707  030D  01C2               	clrf	___flmul@aexp
  5708  030E  0AC2               	incf	___flmul@aexp,f
  5709  030F  2B15               	goto	l2917
  5710  0310                     l908:
  5711  0310  1C44               	btfss	___flmul@prod,0
  5712  0311  2B13               	goto	u3931
  5713  0312  2B14               	goto	u3930
  5714  0313                     u3931:
  5715  0313  2B15               	goto	l2917
  5716  0314                     u3930:
  5717  0314  2B0D               	goto	l2913
  5718  0315                     l2917:
  5719  0315  0842               	movf	___flmul@aexp,w
  5720  0316  1903               	btfsc	3,2
  5721  0317  2B19               	goto	u3941
  5722  0318  2B1A               	goto	u3940
  5723  0319                     u3941:
  5724  0319  2B4B               	goto	l2927
  5725  031A                     u3940:
  5726  031A                     l2919:
  5727  031A  3001               	movlw	1
  5728  031B  07C4               	addwf	___flmul@prod,f
  5729  031C  3000               	movlw	0
  5730  031D  1803               	skipnc
  5731  031E  3001               	movlw	1
  5732  031F  07C5               	addwf	___flmul@prod+1,f
  5733  0320  3000               	movlw	0
  5734  0321  1803               	skipnc
  5735  0322  3001               	movlw	1
  5736  0323  07C6               	addwf	___flmul@prod+2,f
  5737  0324  3000               	movlw	0
  5738  0325  1803               	skipnc
  5739  0326  3001               	movlw	1
  5740  0327  07C7               	addwf	___flmul@prod+3,f
  5741  0328                     l2921:
  5742  0328  1C47               	btfss	___flmul@prod+3,0
  5743  0329  2B2B               	goto	u3951
  5744  032A  2B2C               	goto	u3950
  5745  032B                     u3951:
  5746  032B  2B4B               	goto	l2927
  5747  032C                     u3950:
  5748  032C                     l2923:
  5749  032C  0844               	movf	___flmul@prod,w
  5750  032D  00B8               	movwf	??___flmul
  5751  032E  0845               	movf	___flmul@prod+1,w
  5752  032F  00B9               	movwf	??___flmul+1
  5753  0330  0846               	movf	___flmul@prod+2,w
  5754  0331  00BA               	movwf	??___flmul+2
  5755  0332  0847               	movf	___flmul@prod+3,w
  5756  0333  00BB               	movwf	??___flmul+3
  5757  0334  3001               	movlw	1
  5758  0335  00BC               	movwf	??___flmul+4
  5759  0336                     u3965:
  5760  0336  0D3B               	rlf	??___flmul+3,w
  5761  0337  0CBB               	rrf	??___flmul+3,f
  5762  0338  0CBA               	rrf	??___flmul+2,f
  5763  0339  0CB9               	rrf	??___flmul+1,f
  5764  033A  0CB8               	rrf	??___flmul,f
  5765  033B                     u3960:
  5766  033B  0BBC               	decfsz	??___flmul+4,f
  5767  033C  2B36               	goto	u3965
  5768  033D  083B               	movf	??___flmul+3,w
  5769  033E  00C7               	movwf	___flmul@prod+3
  5770  033F  083A               	movf	??___flmul+2,w
  5771  0340  00C6               	movwf	___flmul@prod+2
  5772  0341  0839               	movf	??___flmul+1,w
  5773  0342  00C5               	movwf	___flmul@prod+1
  5774  0343  0838               	movf	??___flmul,w
  5775  0344  00C4               	movwf	___flmul@prod
  5776  0345                     l2925:
  5777  0345  3001               	movlw	1
  5778  0346  07C8               	addwf	___flmul@temp,f
  5779  0347  1803               	skipnc
  5780  0348  0AC9               	incf	___flmul@temp+1,f
  5781  0349  3000               	movlw	0
  5782  034A  07C9               	addwf	___flmul@temp+1,f
  5783  034B                     l2927:
  5784  034B  0849               	movf	___flmul@temp+1,w
  5785  034C  3A80               	xorlw	128
  5786  034D  00FF               	movwf	btemp+1
  5787  034E  3080               	movlw	128
  5788  034F  027F               	subwf	btemp+1,w
  5789  0350  1D03               	skipz
  5790  0351  2B54               	goto	u3975
  5791  0352  30FF               	movlw	255
  5792  0353  0248               	subwf	___flmul@temp,w
  5793  0354                     u3975:
  5794  0354  1C03               	skipc
  5795  0355  2B57               	goto	u3971
  5796  0356  2B58               	goto	u3970
  5797  0357                     u3971:
  5798  0357  2B63               	goto	l2931
  5799  0358                     u3970:
  5800  0358                     l2929:
  5801  0358  307F               	movlw	127
  5802  0359  1283               	bcf	3,5	;RP0=0, select bank0
  5803  035A  1303               	bcf	3,6	;RP1=0, select bank0
  5804  035B  00C7               	movwf	___flmul@prod+3
  5805  035C  3080               	movlw	128
  5806  035D  00C6               	movwf	___flmul@prod+2
  5807  035E  3000               	movlw	0
  5808  035F  00C5               	movwf	___flmul@prod+1
  5809  0360  3000               	movlw	0
  5810  0361  00C4               	movwf	___flmul@prod
  5811  0362  2B98               	goto	l914
  5812  0363                     l2931:
  5813  0363  1283               	bcf	3,5	;RP0=0, select bank0
  5814  0364  1303               	bcf	3,6	;RP1=0, select bank0
  5815  0365  0849               	movf	___flmul@temp+1,w
  5816  0366  3A80               	xorlw	128
  5817  0367  00FF               	movwf	btemp+1
  5818  0368  3080               	movlw	128
  5819  0369  027F               	subwf	btemp+1,w
  5820  036A  1D03               	skipz
  5821  036B  2B6E               	goto	u3985
  5822  036C  3001               	movlw	1
  5823  036D  0248               	subwf	___flmul@temp,w
  5824  036E                     u3985:
  5825  036E  1803               	skipnc
  5826  036F  2B71               	goto	u3981
  5827  0370  2B72               	goto	u3980
  5828  0371                     u3981:
  5829  0371  2B7E               	goto	l2937
  5830  0372                     u3980:
  5831  0372                     l2933:
  5832  0372  3000               	movlw	0
  5833  0373  1283               	bcf	3,5	;RP0=0, select bank0
  5834  0374  1303               	bcf	3,6	;RP1=0, select bank0
  5835  0375  00C7               	movwf	___flmul@prod+3
  5836  0376  3000               	movlw	0
  5837  0377  00C6               	movwf	___flmul@prod+2
  5838  0378  3000               	movlw	0
  5839  0379  00C5               	movwf	___flmul@prod+1
  5840  037A  3000               	movlw	0
  5841  037B  00C4               	movwf	___flmul@prod
  5842  037C                     l2935:
  5843  037C  01BD               	clrf	___flmul@sign
  5844  037D  2B98               	goto	l914
  5845  037E                     l2937:
  5846  037E  1283               	bcf	3,5	;RP0=0, select bank0
  5847  037F  1303               	bcf	3,6	;RP1=0, select bank0
  5848  0380  0848               	movf	___flmul@temp,w
  5849  0381  00B8               	movwf	??___flmul
  5850  0382  0838               	movf	??___flmul,w
  5851  0383  00C3               	movwf	___flmul@bexp
  5852  0384  30FF               	movlw	255
  5853  0385  05C4               	andwf	___flmul@prod,f
  5854  0386  30FF               	movlw	255
  5855  0387  05C5               	andwf	___flmul@prod+1,f
  5856  0388  307F               	movlw	127
  5857  0389  05C6               	andwf	___flmul@prod+2,f
  5858  038A  3000               	movlw	0
  5859  038B  05C7               	andwf	___flmul@prod+3,f
  5860  038C                     l2939:
  5861  038C  1C43               	btfss	___flmul@bexp,0
  5862  038D  2B8F               	goto	u3991
  5863  038E  2B90               	goto	u3990
  5864  038F                     u3991:
  5865  038F  2B91               	goto	l2943
  5866  0390                     u3990:
  5867  0390                     l2941:
  5868  0390  17C6               	bsf	___flmul@prod+2,7
  5869  0391                     l2943:
  5870  0391  0843               	movf	___flmul@bexp,w
  5871  0392  00B8               	movwf	??___flmul
  5872  0393  1003               	clrc
  5873  0394  0C38               	rrf	??___flmul,w
  5874  0395  00B9               	movwf	??___flmul+1
  5875  0396  0839               	movf	??___flmul+1,w
  5876  0397  00C7               	movwf	___flmul@prod+3
  5877  0398                     l914:
  5878  0398  083D               	movf	___flmul@sign,w
  5879  0399  00B8               	movwf	??___flmul
  5880  039A  0838               	movf	??___flmul,w
  5881  039B  04C7               	iorwf	___flmul@prod+3,f
  5882  039C                     l2945:
  5883  039C  0847               	movf	___flmul@prod+3,w
  5884  039D  00B3               	movwf	?___flmul+3
  5885  039E  0846               	movf	___flmul@prod+2,w
  5886  039F  00B2               	movwf	?___flmul+2
  5887  03A0  0845               	movf	___flmul@prod+1,w
  5888  03A1  00B1               	movwf	?___flmul+1
  5889  03A2  0844               	movf	___flmul@prod,w
  5890  03A3  00B0               	movwf	?___flmul
  5891  03A4                     l902:
  5892  03A4  0008               	return
  5893  03A5                     __end_of___flmul:
  5894                           
  5895                           	psect	text16
  5896  1AB3                     __ptext16:	
  5897 ;; *************** function __Umul8_16 *****************
  5898 ;; Defined at:
  5899 ;;		line 4 in file "C:\Program Files\Microchip\xc8\v2.32\pic\sources\c90\common\Umul8_16.c"
  5900 ;; Parameters:    Size  Location     Type
  5901 ;;  multiplier      1    wreg     unsigned char 
  5902 ;;  multiplicand    1    3[COMMON] unsigned char 
  5903 ;; Auto vars:     Size  Location     Type
  5904 ;;  multiplier      1    4[BANK0 ] unsigned char 
  5905 ;;  word_mpld       2    2[BANK0 ] unsigned int 
  5906 ;;  product         2    0[BANK0 ] unsigned int 
  5907 ;; Return value:  Size  Location     Type
  5908 ;;                  2    3[COMMON] unsigned int 
  5909 ;; Registers used:
  5910 ;;		wreg, status,2, status,0
  5911 ;; Tracked objects:
  5912 ;;		On entry : 0/0
  5913 ;;		On exit  : 0/0
  5914 ;;		Unchanged: 0/0
  5915 ;; Data sizes:     COMMON   BANK0   BANK1   BANK3   BANK2
  5916 ;;      Params:         2       0       0       0       0
  5917 ;;      Locals:         0       5       0       0       0
  5918 ;;      Temps:          2       0       0       0       0
  5919 ;;      Totals:         4       5       0       0       0
  5920 ;;Total ram usage:        9 bytes
  5921 ;; Hardware stack levels used: 1
  5922 ;; Hardware stack levels required when called: 1
  5923 ;; This function calls:
  5924 ;;		Nothing
  5925 ;; This function is called by:
  5926 ;;		___flmul
  5927 ;; This function uses a non-reentrant model
  5928 ;;
  5929                           
  5930                           
  5931                           ;psect for function __Umul8_16
  5932  1AB3                     __Umul8_16:
  5933                           
  5934                           ;incstack = 0
  5935                           ; Regs used in __Umul8_16: [wreg+status,2+status,0]
  5936                           ;__Umul8_16@multiplier stored from wreg
  5937  1AB3  1283               	bcf	3,5	;RP0=0, select bank0
  5938  1AB4  1303               	bcf	3,6	;RP1=0, select bank0
  5939  1AB5  00A4               	movwf	__Umul8_16@multiplier
  5940  1AB6                     l2543:
  5941  1AB6  01A0               	clrf	__Umul8_16@product
  5942  1AB7  01A1               	clrf	__Umul8_16@product+1
  5943  1AB8                     l2545:
  5944  1AB8  0873               	movf	__Umul8_16@multiplicand,w
  5945  1AB9  00F5               	movwf	??__Umul8_16
  5946  1ABA  01F6               	clrf	??__Umul8_16+1
  5947  1ABB  0875               	movf	??__Umul8_16,w
  5948  1ABC  00A2               	movwf	__Umul8_16@word_mpld
  5949  1ABD  0876               	movf	??__Umul8_16+1,w
  5950  1ABE  00A3               	movwf	__Umul8_16@word_mpld+1
  5951  1ABF                     l2547:
  5952  1ABF  1C24               	btfss	__Umul8_16@multiplier,0
  5953  1AC0  2AC2               	goto	u3071
  5954  1AC1  2AC3               	goto	u3070
  5955  1AC2                     u3071:
  5956  1AC2  2AC9               	goto	l921
  5957  1AC3                     u3070:
  5958  1AC3                     l2549:
  5959  1AC3  0822               	movf	__Umul8_16@word_mpld,w
  5960  1AC4  07A0               	addwf	__Umul8_16@product,f
  5961  1AC5  1803               	skipnc
  5962  1AC6  0AA1               	incf	__Umul8_16@product+1,f
  5963  1AC7  0823               	movf	__Umul8_16@word_mpld+1,w
  5964  1AC8  07A1               	addwf	__Umul8_16@product+1,f
  5965  1AC9                     l921:
  5966  1AC9  3001               	movlw	1
  5967  1ACA                     u3085:
  5968  1ACA  1003               	clrc
  5969  1ACB  0DA2               	rlf	__Umul8_16@word_mpld,f
  5970  1ACC  0DA3               	rlf	__Umul8_16@word_mpld+1,f
  5971  1ACD  3EFF               	addlw	-1
  5972  1ACE  1D03               	skipz
  5973  1ACF  2ACA               	goto	u3085
  5974  1AD0  1003               	clrc
  5975  1AD1  0CA4               	rrf	__Umul8_16@multiplier,f
  5976  1AD2                     l2551:
  5977  1AD2  0824               	movf	__Umul8_16@multiplier,w
  5978  1AD3  1D03               	btfss	3,2
  5979  1AD4  2AD6               	goto	u3091
  5980  1AD5  2AD7               	goto	u3090
  5981  1AD6                     u3091:
  5982  1AD6  2ABF               	goto	l2547
  5983  1AD7                     u3090:
  5984  1AD7                     l2553:
  5985  1AD7  0821               	movf	__Umul8_16@product+1,w
  5986  1AD8  00F4               	movwf	?__Umul8_16+1
  5987  1AD9  0820               	movf	__Umul8_16@product,w
  5988  1ADA  00F3               	movwf	?__Umul8_16
  5989  1ADB                     l923:
  5990  1ADB  0008               	return
  5991  1ADC                     __end_of__Umul8_16:
  5992                           
  5993                           	psect	text17
  5994  1D2A                     __ptext17:	
  5995 ;; *************** function _SendLCDString *****************
  5996 ;; Defined at:
  5997 ;;		line 523 in file "main.c"
  5998 ;; Parameters:    Size  Location     Type
  5999 ;;  string          1    wreg     PTR const unsigned char 
  6000 ;;		 -> STR_5(17), STR_4(33), STR_3(28), STR_2(1), 
  6001 ;;		 -> STR_1(15), 
  6002 ;; Auto vars:     Size  Location     Type
  6003 ;;  string          1    0[BANK0 ] PTR const unsigned char 
  6004 ;;		 -> STR_5(17), STR_4(33), STR_3(28), STR_2(1), 
  6005 ;;		 -> STR_1(15), 
  6006 ;;  i               1    1[BANK0 ] unsigned char 
  6007 ;; Return value:  Size  Location     Type
  6008 ;;                  1    wreg      void 
  6009 ;; Registers used:
  6010 ;;		wreg, fsr0l, fsr0h, status,2, status,0, pclath, cstack
  6011 ;; Tracked objects:
  6012 ;;		On entry : 0/0
  6013 ;;		On exit  : 0/0
  6014 ;;		Unchanged: 0/0
  6015 ;; Data sizes:     COMMON   BANK0   BANK1   BANK3   BANK2
  6016 ;;      Params:         0       0       0       0       0
  6017 ;;      Locals:         0       2       0       0       0
  6018 ;;      Temps:          1       0       0       0       0
  6019 ;;      Totals:         1       2       0       0       0
  6020 ;;Total ram usage:        3 bytes
  6021 ;; Hardware stack levels used: 1
  6022 ;; Hardware stack levels required when called: 2
  6023 ;; This function calls:
  6024 ;;		_SendLCD
  6025 ;; This function is called by:
  6026 ;;		_main
  6027 ;;		_ManageDisplays
  6028 ;; This function uses a non-reentrant model
  6029 ;;
  6030                           
  6031                           
  6032                           ;psect for function _SendLCDString
  6033  1D2A                     _SendLCDString:
  6034                           
  6035                           ;incstack = 0
  6036                           ; Regs used in _SendLCDString: [wreg-fsr0h+status,2+status,0+pclath+cstack]
  6037                           ;SendLCDString@string stored from wreg
  6038  1D2A  1283               	bcf	3,5	;RP0=0, select bank0
  6039  1D2B  1303               	bcf	3,6	;RP1=0, select bank0
  6040  1D2C  00A0               	movwf	SendLCDString@string
  6041  1D2D                     l4067:
  6042                           
  6043                           ;main.c: 523: void SendLCDString(const char *string);main.c: 524: {;main.c: 525:     cha
      +                          r i = 0;
  6044  1D2D  01A1               	clrf	SendLCDString@i
  6045                           
  6046                           ;main.c: 526:     while(string[i] != '\0')
  6047  1D2E  2D7A               	goto	l4087
  6048  1D2F                     l4069:
  6049                           
  6050                           ;main.c: 527:     {;main.c: 528:         if (i<16)
  6051  1D2F  3010               	movlw	16
  6052  1D30  0221               	subwf	SendLCDString@i,w
  6053  1D31  1803               	skipnc
  6054  1D32  2D34               	goto	u5901
  6055  1D33  2D35               	goto	u5900
  6056  1D34                     u5901:
  6057  1D34  2D4B               	goto	l4075
  6058  1D35                     u5900:
  6059  1D35                     l4071:
  6060                           
  6061                           ;main.c: 529:         {;main.c: 530:             SendLCD(string[i], 0x01);
  6062  1D35  01F3               	clrf	SendLCD@type
  6063  1D36  0AF3               	incf	SendLCD@type,f
  6064  1D37  0821               	movf	SendLCDString@i,w
  6065  1D38  0720               	addwf	SendLCDString@string,w
  6066  1D39  0084               	movwf	4
  6067  1D3A  160A  118A  2000  160A  158A  	fcall	stringdir
  6068  1D3F  160A  158A  2307  160A  158A  	fcall	_SendLCD
  6069  1D44                     l4073:
  6070                           
  6071                           ;main.c: 531:             i++;
  6072  1D44  3001               	movlw	1
  6073  1D45  00F7               	movwf	??_SendLCDString
  6074  1D46  0877               	movf	??_SendLCDString,w
  6075  1D47  1283               	bcf	3,5	;RP0=0, select bank0
  6076  1D48  1303               	bcf	3,6	;RP1=0, select bank0
  6077  1D49  07A1               	addwf	SendLCDString@i,f
  6078                           
  6079                           ;main.c: 532:         }
  6080  1D4A  2D7A               	goto	l4087
  6081  1D4B                     l4075:
  6082  1D4B  3010               	movlw	16
  6083  1D4C  0621               	xorwf	SendLCDString@i,w
  6084  1D4D  1D03               	btfss	3,2
  6085  1D4E  2D50               	goto	u5911
  6086  1D4F  2D51               	goto	u5910
  6087  1D50                     u5911:
  6088  1D50  2D6A               	goto	l4083
  6089  1D51                     u5910:
  6090  1D51                     l4077:
  6091                           
  6092                           ;main.c: 534:         {;main.c: 535:             SendLCD(0xC0, 0x00);
  6093  1D51  01F3               	clrf	SendLCD@type
  6094  1D52  30C0               	movlw	192
  6095  1D53  160A  158A  2307  160A  158A  	fcall	_SendLCD
  6096  1D58                     l4079:
  6097                           
  6098                           ;main.c: 536:             SendLCD(string[i], 0x01);
  6099  1D58  01F3               	clrf	SendLCD@type
  6100  1D59  0AF3               	incf	SendLCD@type,f
  6101  1D5A  1283               	bcf	3,5	;RP0=0, select bank0
  6102  1D5B  1303               	bcf	3,6	;RP1=0, select bank0
  6103  1D5C  0821               	movf	SendLCDString@i,w
  6104  1D5D  0720               	addwf	SendLCDString@string,w
  6105  1D5E  0084               	movwf	4
  6106  1D5F  160A  118A  2000  160A  158A  	fcall	stringdir
  6107  1D64  160A  158A  2307  160A  158A  	fcall	_SendLCD
  6108  1D69  2D44               	goto	l4073
  6109  1D6A                     l4083:
  6110                           
  6111                           ;main.c: 540:         {;main.c: 541:             SendLCD(string[i], 0x01);
  6112  1D6A  01F3               	clrf	SendLCD@type
  6113  1D6B  0AF3               	incf	SendLCD@type,f
  6114  1D6C  0821               	movf	SendLCDString@i,w
  6115  1D6D  0720               	addwf	SendLCDString@string,w
  6116  1D6E  0084               	movwf	4
  6117  1D6F  160A  118A  2000  160A  158A  	fcall	stringdir
  6118  1D74  160A  158A  2307  160A  158A  	fcall	_SendLCD
  6119  1D79  2D44               	goto	l4073
  6120  1D7A                     l4087:
  6121                           
  6122                           ;main.c: 526:     while(string[i] != '\0')
  6123  1D7A  0821               	movf	SendLCDString@i,w
  6124  1D7B  0720               	addwf	SendLCDString@string,w
  6125  1D7C  0084               	movwf	4
  6126  1D7D  160A  118A  2000  160A  158A  	fcall	stringdir
  6127  1D82  3A00               	xorlw	0
  6128  1D83  1D03               	skipz
  6129  1D84  2D86               	goto	u5921
  6130  1D85  2D87               	goto	u5920
  6131  1D86                     u5921:
  6132  1D86  2D2F               	goto	l4069
  6133  1D87                     u5920:
  6134  1D87                     l335:
  6135  1D87  0008               	return
  6136  1D88                     __end_of_SendLCDString:
  6137                           
  6138                           	psect	text18
  6139  16EF                     __ptext18:	
  6140 ;; *************** function _HandleKeypadReading *****************
  6141 ;; Defined at:
  6142 ;;		line 344 in file "main.c"
  6143 ;; Parameters:    Size  Location     Type
  6144 ;;  value           1    wreg     unsigned char 
  6145 ;; Auto vars:     Size  Location     Type
  6146 ;;  value           1   79[BANK0 ] unsigned char 
  6147 ;; Return value:  Size  Location     Type
  6148 ;;                  1    wreg      void 
  6149 ;; Registers used:
  6150 ;;		wreg, fsr0l, fsr0h, status,2, status,0, btemp+1, pclath, cstack
  6151 ;; Tracked objects:
  6152 ;;		On entry : 0/0
  6153 ;;		On exit  : 0/0
  6154 ;;		Unchanged: 0/0
  6155 ;; Data sizes:     COMMON   BANK0   BANK1   BANK3   BANK2
  6156 ;;      Params:         0       0       0       0       0
  6157 ;;      Locals:         0       1       0       0       0
  6158 ;;      Temps:          0       1       0       0       0
  6159 ;;      Totals:         0       2       0       0       0
  6160 ;;Total ram usage:        2 bytes
  6161 ;; Hardware stack levels used: 1
  6162 ;; Hardware stack levels required when called: 4
  6163 ;; This function calls:
  6164 ;;		_PrepareDesiredTempDataPacket
  6165 ;;		_UART_TxDesiredTempDataPacket
  6166 ;;		___fladd
  6167 ;;		___flge
  6168 ;;		___flsub
  6169 ;; This function is called by:
  6170 ;;		_ManageDisplays
  6171 ;; This function uses a non-reentrant model
  6172 ;;
  6173                           
  6174                           
  6175                           ;psect for function _HandleKeypadReading
  6176  16EF                     _HandleKeypadReading:
  6177                           
  6178                           ;incstack = 0
  6179                           ; Regs used in _HandleKeypadReading: [wreg-fsr0h+status,2+status,0+btemp+1+pclath+cstack
      +                          ]
  6180                           ;HandleKeypadReading@value stored from wreg
  6181  16EF  1283               	bcf	3,5	;RP0=0, select bank0
  6182  16F0  1303               	bcf	3,6	;RP1=0, select bank0
  6183  16F1  00EF               	movwf	HandleKeypadReading@value
  6184  16F2                     l4099:
  6185                           
  6186                           ;main.c: 344: void HandleKeypadReading(unsigned char value);main.c: 345: {;main.c: 346: 
      +                              if(value == 6)
  6187  16F2  3006               	movlw	6
  6188  16F3  066F               	xorwf	HandleKeypadReading@value,w
  6189  16F4  1D03               	btfss	3,2
  6190  16F5  2EF7               	goto	u5941
  6191  16F6  2EF8               	goto	u5940
  6192  16F7                     u5941:
  6193  16F7  2EFC               	goto	l260
  6194  16F8                     u5940:
  6195  16F8                     l4101:
  6196                           
  6197                           ;main.c: 347:         currentDisplay ++;
  6198  16F8  3001               	movlw	1
  6199  16F9  00EE               	movwf	??_HandleKeypadReading
  6200  16FA  086E               	movf	??_HandleKeypadReading,w
  6201  16FB  07F9               	addwf	_currentDisplay,f
  6202  16FC                     l260:
  6203                           
  6204                           ;main.c: 349:     if(value == 4)
  6205  16FC  3004               	movlw	4
  6206  16FD  066F               	xorwf	HandleKeypadReading@value,w
  6207  16FE  1D03               	btfss	3,2
  6208  16FF  2F01               	goto	u5951
  6209  1700  2F02               	goto	u5950
  6210  1701                     u5951:
  6211  1701  2F04               	goto	l261
  6212  1702                     u5950:
  6213  1702                     l4103:
  6214                           
  6215                           ;main.c: 350:         currentDisplay --;
  6216  1702  3001               	movlw	1
  6217  1703  02F9               	subwf	_currentDisplay,f
  6218  1704                     l261:
  6219                           
  6220                           ;main.c: 352:     if(value == 2 && currentDisplay == 3)
  6221  1704  3002               	movlw	2
  6222  1705  066F               	xorwf	HandleKeypadReading@value,w
  6223  1706  1D03               	btfss	3,2
  6224  1707  2F09               	goto	u5961
  6225  1708  2F0A               	goto	u5960
  6226  1709                     u5961:
  6227  1709  2F60               	goto	l4111
  6228  170A                     u5960:
  6229  170A                     l4105:
  6230  170A  3003               	movlw	3
  6231  170B  0679               	xorwf	_currentDisplay,w
  6232  170C  1D03               	btfss	3,2
  6233  170D  2F0F               	goto	u5971
  6234  170E  2F10               	goto	u5970
  6235  170F                     u5971:
  6236  170F  2F60               	goto	l4111
  6237  1710                     u5970:
  6238  1710                     l4107:
  6239                           
  6240                           ;main.c: 353:     {;main.c: 354:         setTemp += 0.1;
  6241  1710  303D               	movlw	61
  6242  1711  00D8               	movwf	___fladd@b+3
  6243  1712  30CC               	movlw	204
  6244  1713  00D7               	movwf	___fladd@b+2
  6245  1714  30CC               	movlw	204
  6246  1715  00D6               	movwf	___fladd@b+1
  6247  1716  30CD               	movlw	205
  6248  1717  00D5               	movwf	___fladd@b
  6249  1718  1683               	bsf	3,5	;RP0=1, select bank1
  6250  1719  1303               	bcf	3,6	;RP1=0, select bank1
  6251  171A  0867               	movf	(_setTemp+3)^(0+128),w
  6252  171B  1283               	bcf	3,5	;RP0=0, select bank0
  6253  171C  1303               	bcf	3,6	;RP1=0, select bank0
  6254  171D  00DC               	movwf	___fladd@a+3
  6255  171E  1683               	bsf	3,5	;RP0=1, select bank1
  6256  171F  1303               	bcf	3,6	;RP1=0, select bank1
  6257  1720  0866               	movf	(_setTemp+2)^(0+128),w
  6258  1721  1283               	bcf	3,5	;RP0=0, select bank0
  6259  1722  1303               	bcf	3,6	;RP1=0, select bank0
  6260  1723  00DB               	movwf	___fladd@a+2
  6261  1724  1683               	bsf	3,5	;RP0=1, select bank1
  6262  1725  1303               	bcf	3,6	;RP1=0, select bank1
  6263  1726  0865               	movf	(_setTemp+1)^(0+128),w
  6264  1727  1283               	bcf	3,5	;RP0=0, select bank0
  6265  1728  1303               	bcf	3,6	;RP1=0, select bank0
  6266  1729  00DA               	movwf	___fladd@a+1
  6267  172A  1683               	bsf	3,5	;RP0=1, select bank1
  6268  172B  1303               	bcf	3,6	;RP1=0, select bank1
  6269  172C  0864               	movf	_setTemp^(0+128),w
  6270  172D  1283               	bcf	3,5	;RP0=0, select bank0
  6271  172E  1303               	bcf	3,6	;RP1=0, select bank0
  6272  172F  00D9               	movwf	___fladd@a
  6273  1730  120A  158A  2578  160A  118A  	fcall	___fladd
  6274  1735  1283               	bcf	3,5	;RP0=0, select bank0
  6275  1736  1303               	bcf	3,6	;RP1=0, select bank0
  6276  1737  0858               	movf	?___fladd+3,w
  6277  1738  1683               	bsf	3,5	;RP0=1, select bank1
  6278  1739  1303               	bcf	3,6	;RP1=0, select bank1
  6279  173A  00E7               	movwf	(_setTemp+3)^(0+128)
  6280  173B  1283               	bcf	3,5	;RP0=0, select bank0
  6281  173C  1303               	bcf	3,6	;RP1=0, select bank0
  6282  173D  0857               	movf	?___fladd+2,w
  6283  173E  1683               	bsf	3,5	;RP0=1, select bank1
  6284  173F  1303               	bcf	3,6	;RP1=0, select bank1
  6285  1740  00E6               	movwf	(_setTemp+2)^(0+128)
  6286  1741  1283               	bcf	3,5	;RP0=0, select bank0
  6287  1742  1303               	bcf	3,6	;RP1=0, select bank0
  6288  1743  0856               	movf	?___fladd+1,w
  6289  1744  1683               	bsf	3,5	;RP0=1, select bank1
  6290  1745  1303               	bcf	3,6	;RP1=0, select bank1
  6291  1746  00E5               	movwf	(_setTemp+1)^(0+128)
  6292  1747  1283               	bcf	3,5	;RP0=0, select bank0
  6293  1748  1303               	bcf	3,6	;RP1=0, select bank0
  6294  1749  0855               	movf	?___fladd,w
  6295  174A  1683               	bsf	3,5	;RP0=1, select bank1
  6296  174B  1303               	bcf	3,6	;RP1=0, select bank1
  6297  174C  00E4               	movwf	_setTemp^(0+128)
  6298                           
  6299                           ;main.c: 355:         PrepareDesiredTempDataPacket(setTemp);
  6300  174D  0867               	movf	(_setTemp+3)^(0+128),w
  6301  174E  00C0               	movwf	(PrepareDesiredTempDataPacket@temp+3)^(0+128)
  6302  174F  0866               	movf	(_setTemp+2)^(0+128),w
  6303  1750  00BF               	movwf	(PrepareDesiredTempDataPacket@temp+2)^(0+128)
  6304  1751  0865               	movf	(_setTemp+1)^(0+128),w
  6305  1752  00BE               	movwf	(PrepareDesiredTempDataPacket@temp+1)^(0+128)
  6306  1753  0864               	movf	_setTemp^(0+128),w
  6307  1754  00BD               	movwf	PrepareDesiredTempDataPacket@temp^(0+128)
  6308  1755  160A  118A  24F0  160A  118A  	fcall	_PrepareDesiredTempDataPacket
  6309  175A                     l4109:
  6310                           
  6311                           ;main.c: 356:         UART_TxDesiredTempDataPacket(desiredTempPacketTx);
  6312  175A  30B3               	movlw	(low (_desiredTempPacketTx| (0+256)))& (0+255)
  6313  175B  160A  158A  2650  160A  118A  	fcall	_UART_TxDesiredTempDataPacket
  6314  1760                     l4111:
  6315                           
  6316                           ;main.c: 360:     if(value == 8 && currentDisplay == 3)
  6317  1760  3008               	movlw	8
  6318  1761  1283               	bcf	3,5	;RP0=0, select bank0
  6319  1762  1303               	bcf	3,6	;RP1=0, select bank0
  6320  1763  066F               	xorwf	HandleKeypadReading@value,w
  6321  1764  1D03               	btfss	3,2
  6322  1765  2F67               	goto	u5981
  6323  1766  2F68               	goto	u5980
  6324  1767                     u5981:
  6325  1767  2FA2               	goto	l4119
  6326  1768                     u5980:
  6327  1768                     l4113:
  6328  1768  3003               	movlw	3
  6329  1769  0679               	xorwf	_currentDisplay,w
  6330  176A  1D03               	btfss	3,2
  6331  176B  2F6D               	goto	u5991
  6332  176C  2F6E               	goto	u5990
  6333  176D                     u5991:
  6334  176D  2FA2               	goto	l4119
  6335  176E                     u5990:
  6336  176E                     l4115:
  6337                           
  6338                           ;main.c: 361:     {;main.c: 362:         setTemp -= 0.1;
  6339  176E  303D               	movlw	61
  6340  176F  1683               	bsf	3,5	;RP0=1, select bank1
  6341  1770  1303               	bcf	3,6	;RP1=0, select bank1
  6342  1771  00A3               	movwf	(___flsub@a+3)^(0+128)
  6343  1772  30CC               	movlw	204
  6344  1773  00A2               	movwf	(___flsub@a+2)^(0+128)
  6345  1774  30CC               	movlw	204
  6346  1775  00A1               	movwf	(___flsub@a+1)^(0+128)
  6347  1776  30CD               	movlw	205
  6348  1777  00A0               	movwf	___flsub@a^(0+128)
  6349  1778  0867               	movf	(_setTemp+3)^(0+128),w
  6350  1779  00A7               	movwf	(___flsub@b+3)^(0+128)
  6351  177A  0866               	movf	(_setTemp+2)^(0+128),w
  6352  177B  00A6               	movwf	(___flsub@b+2)^(0+128)
  6353  177C  0865               	movf	(_setTemp+1)^(0+128),w
  6354  177D  00A5               	movwf	(___flsub@b+1)^(0+128)
  6355  177E  0864               	movf	_setTemp^(0+128),w
  6356  177F  00A4               	movwf	___flsub@b^(0+128)
  6357  1780  160A  158A  2487  160A  118A  	fcall	___flsub
  6358  1785  1683               	bsf	3,5	;RP0=1, select bank1
  6359  1786  1303               	bcf	3,6	;RP1=0, select bank1
  6360  1787  0823               	movf	(?___flsub+3)^(0+128),w
  6361  1788  00E7               	movwf	(_setTemp+3)^(0+128)
  6362  1789  0822               	movf	(?___flsub+2)^(0+128),w
  6363  178A  00E6               	movwf	(_setTemp+2)^(0+128)
  6364  178B  0821               	movf	(?___flsub+1)^(0+128),w
  6365  178C  00E5               	movwf	(_setTemp+1)^(0+128)
  6366  178D  0820               	movf	?___flsub^(0+128),w
  6367  178E  00E4               	movwf	_setTemp^(0+128)
  6368                           
  6369                           ;main.c: 363:         PrepareDesiredTempDataPacket(setTemp);
  6370  178F  0867               	movf	(_setTemp+3)^(0+128),w
  6371  1790  00C0               	movwf	(PrepareDesiredTempDataPacket@temp+3)^(0+128)
  6372  1791  0866               	movf	(_setTemp+2)^(0+128),w
  6373  1792  00BF               	movwf	(PrepareDesiredTempDataPacket@temp+2)^(0+128)
  6374  1793  0865               	movf	(_setTemp+1)^(0+128),w
  6375  1794  00BE               	movwf	(PrepareDesiredTempDataPacket@temp+1)^(0+128)
  6376  1795  0864               	movf	_setTemp^(0+128),w
  6377  1796  00BD               	movwf	PrepareDesiredTempDataPacket@temp^(0+128)
  6378  1797  160A  118A  24F0  160A  118A  	fcall	_PrepareDesiredTempDataPacket
  6379  179C                     l4117:
  6380                           
  6381                           ;main.c: 364:         UART_TxDesiredTempDataPacket(desiredTempPacketTx);
  6382  179C  30B3               	movlw	(low (_desiredTempPacketTx| (0+256)))& (0+255)
  6383  179D  160A  158A  2650  160A  118A  	fcall	_UART_TxDesiredTempDataPacket
  6384  17A2                     l4119:
  6385                           
  6386                           ;main.c: 367:     if(currentDisplay >= 4)
  6387  17A2  3004               	movlw	4
  6388  17A3  0279               	subwf	_currentDisplay,w
  6389  17A4  1C03               	skipc
  6390  17A5  2FA7               	goto	u6001
  6391  17A6  2FA8               	goto	u6000
  6392  17A7                     u6001:
  6393  17A7  2FAA               	goto	l4123
  6394  17A8                     u6000:
  6395  17A8                     l4121:
  6396                           
  6397                           ;main.c: 368:         currentDisplay = 1;
  6398  17A8  01F9               	clrf	_currentDisplay
  6399  17A9  0AF9               	incf	_currentDisplay,f
  6400  17AA                     l4123:
  6401                           
  6402                           ;main.c: 370:     if(currentDisplay == 0)
  6403  17AA  0879               	movf	_currentDisplay,w
  6404  17AB  1D03               	btfss	3,2
  6405  17AC  2FAE               	goto	u6011
  6406  17AD  2FAF               	goto	u6010
  6407  17AE                     u6011:
  6408  17AE  2FB5               	goto	l4127
  6409  17AF                     u6010:
  6410  17AF                     l4125:
  6411                           
  6412                           ;main.c: 371:         currentDisplay = 4 -1;
  6413  17AF  3003               	movlw	3
  6414  17B0  1283               	bcf	3,5	;RP0=0, select bank0
  6415  17B1  1303               	bcf	3,6	;RP1=0, select bank0
  6416  17B2  00EE               	movwf	??_HandleKeypadReading
  6417  17B3  086E               	movf	??_HandleKeypadReading,w
  6418  17B4  00F9               	movwf	_currentDisplay
  6419  17B5                     l4127:
  6420                           
  6421                           ;main.c: 373:     if(setTemp > maxSetTemp)
  6422  17B5  3042               	movlw	66
  6423  17B6  1683               	bsf	3,5	;RP0=1, select bank1
  6424  17B7  1303               	bcf	3,6	;RP1=0, select bank1
  6425  17B8  00A3               	movwf	(___flge@ff1+3)^(0+128)
  6426  17B9  300C               	movlw	12
  6427  17BA  00A2               	movwf	(___flge@ff1+2)^(0+128)
  6428  17BB  3000               	movlw	0
  6429  17BC  00A1               	movwf	(___flge@ff1+1)^(0+128)
  6430  17BD  3000               	movlw	0
  6431  17BE  00A0               	movwf	___flge@ff1^(0+128)
  6432  17BF  0867               	movf	(_setTemp+3)^(0+128),w
  6433  17C0  00A7               	movwf	(___flge@ff2+3)^(0+128)
  6434  17C1  0866               	movf	(_setTemp+2)^(0+128),w
  6435  17C2  00A6               	movwf	(___flge@ff2+2)^(0+128)
  6436  17C3  0865               	movf	(_setTemp+1)^(0+128),w
  6437  17C4  00A5               	movwf	(___flge@ff2+1)^(0+128)
  6438  17C5  0864               	movf	_setTemp^(0+128),w
  6439  17C6  00A4               	movwf	___flge@ff2^(0+128)
  6440  17C7  160A  118A  25DF  160A  118A  	fcall	___flge
  6441  17CC  1803               	btfsc	3,0
  6442  17CD  2FCF               	goto	u6021
  6443  17CE  2FD0               	goto	u6020
  6444  17CF                     u6021:
  6445  17CF  2FDA               	goto	l4131
  6446  17D0                     u6020:
  6447  17D0                     l4129:
  6448                           
  6449                           ;main.c: 374:         setTemp = maxSetTemp;
  6450  17D0  3042               	movlw	66
  6451  17D1  1683               	bsf	3,5	;RP0=1, select bank1
  6452  17D2  1303               	bcf	3,6	;RP1=0, select bank1
  6453  17D3  00E7               	movwf	(_setTemp+3)^(0+128)
  6454  17D4  300C               	movlw	12
  6455  17D5  00E6               	movwf	(_setTemp+2)^(0+128)
  6456  17D6  3000               	movlw	0
  6457  17D7  00E5               	movwf	(_setTemp+1)^(0+128)
  6458  17D8  3000               	movlw	0
  6459  17D9  00E4               	movwf	_setTemp^(0+128)
  6460  17DA                     l4131:
  6461                           
  6462                           ;main.c: 376:     if(setTemp < minSetTemp)
  6463  17DA  1683               	bsf	3,5	;RP0=1, select bank1
  6464  17DB  1303               	bcf	3,6	;RP1=0, select bank1
  6465  17DC  0867               	movf	(_setTemp+3)^(0+128),w
  6466  17DD  00A3               	movwf	(___flge@ff1+3)^(0+128)
  6467  17DE  0866               	movf	(_setTemp+2)^(0+128),w
  6468  17DF  00A2               	movwf	(___flge@ff1+2)^(0+128)
  6469  17E0  0865               	movf	(_setTemp+1)^(0+128),w
  6470  17E1  00A1               	movwf	(___flge@ff1+1)^(0+128)
  6471  17E2  0864               	movf	_setTemp^(0+128),w
  6472  17E3  00A0               	movwf	___flge@ff1^(0+128)
  6473  17E4  3041               	movlw	65
  6474  17E5  00A7               	movwf	(___flge@ff2+3)^(0+128)
  6475  17E6  3040               	movlw	64
  6476  17E7  00A6               	movwf	(___flge@ff2+2)^(0+128)
  6477  17E8  3000               	movlw	0
  6478  17E9  00A5               	movwf	(___flge@ff2+1)^(0+128)
  6479  17EA  3000               	movlw	0
  6480  17EB  00A4               	movwf	___flge@ff2^(0+128)
  6481  17EC  160A  118A  25DF  160A  118A  	fcall	___flge
  6482  17F1  1803               	btfsc	3,0
  6483  17F2  2FF4               	goto	u6031
  6484  17F3  2FF5               	goto	u6030
  6485  17F4                     u6031:
  6486  17F4  2FFF               	goto	l268
  6487  17F5                     u6030:
  6488  17F5                     l4133:
  6489                           
  6490                           ;main.c: 377:         setTemp = minSetTemp;
  6491  17F5  3041               	movlw	65
  6492  17F6  1683               	bsf	3,5	;RP0=1, select bank1
  6493  17F7  1303               	bcf	3,6	;RP1=0, select bank1
  6494  17F8  00E7               	movwf	(_setTemp+3)^(0+128)
  6495  17F9  3040               	movlw	64
  6496  17FA  00E6               	movwf	(_setTemp+2)^(0+128)
  6497  17FB  3000               	movlw	0
  6498  17FC  00E5               	movwf	(_setTemp+1)^(0+128)
  6499  17FD  3000               	movlw	0
  6500  17FE  00E4               	movwf	_setTemp^(0+128)
  6501  17FF                     l268:
  6502  17FF  0008               	return
  6503  1800                     __end_of_HandleKeypadReading:
  6504                           
  6505                           	psect	text19
  6506  15DF                     __ptext19:	
  6507 ;; *************** function ___flge *****************
  6508 ;; Defined at:
  6509 ;;		line 4 in file "C:\Program Files\Microchip\xc8\v2.32\pic\sources\c90\common\flge.c"
  6510 ;; Parameters:    Size  Location     Type
  6511 ;;  ff1             4    0[BANK1 ] void 
  6512 ;;  ff2             4    4[BANK1 ] void 
  6513 ;; Auto vars:     Size  Location     Type
  6514 ;;		None
  6515 ;; Return value:  Size  Location     Type
  6516 ;;		None               void
  6517 ;; Registers used:
  6518 ;;		wreg, status,2, status,0
  6519 ;; Tracked objects:
  6520 ;;		On entry : 0/0
  6521 ;;		On exit  : 0/0
  6522 ;;		Unchanged: 0/0
  6523 ;; Data sizes:     COMMON   BANK0   BANK1   BANK3   BANK2
  6524 ;;      Params:         0       0       8       0       0
  6525 ;;      Locals:         0       0       0       0       0
  6526 ;;      Temps:          0       4       0       0       0
  6527 ;;      Totals:         0       4       8       0       0
  6528 ;;Total ram usage:       12 bytes
  6529 ;; Hardware stack levels used: 1
  6530 ;; Hardware stack levels required when called: 1
  6531 ;; This function calls:
  6532 ;;		Nothing
  6533 ;; This function is called by:
  6534 ;;		_HandleKeypadReading
  6535 ;;		_ManageTemperature
  6536 ;;		_ReadHumidity
  6537 ;;		_UpdateLCDViewWithNumber
  6538 ;;		_PrepareTempHumDataPacket
  6539 ;; This function uses a non-reentrant model
  6540 ;;
  6541                           
  6542                           
  6543                           ;psect for function ___flge
  6544  15DF                     ___flge:
  6545  15DF                     l3715:	
  6546                           ;incstack = 0
  6547                           ; Regs used in ___flge: [wreg+status,2+status,0]
  6548                           
  6549  15DF  3000               	movlw	0
  6550  15E0  1683               	bsf	3,5	;RP0=1, select bank1
  6551  15E1  1303               	bcf	3,6	;RP1=0, select bank1
  6552  15E2  0520               	andwf	___flge@ff1^(0+128),w
  6553  15E3  1283               	bcf	3,5	;RP0=0, select bank0
  6554  15E4  1303               	bcf	3,6	;RP1=0, select bank0
  6555  15E5  00E9               	movwf	??___flge
  6556  15E6  3000               	movlw	0
  6557  15E7  1683               	bsf	3,5	;RP0=1, select bank1
  6558  15E8  1303               	bcf	3,6	;RP1=0, select bank1
  6559  15E9  0521               	andwf	(___flge@ff1+1)^(0+128),w
  6560  15EA  1283               	bcf	3,5	;RP0=0, select bank0
  6561  15EB  1303               	bcf	3,6	;RP1=0, select bank0
  6562  15EC  00EA               	movwf	??___flge+1
  6563  15ED  3080               	movlw	128
  6564  15EE  1683               	bsf	3,5	;RP0=1, select bank1
  6565  15EF  1303               	bcf	3,6	;RP1=0, select bank1
  6566  15F0  0522               	andwf	(___flge@ff1+2)^(0+128),w
  6567  15F1  1283               	bcf	3,5	;RP0=0, select bank0
  6568  15F2  1303               	bcf	3,6	;RP1=0, select bank0
  6569  15F3  00EB               	movwf	??___flge+2
  6570  15F4  307F               	movlw	127
  6571  15F5  1683               	bsf	3,5	;RP0=1, select bank1
  6572  15F6  1303               	bcf	3,6	;RP1=0, select bank1
  6573  15F7  0523               	andwf	(___flge@ff1+3)^(0+128),w
  6574  15F8  1283               	bcf	3,5	;RP0=0, select bank0
  6575  15F9  1303               	bcf	3,6	;RP1=0, select bank0
  6576  15FA  00EC               	movwf	??___flge+3
  6577  15FB  086C               	movf	??___flge+3,w
  6578  15FC  046B               	iorwf	??___flge+2,w
  6579  15FD  046A               	iorwf	??___flge+1,w
  6580  15FE  0469               	iorwf	??___flge,w
  6581  15FF  1D03               	skipz
  6582  1600  2E02               	goto	u5281
  6583  1601  2E03               	goto	u5280
  6584  1602                     u5281:
  6585  1602  2E0D               	goto	l687
  6586  1603                     u5280:
  6587  1603                     l3717:
  6588  1603  3000               	movlw	0
  6589  1604  1683               	bsf	3,5	;RP0=1, select bank1
  6590  1605  1303               	bcf	3,6	;RP1=0, select bank1
  6591  1606  00A3               	movwf	(___flge@ff1+3)^(0+128)
  6592  1607  3000               	movlw	0
  6593  1608  00A2               	movwf	(___flge@ff1+2)^(0+128)
  6594  1609  3000               	movlw	0
  6595  160A  00A1               	movwf	(___flge@ff1+1)^(0+128)
  6596  160B  3000               	movlw	0
  6597  160C  00A0               	movwf	___flge@ff1^(0+128)
  6598  160D                     l687:
  6599  160D  3000               	movlw	0
  6600  160E  1683               	bsf	3,5	;RP0=1, select bank1
  6601  160F  1303               	bcf	3,6	;RP1=0, select bank1
  6602  1610  0524               	andwf	___flge@ff2^(0+128),w
  6603  1611  1283               	bcf	3,5	;RP0=0, select bank0
  6604  1612  1303               	bcf	3,6	;RP1=0, select bank0
  6605  1613  00E9               	movwf	??___flge
  6606  1614  3000               	movlw	0
  6607  1615  1683               	bsf	3,5	;RP0=1, select bank1
  6608  1616  1303               	bcf	3,6	;RP1=0, select bank1
  6609  1617  0525               	andwf	(___flge@ff2+1)^(0+128),w
  6610  1618  1283               	bcf	3,5	;RP0=0, select bank0
  6611  1619  1303               	bcf	3,6	;RP1=0, select bank0
  6612  161A  00EA               	movwf	??___flge+1
  6613  161B  3080               	movlw	128
  6614  161C  1683               	bsf	3,5	;RP0=1, select bank1
  6615  161D  1303               	bcf	3,6	;RP1=0, select bank1
  6616  161E  0526               	andwf	(___flge@ff2+2)^(0+128),w
  6617  161F  1283               	bcf	3,5	;RP0=0, select bank0
  6618  1620  1303               	bcf	3,6	;RP1=0, select bank0
  6619  1621  00EB               	movwf	??___flge+2
  6620  1622  307F               	movlw	127
  6621  1623  1683               	bsf	3,5	;RP0=1, select bank1
  6622  1624  1303               	bcf	3,6	;RP1=0, select bank1
  6623  1625  0527               	andwf	(___flge@ff2+3)^(0+128),w
  6624  1626  1283               	bcf	3,5	;RP0=0, select bank0
  6625  1627  1303               	bcf	3,6	;RP1=0, select bank0
  6626  1628  00EC               	movwf	??___flge+3
  6627  1629  086C               	movf	??___flge+3,w
  6628  162A  046B               	iorwf	??___flge+2,w
  6629  162B  046A               	iorwf	??___flge+1,w
  6630  162C  0469               	iorwf	??___flge,w
  6631  162D  1D03               	skipz
  6632  162E  2E30               	goto	u5291
  6633  162F  2E31               	goto	u5290
  6634  1630                     u5291:
  6635  1630  2E3B               	goto	l3721
  6636  1631                     u5290:
  6637  1631                     l3719:
  6638  1631  3000               	movlw	0
  6639  1632  1683               	bsf	3,5	;RP0=1, select bank1
  6640  1633  1303               	bcf	3,6	;RP1=0, select bank1
  6641  1634  00A7               	movwf	(___flge@ff2+3)^(0+128)
  6642  1635  3000               	movlw	0
  6643  1636  00A6               	movwf	(___flge@ff2+2)^(0+128)
  6644  1637  3000               	movlw	0
  6645  1638  00A5               	movwf	(___flge@ff2+1)^(0+128)
  6646  1639  3000               	movlw	0
  6647  163A  00A4               	movwf	___flge@ff2^(0+128)
  6648  163B                     l3721:
  6649  163B  1683               	bsf	3,5	;RP0=1, select bank1
  6650  163C  1303               	bcf	3,6	;RP1=0, select bank1
  6651  163D  1FA3               	btfss	(___flge@ff1+3)^(0+128),7
  6652  163E  2E40               	goto	u5301
  6653  163F  2E41               	goto	u5300
  6654  1640                     u5301:
  6655  1640  2E89               	goto	l3725
  6656  1641                     u5300:
  6657  1641                     l3723:
  6658  1641  3000               	movlw	0
  6659  1642  1283               	bcf	3,5	;RP0=0, select bank0
  6660  1643  1303               	bcf	3,6	;RP1=0, select bank0
  6661  1644  00E9               	movwf	??___flge
  6662  1645  3000               	movlw	0
  6663  1646  00EA               	movwf	??___flge+1
  6664  1647  3000               	movlw	0
  6665  1648  00EB               	movwf	??___flge+2
  6666  1649  3080               	movlw	128
  6667  164A  00EC               	movwf	??___flge+3
  6668  164B  1683               	bsf	3,5	;RP0=1, select bank1
  6669  164C  1303               	bcf	3,6	;RP1=0, select bank1
  6670  164D  0820               	movf	___flge@ff1^(0+128),w
  6671  164E  1283               	bcf	3,5	;RP0=0, select bank0
  6672  164F  1303               	bcf	3,6	;RP1=0, select bank0
  6673  1650  02E9               	subwf	??___flge,f
  6674  1651  1683               	bsf	3,5	;RP0=1, select bank1
  6675  1652  1303               	bcf	3,6	;RP1=0, select bank1
  6676  1653  0821               	movf	(___flge@ff1+1)^(0+128),w
  6677  1654  1C03               	skipc
  6678  1655  0F21               	incfsz	(___flge@ff1+1)^(0+128),w
  6679  1656  2E58               	goto	u5311
  6680  1657  2E5B               	goto	u5312
  6681  1658                     u5311:
  6682  1658  1283               	bcf	3,5	;RP0=0, select bank0
  6683  1659  1303               	bcf	3,6	;RP1=0, select bank0
  6684  165A  02EA               	subwf	??___flge+1,f
  6685  165B                     u5312:
  6686  165B  1683               	bsf	3,5	;RP0=1, select bank1
  6687  165C  1303               	bcf	3,6	;RP1=0, select bank1
  6688  165D  0822               	movf	(___flge@ff1+2)^(0+128),w
  6689  165E  1C03               	skipc
  6690  165F  0F22               	incfsz	(___flge@ff1+2)^(0+128),w
  6691  1660  2E62               	goto	u5313
  6692  1661  2E65               	goto	u5314
  6693  1662                     u5313:
  6694  1662  1283               	bcf	3,5	;RP0=0, select bank0
  6695  1663  1303               	bcf	3,6	;RP1=0, select bank0
  6696  1664  02EB               	subwf	??___flge+2,f
  6697  1665                     u5314:
  6698  1665  1683               	bsf	3,5	;RP0=1, select bank1
  6699  1666  1303               	bcf	3,6	;RP1=0, select bank1
  6700  1667  0823               	movf	(___flge@ff1+3)^(0+128),w
  6701  1668  1C03               	skipc
  6702  1669  0F23               	incfsz	(___flge@ff1+3)^(0+128),w
  6703  166A  2E6C               	goto	u5315
  6704  166B  2E6F               	goto	u5316
  6705  166C                     u5315:
  6706  166C  1283               	bcf	3,5	;RP0=0, select bank0
  6707  166D  1303               	bcf	3,6	;RP1=0, select bank0
  6708  166E  02EC               	subwf	??___flge+3,f
  6709  166F                     u5316:
  6710  166F  1683               	bsf	3,5	;RP0=1, select bank1
  6711  1670  1303               	bcf	3,6	;RP1=0, select bank1
  6712  1671  1283               	bcf	3,5	;RP0=0, select bank0
  6713  1672  1303               	bcf	3,6	;RP1=0, select bank0
  6714  1673  086C               	movf	??___flge+3,w
  6715  1674  1683               	bsf	3,5	;RP0=1, select bank1
  6716  1675  1303               	bcf	3,6	;RP1=0, select bank1
  6717  1676  00A3               	movwf	(___flge@ff1+3)^(0+128)
  6718  1677  1283               	bcf	3,5	;RP0=0, select bank0
  6719  1678  1303               	bcf	3,6	;RP1=0, select bank0
  6720  1679  086B               	movf	??___flge+2,w
  6721  167A  1683               	bsf	3,5	;RP0=1, select bank1
  6722  167B  1303               	bcf	3,6	;RP1=0, select bank1
  6723  167C  00A2               	movwf	(___flge@ff1+2)^(0+128)
  6724  167D  1283               	bcf	3,5	;RP0=0, select bank0
  6725  167E  1303               	bcf	3,6	;RP1=0, select bank0
  6726  167F  086A               	movf	??___flge+1,w
  6727  1680  1683               	bsf	3,5	;RP0=1, select bank1
  6728  1681  1303               	bcf	3,6	;RP1=0, select bank1
  6729  1682  00A1               	movwf	(___flge@ff1+1)^(0+128)
  6730  1683  1283               	bcf	3,5	;RP0=0, select bank0
  6731  1684  1303               	bcf	3,6	;RP1=0, select bank0
  6732  1685  0869               	movf	??___flge,w
  6733  1686  1683               	bsf	3,5	;RP0=1, select bank1
  6734  1687  1303               	bcf	3,6	;RP1=0, select bank1
  6735  1688  00A0               	movwf	___flge@ff1^(0+128)
  6736  1689                     l3725:
  6737  1689  1FA7               	btfss	(___flge@ff2+3)^(0+128),7
  6738  168A  2E8C               	goto	u5321
  6739  168B  2E8D               	goto	u5320
  6740  168C                     u5321:
  6741  168C  2ED5               	goto	l690
  6742  168D                     u5320:
  6743  168D                     l3727:
  6744  168D  3000               	movlw	0
  6745  168E  1283               	bcf	3,5	;RP0=0, select bank0
  6746  168F  1303               	bcf	3,6	;RP1=0, select bank0
  6747  1690  00E9               	movwf	??___flge
  6748  1691  3000               	movlw	0
  6749  1692  00EA               	movwf	??___flge+1
  6750  1693  3000               	movlw	0
  6751  1694  00EB               	movwf	??___flge+2
  6752  1695  3080               	movlw	128
  6753  1696  00EC               	movwf	??___flge+3
  6754  1697  1683               	bsf	3,5	;RP0=1, select bank1
  6755  1698  1303               	bcf	3,6	;RP1=0, select bank1
  6756  1699  0824               	movf	___flge@ff2^(0+128),w
  6757  169A  1283               	bcf	3,5	;RP0=0, select bank0
  6758  169B  1303               	bcf	3,6	;RP1=0, select bank0
  6759  169C  02E9               	subwf	??___flge,f
  6760  169D  1683               	bsf	3,5	;RP0=1, select bank1
  6761  169E  1303               	bcf	3,6	;RP1=0, select bank1
  6762  169F  0825               	movf	(___flge@ff2+1)^(0+128),w
  6763  16A0  1C03               	skipc
  6764  16A1  0F25               	incfsz	(___flge@ff2+1)^(0+128),w
  6765  16A2  2EA4               	goto	u5331
  6766  16A3  2EA7               	goto	u5332
  6767  16A4                     u5331:
  6768  16A4  1283               	bcf	3,5	;RP0=0, select bank0
  6769  16A5  1303               	bcf	3,6	;RP1=0, select bank0
  6770  16A6  02EA               	subwf	??___flge+1,f
  6771  16A7                     u5332:
  6772  16A7  1683               	bsf	3,5	;RP0=1, select bank1
  6773  16A8  1303               	bcf	3,6	;RP1=0, select bank1
  6774  16A9  0826               	movf	(___flge@ff2+2)^(0+128),w
  6775  16AA  1C03               	skipc
  6776  16AB  0F26               	incfsz	(___flge@ff2+2)^(0+128),w
  6777  16AC  2EAE               	goto	u5333
  6778  16AD  2EB1               	goto	u5334
  6779  16AE                     u5333:
  6780  16AE  1283               	bcf	3,5	;RP0=0, select bank0
  6781  16AF  1303               	bcf	3,6	;RP1=0, select bank0
  6782  16B0  02EB               	subwf	??___flge+2,f
  6783  16B1                     u5334:
  6784  16B1  1683               	bsf	3,5	;RP0=1, select bank1
  6785  16B2  1303               	bcf	3,6	;RP1=0, select bank1
  6786  16B3  0827               	movf	(___flge@ff2+3)^(0+128),w
  6787  16B4  1C03               	skipc
  6788  16B5  0F27               	incfsz	(___flge@ff2+3)^(0+128),w
  6789  16B6  2EB8               	goto	u5335
  6790  16B7  2EBB               	goto	u5336
  6791  16B8                     u5335:
  6792  16B8  1283               	bcf	3,5	;RP0=0, select bank0
  6793  16B9  1303               	bcf	3,6	;RP1=0, select bank0
  6794  16BA  02EC               	subwf	??___flge+3,f
  6795  16BB                     u5336:
  6796  16BB  1683               	bsf	3,5	;RP0=1, select bank1
  6797  16BC  1303               	bcf	3,6	;RP1=0, select bank1
  6798  16BD  1283               	bcf	3,5	;RP0=0, select bank0
  6799  16BE  1303               	bcf	3,6	;RP1=0, select bank0
  6800  16BF  086C               	movf	??___flge+3,w
  6801  16C0  1683               	bsf	3,5	;RP0=1, select bank1
  6802  16C1  1303               	bcf	3,6	;RP1=0, select bank1
  6803  16C2  00A7               	movwf	(___flge@ff2+3)^(0+128)
  6804  16C3  1283               	bcf	3,5	;RP0=0, select bank0
  6805  16C4  1303               	bcf	3,6	;RP1=0, select bank0
  6806  16C5  086B               	movf	??___flge+2,w
  6807  16C6  1683               	bsf	3,5	;RP0=1, select bank1
  6808  16C7  1303               	bcf	3,6	;RP1=0, select bank1
  6809  16C8  00A6               	movwf	(___flge@ff2+2)^(0+128)
  6810  16C9  1283               	bcf	3,5	;RP0=0, select bank0
  6811  16CA  1303               	bcf	3,6	;RP1=0, select bank0
  6812  16CB  086A               	movf	??___flge+1,w
  6813  16CC  1683               	bsf	3,5	;RP0=1, select bank1
  6814  16CD  1303               	bcf	3,6	;RP1=0, select bank1
  6815  16CE  00A5               	movwf	(___flge@ff2+1)^(0+128)
  6816  16CF  1283               	bcf	3,5	;RP0=0, select bank0
  6817  16D0  1303               	bcf	3,6	;RP1=0, select bank0
  6818  16D1  0869               	movf	??___flge,w
  6819  16D2  1683               	bsf	3,5	;RP0=1, select bank1
  6820  16D3  1303               	bcf	3,6	;RP1=0, select bank1
  6821  16D4  00A4               	movwf	___flge@ff2^(0+128)
  6822  16D5                     l690:
  6823  16D5  3080               	movlw	128
  6824  16D6  06A3               	xorwf	(___flge@ff1+3)^(0+128),f
  6825  16D7  3080               	movlw	128
  6826  16D8  06A7               	xorwf	(___flge@ff2+3)^(0+128),f
  6827  16D9  0827               	movf	(___flge@ff2+3)^(0+128),w
  6828  16DA  0223               	subwf	(___flge@ff1+3)^(0+128),w
  6829  16DB  1D03               	skipz
  6830  16DC  2EE7               	goto	u5345
  6831  16DD  0826               	movf	(___flge@ff2+2)^(0+128),w
  6832  16DE  0222               	subwf	(___flge@ff1+2)^(0+128),w
  6833  16DF  1D03               	skipz
  6834  16E0  2EE7               	goto	u5345
  6835  16E1  0825               	movf	(___flge@ff2+1)^(0+128),w
  6836  16E2  0221               	subwf	(___flge@ff1+1)^(0+128),w
  6837  16E3  1D03               	skipz
  6838  16E4  2EE7               	goto	u5345
  6839  16E5  0824               	movf	___flge@ff2^(0+128),w
  6840  16E6  0220               	subwf	___flge@ff1^(0+128),w
  6841  16E7                     u5345:
  6842  16E7  1803               	skipnc
  6843  16E8  2EEA               	goto	u5341
  6844  16E9  2EEB               	goto	u5340
  6845  16EA                     u5341:
  6846  16EA  2EED               	goto	l3731
  6847  16EB                     u5340:
  6848  16EB                     l3729:
  6849  16EB  1003               	clrc
  6850  16EC  2EEE               	goto	l691
  6851  16ED                     l3731:
  6852  16ED  1403               	setc
  6853  16EE                     l691:
  6854  16EE  0008               	return
  6855  16EF                     __end_of___flge:
  6856                           
  6857                           	psect	text20
  6858  1E50                     __ptext20:	
  6859 ;; *************** function _UART_TxDesiredTempDataPacket *****************
  6860 ;; Defined at:
  6861 ;;		line 628 in file "main.c"
  6862 ;; Parameters:    Size  Location     Type
  6863 ;;  dataPacket      1    wreg     PTR unsigned char 
  6864 ;;		 -> desiredTempPacketTx(6), 
  6865 ;; Auto vars:     Size  Location     Type
  6866 ;;  dataPacket      1    7[COMMON] PTR unsigned char 
  6867 ;;		 -> desiredTempPacketTx(6), 
  6868 ;; Return value:  Size  Location     Type
  6869 ;;                  1    wreg      void 
  6870 ;; Registers used:
  6871 ;;		wreg, fsr0l, fsr0h, status,2, status,0, pclath, cstack
  6872 ;; Tracked objects:
  6873 ;;		On entry : 0/0
  6874 ;;		On exit  : 0/0
  6875 ;;		Unchanged: 0/0
  6876 ;; Data sizes:     COMMON   BANK0   BANK1   BANK3   BANK2
  6877 ;;      Params:         0       0       0       0       0
  6878 ;;      Locals:         1       0       0       0       0
  6879 ;;      Temps:          0       2       0       0       0
  6880 ;;      Totals:         1       2       0       0       0
  6881 ;;Total ram usage:        3 bytes
  6882 ;; Hardware stack levels used: 1
  6883 ;; Hardware stack levels required when called: 2
  6884 ;; This function calls:
  6885 ;;		_UART_TxChar
  6886 ;;		___wmul
  6887 ;; This function is called by:
  6888 ;;		_HandleKeypadReading
  6889 ;; This function uses a non-reentrant model
  6890 ;;
  6891                           
  6892                           
  6893                           ;psect for function _UART_TxDesiredTempDataPacket
  6894  1E50                     _UART_TxDesiredTempDataPacket:
  6895                           
  6896                           ;incstack = 0
  6897                           ; Regs used in _UART_TxDesiredTempDataPacket: [wreg-fsr0h+status,2+status,0+pclath+cstac
      +                          k]
  6898                           ;UART_TxDesiredTempDataPacket@dataPacket stored from wreg
  6899  1E50  00F7               	movwf	UART_TxDesiredTempDataPacket@dataPacket
  6900  1E51                     l3959:
  6901                           
  6902                           ;main.c: 628: void UART_TxDesiredTempDataPacket(unsigned char dataPacket[6]);main.c: 629
      +                          : {;main.c: 630:     txAttempts = 0;
  6903  1E51  01FA               	clrf	_txAttempts
  6904                           
  6905                           ;main.c: 631:     retransmissionCounter = 0;
  6906  1E52  1683               	bsf	3,5	;RP0=1, select bank3
  6907  1E53  1703               	bsf	3,6	;RP1=1, select bank3
  6908  1E54  019B               	clrf	_retransmissionCounter^(0+384)
  6909  1E55  019C               	clrf	(_retransmissionCounter+1)^(0+384)
  6910                           
  6911                           ;main.c: 635:     while(txAttempts<1)
  6912  1E56  2EAE               	goto	l371
  6913  1E57                     l372:
  6914                           
  6915                           ;main.c: 636:     {;main.c: 637:         flagsSerial |= 0x04;
  6916  1E57  1683               	bsf	3,5	;RP0=1, select bank1
  6917  1E58  1303               	bcf	3,6	;RP1=0, select bank1
  6918  1E59  1563               	bsf	_flagsSerial^(0+128),2
  6919  1E5A                     l3961:	
  6920                           ;main.c: 639:         while (retransmissionCounter < (txAttempts*1*300));
  6921                           
  6922  1E5A  087A               	movf	_txAttempts,w
  6923  1E5B  1283               	bcf	3,5	;RP0=0, select bank0
  6924  1E5C  1303               	bcf	3,6	;RP1=0, select bank0
  6925  1E5D  00A2               	movwf	??_UART_TxDesiredTempDataPacket
  6926  1E5E  01A3               	clrf	??_UART_TxDesiredTempDataPacket+1
  6927  1E5F  0822               	movf	??_UART_TxDesiredTempDataPacket,w
  6928  1E60  00F3               	movwf	___wmul@multiplier
  6929  1E61  0823               	movf	??_UART_TxDesiredTempDataPacket+1,w
  6930  1E62  00F4               	movwf	___wmul@multiplier+1
  6931  1E63  302C               	movlw	44
  6932  1E64  00F5               	movwf	___wmul@multiplicand
  6933  1E65  3001               	movlw	1
  6934  1E66  00F6               	movwf	___wmul@multiplicand+1
  6935  1E67  160A  158A  22DC  160A  158A  	fcall	___wmul
  6936  1E6C  0874               	movf	?___wmul+1,w
  6937  1E6D  1683               	bsf	3,5	;RP0=1, select bank3
  6938  1E6E  1703               	bsf	3,6	;RP1=1, select bank3
  6939  1E6F  021C               	subwf	(_retransmissionCounter+1)^(0+384),w
  6940  1E70  1D03               	skipz
  6941  1E71  2E74               	goto	u5785
  6942  1E72  0873               	movf	?___wmul,w
  6943  1E73  021B               	subwf	_retransmissionCounter^(0+384),w
  6944  1E74                     u5785:
  6945  1E74  1C03               	skipc
  6946  1E75  2E77               	goto	u5781
  6947  1E76  2E78               	goto	u5780
  6948  1E77                     u5781:
  6949  1E77  2E5A               	goto	l3961
  6950  1E78                     u5780:
  6951  1E78                     l3963:
  6952                           
  6953                           ;main.c: 640:         retransmissionCounter = 0;
  6954  1E78  019B               	clrf	_retransmissionCounter^(0+384)
  6955  1E79  019C               	clrf	(_retransmissionCounter+1)^(0+384)
  6956  1E7A                     l3965:
  6957                           
  6958                           ;main.c: 641:         flagsSerial &= ~0x04;
  6959  1E7A  30FB               	movlw	251
  6960  1E7B  1283               	bcf	3,5	;RP0=0, select bank0
  6961  1E7C  1303               	bcf	3,6	;RP1=0, select bank0
  6962  1E7D  00A2               	movwf	??_UART_TxDesiredTempDataPacket
  6963  1E7E  0822               	movf	??_UART_TxDesiredTempDataPacket,w
  6964  1E7F  1683               	bsf	3,5	;RP0=1, select bank1
  6965  1E80  1303               	bcf	3,6	;RP1=0, select bank1
  6966  1E81  05E3               	andwf	_flagsSerial^(0+128),f
  6967  1E82                     l3967:
  6968                           
  6969                           ;main.c: 642:         txSuccess = 1;
  6970  1E82  01E8               	clrf	_txSuccess^(0+128)
  6971  1E83  0AE8               	incf	_txSuccess^(0+128),f
  6972  1E84                     l3969:
  6973                           
  6974                           ;main.c: 643:         for(i=0;i<6;i++)
  6975  1E84  01F8               	clrf	_i
  6976  1E85                     l3971:
  6977  1E85  3006               	movlw	6
  6978  1E86  0278               	subwf	_i,w
  6979  1E87  1C03               	skipc
  6980  1E88  2E8A               	goto	u5791
  6981  1E89  2E8B               	goto	u5790
  6982  1E8A                     u5791:
  6983  1E8A  2E8C               	goto	l3975
  6984  1E8B                     u5790:
  6985  1E8B  2EA0               	goto	l3981
  6986  1E8C                     l3975:
  6987                           
  6988                           ;main.c: 644:         {;main.c: 645:             UART_TxChar(dataPacket[i]);
  6989  1E8C  0878               	movf	_i,w
  6990  1E8D  0777               	addwf	UART_TxDesiredTempDataPacket@dataPacket,w
  6991  1E8E  1283               	bcf	3,5	;RP0=0, select bank0
  6992  1E8F  00A2               	movwf	??_UART_TxDesiredTempDataPacket
  6993  1E90  0822               	movf	??_UART_TxDesiredTempDataPacket,w
  6994  1E91  0084               	movwf	4
  6995  1E92  1783               	bsf	3,7	;select IRP bank2
  6996  1E93  0800               	movf	0,w
  6997  1E94  120A  118A  27CC  160A  158A  	fcall	_UART_TxChar
  6998  1E99                     l3977:
  6999                           
  7000                           ;main.c: 646:         }
  7001  1E99  3001               	movlw	1
  7002  1E9A  1283               	bcf	3,5	;RP0=0, select bank0
  7003  1E9B  1303               	bcf	3,6	;RP1=0, select bank0
  7004  1E9C  00A2               	movwf	??_UART_TxDesiredTempDataPacket
  7005  1E9D  0822               	movf	??_UART_TxDesiredTempDataPacket,w
  7006  1E9E  07F8               	addwf	_i,f
  7007  1E9F  2E85               	goto	l3971
  7008  1EA0                     l3981:
  7009                           
  7010                           ;main.c: 647:         if(txSuccess) break;
  7011  1EA0  1683               	bsf	3,5	;RP0=1, select bank1
  7012  1EA1  1303               	bcf	3,6	;RP1=0, select bank1
  7013  1EA2  0868               	movf	_txSuccess^(0+128),w
  7014  1EA3  1903               	btfsc	3,2
  7015  1EA4  2EA6               	goto	u5801
  7016  1EA5  2EA7               	goto	u5800
  7017  1EA6                     u5801:
  7018  1EA6  2EA8               	goto	l3985
  7019  1EA7                     u5800:
  7020  1EA7  2EB3               	goto	l380
  7021  1EA8                     l3985:
  7022                           
  7023                           ;main.c: 648:         txAttempts++;
  7024  1EA8  3001               	movlw	1
  7025  1EA9  1283               	bcf	3,5	;RP0=0, select bank0
  7026  1EAA  1303               	bcf	3,6	;RP1=0, select bank0
  7027  1EAB  00A2               	movwf	??_UART_TxDesiredTempDataPacket
  7028  1EAC  0822               	movf	??_UART_TxDesiredTempDataPacket,w
  7029  1EAD  07FA               	addwf	_txAttempts,f
  7030  1EAE                     l371:	
  7031                           ;main.c: 649:     }
  7032                           
  7033                           
  7034                           ;main.c: 635:     while(txAttempts<1)
  7035  1EAE  087A               	movf	_txAttempts,w
  7036  1EAF  1903               	btfsc	3,2
  7037  1EB0  2EB2               	goto	u5811
  7038  1EB1  2EB3               	goto	u5810
  7039  1EB2                     u5811:
  7040  1EB2  2E57               	goto	l372
  7041  1EB3                     u5810:
  7042  1EB3                     l380:
  7043  1EB3  0008               	return
  7044  1EB4                     __end_of_UART_TxDesiredTempDataPacket:
  7045                           
  7046                           	psect	text21
  7047  14F0                     __ptext21:	
  7048 ;; *************** function _PrepareDesiredTempDataPacket *****************
  7049 ;; Defined at:
  7050 ;;		line 706 in file "main.c"
  7051 ;; Parameters:    Size  Location     Type
  7052 ;;  temp            4   29[BANK1 ] float 
  7053 ;; Auto vars:     Size  Location     Type
  7054 ;;		None
  7055 ;; Return value:  Size  Location     Type
  7056 ;;                  1    wreg      void 
  7057 ;; Registers used:
  7058 ;;		wreg, status,2, status,0, btemp+1, pclath, cstack
  7059 ;; Tracked objects:
  7060 ;;		On entry : 0/0
  7061 ;;		On exit  : 0/0
  7062 ;;		Unchanged: 0/0
  7063 ;; Data sizes:     COMMON   BANK0   BANK1   BANK3   BANK2
  7064 ;;      Params:         0       0       4       0       0
  7065 ;;      Locals:         0       0       4       0       0
  7066 ;;      Temps:          0       0       4       0       0
  7067 ;;      Totals:         0       0      12       0       0
  7068 ;;Total ram usage:       12 bytes
  7069 ;; Hardware stack levels used: 1
  7070 ;; Hardware stack levels required when called: 3
  7071 ;; This function calls:
  7072 ;;		___fldiv
  7073 ;;		___flsub
  7074 ;;		___fltol
  7075 ;;		___xxtofl
  7076 ;; This function is called by:
  7077 ;;		_HandleKeypadReading
  7078 ;; This function uses a non-reentrant model
  7079 ;;
  7080                           
  7081                           
  7082                           ;psect for function _PrepareDesiredTempDataPacket
  7083  14F0                     _PrepareDesiredTempDataPacket:
  7084  14F0                     l3947:	
  7085                           ;incstack = 0
  7086                           ; Regs used in _PrepareDesiredTempDataPacket: [wreg+status,2+status,0+btemp+1+pclath+cst
      +                          ack]
  7087                           
  7088                           
  7089                           ;main.c: 706: void PrepareDesiredTempDataPacket(float temp);main.c: 707: {;main.c: 708: 
      +                              desiredTempPacketTx[0] = 0xFF;
  7090  14F0  30FF               	movlw	255
  7091  14F1  1683               	bsf	3,5	;RP0=1, select bank1
  7092  14F2  1303               	bcf	3,6	;RP1=0, select bank1
  7093  14F3  00C1               	movwf	??_PrepareDesiredTempDataPacket^(0+128)
  7094  14F4  0841               	movf	??_PrepareDesiredTempDataPacket^(0+128),w
  7095  14F5  1683               	bsf	3,5	;RP0=1, select bank3
  7096  14F6  1703               	bsf	3,6	;RP1=1, select bank3
  7097  14F7  00B3               	movwf	_desiredTempPacketTx^(0+384)
  7098  14F8                     l3949:
  7099                           
  7100                           ;main.c: 709:     desiredTempPacketTx[1] = 1;
  7101  14F8  01B4               	clrf	(_desiredTempPacketTx^(0+384)+1)
  7102  14F9  0AB4               	incf	(_desiredTempPacketTx^(0+384)+1),f
  7103                           
  7104                           ;main.c: 710:     desiredTempPacketTx[2] = 0x04;
  7105  14FA  3004               	movlw	4
  7106  14FB  1683               	bsf	3,5	;RP0=1, select bank1
  7107  14FC  1303               	bcf	3,6	;RP1=0, select bank1
  7108  14FD  00C1               	movwf	??_PrepareDesiredTempDataPacket^(0+128)
  7109  14FE  0841               	movf	??_PrepareDesiredTempDataPacket^(0+128),w
  7110  14FF  1683               	bsf	3,5	;RP0=1, select bank3
  7111  1500  1703               	bsf	3,6	;RP1=1, select bank3
  7112  1501  00B5               	movwf	(_desiredTempPacketTx^(0+384)+2)
  7113  1502                     l3951:
  7114                           
  7115                           ;main.c: 711:     desiredTempPacketTx[3] = (char)temp;
  7116  1502  1683               	bsf	3,5	;RP0=1, select bank1
  7117  1503  1303               	bcf	3,6	;RP1=0, select bank1
  7118  1504  0840               	movf	(PrepareDesiredTempDataPacket@temp+3)^(0+128),w
  7119  1505  1283               	bcf	3,5	;RP0=0, select bank0
  7120  1506  1303               	bcf	3,6	;RP1=0, select bank0
  7121  1507  00CD               	movwf	___fltol@f1+3
  7122  1508  1683               	bsf	3,5	;RP0=1, select bank1
  7123  1509  1303               	bcf	3,6	;RP1=0, select bank1
  7124  150A  083F               	movf	(PrepareDesiredTempDataPacket@temp+2)^(0+128),w
  7125  150B  1283               	bcf	3,5	;RP0=0, select bank0
  7126  150C  1303               	bcf	3,6	;RP1=0, select bank0
  7127  150D  00CC               	movwf	___fltol@f1+2
  7128  150E  1683               	bsf	3,5	;RP0=1, select bank1
  7129  150F  1303               	bcf	3,6	;RP1=0, select bank1
  7130  1510  083E               	movf	(PrepareDesiredTempDataPacket@temp+1)^(0+128),w
  7131  1511  1283               	bcf	3,5	;RP0=0, select bank0
  7132  1512  1303               	bcf	3,6	;RP1=0, select bank0
  7133  1513  00CB               	movwf	___fltol@f1+1
  7134  1514  1683               	bsf	3,5	;RP0=1, select bank1
  7135  1515  1303               	bcf	3,6	;RP1=0, select bank1
  7136  1516  083D               	movf	PrepareDesiredTempDataPacket@temp^(0+128),w
  7137  1517  1283               	bcf	3,5	;RP0=0, select bank0
  7138  1518  1303               	bcf	3,6	;RP1=0, select bank0
  7139  1519  00CA               	movwf	___fltol@f1
  7140  151A  160A  158A  2784  160A  118A  	fcall	___fltol
  7141  151F  1283               	bcf	3,5	;RP0=0, select bank0
  7142  1520  1303               	bcf	3,6	;RP1=0, select bank0
  7143  1521  084A               	movf	?___fltol,w
  7144  1522  1683               	bsf	3,5	;RP0=1, select bank1
  7145  1523  1303               	bcf	3,6	;RP1=0, select bank1
  7146  1524  00C1               	movwf	??_PrepareDesiredTempDataPacket^(0+128)
  7147  1525  0841               	movf	??_PrepareDesiredTempDataPacket^(0+128),w
  7148  1526  1683               	bsf	3,5	;RP0=1, select bank3
  7149  1527  1703               	bsf	3,6	;RP1=1, select bank3
  7150  1528  00B6               	movwf	(_desiredTempPacketTx^(0+384)+3)
  7151  1529                     l3953:
  7152                           
  7153                           ;main.c: 712:     desiredTempPacketTx[4] = (char)((temp-(char)temp)/0.1);
  7154  1529  1683               	bsf	3,5	;RP0=1, select bank1
  7155  152A  1303               	bcf	3,6	;RP1=0, select bank1
  7156  152B  0840               	movf	(PrepareDesiredTempDataPacket@temp+3)^(0+128),w
  7157  152C  00A7               	movwf	(___flsub@b+3)^(0+128)
  7158  152D  083F               	movf	(PrepareDesiredTempDataPacket@temp+2)^(0+128),w
  7159  152E  00A6               	movwf	(___flsub@b+2)^(0+128)
  7160  152F  083E               	movf	(PrepareDesiredTempDataPacket@temp+1)^(0+128),w
  7161  1530  00A5               	movwf	(___flsub@b+1)^(0+128)
  7162  1531  083D               	movf	PrepareDesiredTempDataPacket@temp^(0+128),w
  7163  1532  00A4               	movwf	___flsub@b^(0+128)
  7164  1533  0840               	movf	(PrepareDesiredTempDataPacket@temp+3)^(0+128),w
  7165  1534  1283               	bcf	3,5	;RP0=0, select bank0
  7166  1535  1303               	bcf	3,6	;RP1=0, select bank0
  7167  1536  00CD               	movwf	___fltol@f1+3
  7168  1537  1683               	bsf	3,5	;RP0=1, select bank1
  7169  1538  1303               	bcf	3,6	;RP1=0, select bank1
  7170  1539  083F               	movf	(PrepareDesiredTempDataPacket@temp+2)^(0+128),w
  7171  153A  1283               	bcf	3,5	;RP0=0, select bank0
  7172  153B  1303               	bcf	3,6	;RP1=0, select bank0
  7173  153C  00CC               	movwf	___fltol@f1+2
  7174  153D  1683               	bsf	3,5	;RP0=1, select bank1
  7175  153E  1303               	bcf	3,6	;RP1=0, select bank1
  7176  153F  083E               	movf	(PrepareDesiredTempDataPacket@temp+1)^(0+128),w
  7177  1540  1283               	bcf	3,5	;RP0=0, select bank0
  7178  1541  1303               	bcf	3,6	;RP1=0, select bank0
  7179  1542  00CB               	movwf	___fltol@f1+1
  7180  1543  1683               	bsf	3,5	;RP0=1, select bank1
  7181  1544  1303               	bcf	3,6	;RP1=0, select bank1
  7182  1545  083D               	movf	PrepareDesiredTempDataPacket@temp^(0+128),w
  7183  1546  1283               	bcf	3,5	;RP0=0, select bank0
  7184  1547  1303               	bcf	3,6	;RP1=0, select bank0
  7185  1548  00CA               	movwf	___fltol@f1
  7186  1549  160A  158A  2784  160A  118A  	fcall	___fltol
  7187  154E  1283               	bcf	3,5	;RP0=0, select bank0
  7188  154F  1303               	bcf	3,6	;RP1=0, select bank0
  7189  1550  084A               	movf	?___fltol,w
  7190  1551  1683               	bsf	3,5	;RP0=1, select bank1
  7191  1552  1303               	bcf	3,6	;RP1=0, select bank1
  7192  1553  00C1               	movwf	??_PrepareDesiredTempDataPacket^(0+128)
  7193  1554  01C2               	clrf	(??_PrepareDesiredTempDataPacket^(0+128)+1)
  7194  1555  01C3               	clrf	(??_PrepareDesiredTempDataPacket^(0+128)+2)
  7195  1556  01C4               	clrf	(??_PrepareDesiredTempDataPacket^(0+128)+3)
  7196  1557  0844               	movf	(??_PrepareDesiredTempDataPacket+3)^(0+128),w
  7197  1558  1283               	bcf	3,5	;RP0=0, select bank0
  7198  1559  1303               	bcf	3,6	;RP1=0, select bank0
  7199  155A  00A5               	movwf	___xxtofl@val+3
  7200  155B  1683               	bsf	3,5	;RP0=1, select bank1
  7201  155C  1303               	bcf	3,6	;RP1=0, select bank1
  7202  155D  0843               	movf	(??_PrepareDesiredTempDataPacket+2)^(0+128),w
  7203  155E  1283               	bcf	3,5	;RP0=0, select bank0
  7204  155F  1303               	bcf	3,6	;RP1=0, select bank0
  7205  1560  00A4               	movwf	___xxtofl@val+2
  7206  1561  1683               	bsf	3,5	;RP0=1, select bank1
  7207  1562  1303               	bcf	3,6	;RP1=0, select bank1
  7208  1563  0842               	movf	(??_PrepareDesiredTempDataPacket+1)^(0+128),w
  7209  1564  1283               	bcf	3,5	;RP0=0, select bank0
  7210  1565  1303               	bcf	3,6	;RP1=0, select bank0
  7211  1566  00A3               	movwf	___xxtofl@val+1
  7212  1567  1683               	bsf	3,5	;RP0=1, select bank1
  7213  1568  1303               	bcf	3,6	;RP1=0, select bank1
  7214  1569  0841               	movf	??_PrepareDesiredTempDataPacket^(0+128),w
  7215  156A  1283               	bcf	3,5	;RP0=0, select bank0
  7216  156B  1303               	bcf	3,6	;RP1=0, select bank0
  7217  156C  00A2               	movwf	___xxtofl@val
  7218  156D  3001               	movlw	1
  7219  156E  160A  118A  235B  160A  118A  	fcall	___xxtofl
  7220  1573  1283               	bcf	3,5	;RP0=0, select bank0
  7221  1574  1303               	bcf	3,6	;RP1=0, select bank0
  7222  1575  0825               	movf	?___xxtofl+3,w
  7223  1576  1683               	bsf	3,5	;RP0=1, select bank1
  7224  1577  1303               	bcf	3,6	;RP1=0, select bank1
  7225  1578  00A3               	movwf	(___flsub@a+3)^(0+128)
  7226  1579  1283               	bcf	3,5	;RP0=0, select bank0
  7227  157A  1303               	bcf	3,6	;RP1=0, select bank0
  7228  157B  0824               	movf	?___xxtofl+2,w
  7229  157C  1683               	bsf	3,5	;RP0=1, select bank1
  7230  157D  1303               	bcf	3,6	;RP1=0, select bank1
  7231  157E  00A2               	movwf	(___flsub@a+2)^(0+128)
  7232  157F  1283               	bcf	3,5	;RP0=0, select bank0
  7233  1580  1303               	bcf	3,6	;RP1=0, select bank0
  7234  1581  0823               	movf	?___xxtofl+1,w
  7235  1582  1683               	bsf	3,5	;RP0=1, select bank1
  7236  1583  1303               	bcf	3,6	;RP1=0, select bank1
  7237  1584  00A1               	movwf	(___flsub@a+1)^(0+128)
  7238  1585  1283               	bcf	3,5	;RP0=0, select bank0
  7239  1586  1303               	bcf	3,6	;RP1=0, select bank0
  7240  1587  0822               	movf	?___xxtofl,w
  7241  1588  1683               	bsf	3,5	;RP0=1, select bank1
  7242  1589  1303               	bcf	3,6	;RP1=0, select bank1
  7243  158A  00A0               	movwf	___flsub@a^(0+128)
  7244  158B  160A  158A  2487  160A  118A  	fcall	___flsub
  7245  1590  1683               	bsf	3,5	;RP0=1, select bank1
  7246  1591  1303               	bcf	3,6	;RP1=0, select bank1
  7247  1592  0823               	movf	(?___flsub+3)^(0+128),w
  7248  1593  00AF               	movwf	(___fldiv@b+3)^(0+128)
  7249  1594  0822               	movf	(?___flsub+2)^(0+128),w
  7250  1595  00AE               	movwf	(___fldiv@b+2)^(0+128)
  7251  1596  0821               	movf	(?___flsub+1)^(0+128),w
  7252  1597  00AD               	movwf	(___fldiv@b+1)^(0+128)
  7253  1598  0820               	movf	?___flsub^(0+128),w
  7254  1599  00AC               	movwf	___fldiv@b^(0+128)
  7255  159A  303D               	movlw	61
  7256  159B  00AB               	movwf	(___fldiv@a+3)^(0+128)
  7257  159C  30CC               	movlw	204
  7258  159D  00AA               	movwf	(___fldiv@a+2)^(0+128)
  7259  159E  30CC               	movlw	204
  7260  159F  00A9               	movwf	(___fldiv@a+1)^(0+128)
  7261  15A0  30CD               	movlw	205
  7262  15A1  00A8               	movwf	___fldiv@a^(0+128)
  7263  15A2  120A  158A  2090  160A  118A  	fcall	___fldiv
  7264  15A7  1683               	bsf	3,5	;RP0=1, select bank1
  7265  15A8  1303               	bcf	3,6	;RP1=0, select bank1
  7266  15A9  082B               	movf	(?___fldiv+3)^(0+128),w
  7267  15AA  00C8               	movwf	(_PrepareDesiredTempDataPacket$909+3)^(0+128)
  7268  15AB  082A               	movf	(?___fldiv+2)^(0+128),w
  7269  15AC  00C7               	movwf	(_PrepareDesiredTempDataPacket$909+2)^(0+128)
  7270  15AD  0829               	movf	(?___fldiv+1)^(0+128),w
  7271  15AE  00C6               	movwf	(_PrepareDesiredTempDataPacket$909+1)^(0+128)
  7272  15AF  0828               	movf	?___fldiv^(0+128),w
  7273  15B0  00C5               	movwf	_PrepareDesiredTempDataPacket$909^(0+128)
  7274  15B1                     l3955:
  7275                           
  7276                           ;main.c: 712:     desiredTempPacketTx[4] = (char)((temp-(char)temp)/0.1);
  7277  15B1  0848               	movf	(_PrepareDesiredTempDataPacket$909+3)^(0+128),w
  7278  15B2  1283               	bcf	3,5	;RP0=0, select bank0
  7279  15B3  1303               	bcf	3,6	;RP1=0, select bank0
  7280  15B4  00CD               	movwf	___fltol@f1+3
  7281  15B5  1683               	bsf	3,5	;RP0=1, select bank1
  7282  15B6  1303               	bcf	3,6	;RP1=0, select bank1
  7283  15B7  0847               	movf	(_PrepareDesiredTempDataPacket$909+2)^(0+128),w
  7284  15B8  1283               	bcf	3,5	;RP0=0, select bank0
  7285  15B9  1303               	bcf	3,6	;RP1=0, select bank0
  7286  15BA  00CC               	movwf	___fltol@f1+2
  7287  15BB  1683               	bsf	3,5	;RP0=1, select bank1
  7288  15BC  1303               	bcf	3,6	;RP1=0, select bank1
  7289  15BD  0846               	movf	(_PrepareDesiredTempDataPacket$909+1)^(0+128),w
  7290  15BE  1283               	bcf	3,5	;RP0=0, select bank0
  7291  15BF  1303               	bcf	3,6	;RP1=0, select bank0
  7292  15C0  00CB               	movwf	___fltol@f1+1
  7293  15C1  1683               	bsf	3,5	;RP0=1, select bank1
  7294  15C2  1303               	bcf	3,6	;RP1=0, select bank1
  7295  15C3  0845               	movf	_PrepareDesiredTempDataPacket$909^(0+128),w
  7296  15C4  1283               	bcf	3,5	;RP0=0, select bank0
  7297  15C5  1303               	bcf	3,6	;RP1=0, select bank0
  7298  15C6  00CA               	movwf	___fltol@f1
  7299  15C7  160A  158A  2784  160A  118A  	fcall	___fltol
  7300  15CC  1283               	bcf	3,5	;RP0=0, select bank0
  7301  15CD  1303               	bcf	3,6	;RP1=0, select bank0
  7302  15CE  084A               	movf	?___fltol,w
  7303  15CF  1683               	bsf	3,5	;RP0=1, select bank1
  7304  15D0  1303               	bcf	3,6	;RP1=0, select bank1
  7305  15D1  00C1               	movwf	??_PrepareDesiredTempDataPacket^(0+128)
  7306  15D2  0841               	movf	??_PrepareDesiredTempDataPacket^(0+128),w
  7307  15D3  1683               	bsf	3,5	;RP0=1, select bank3
  7308  15D4  1703               	bsf	3,6	;RP1=1, select bank3
  7309  15D5  00B7               	movwf	(_desiredTempPacketTx^(0+384)+4)
  7310  15D6                     l3957:
  7311                           
  7312                           ;main.c: 713:     desiredTempPacketTx[5] = 0xFE;
  7313  15D6  30FE               	movlw	254
  7314  15D7  1683               	bsf	3,5	;RP0=1, select bank1
  7315  15D8  1303               	bcf	3,6	;RP1=0, select bank1
  7316  15D9  00C1               	movwf	??_PrepareDesiredTempDataPacket^(0+128)
  7317  15DA  0841               	movf	??_PrepareDesiredTempDataPacket^(0+128),w
  7318  15DB  1683               	bsf	3,5	;RP0=1, select bank3
  7319  15DC  1703               	bsf	3,6	;RP1=1, select bank3
  7320  15DD  00B8               	movwf	(_desiredTempPacketTx^(0+384)+5)
  7321  15DE                     l403:
  7322  15DE  0008               	return
  7323  15DF                     __end_of_PrepareDesiredTempDataPacket:
  7324                           
  7325                           	psect	text22
  7326  135B                     __ptext22:	
  7327 ;; *************** function ___xxtofl *****************
  7328 ;; Defined at:
  7329 ;;		line 10 in file "C:\Program Files\Microchip\xc8\v2.32\pic\sources\c90\common\xxtofl.c"
  7330 ;; Parameters:    Size  Location     Type
  7331 ;;  sign            1    wreg     unsigned char 
  7332 ;;  val             4    2[BANK0 ] long 
  7333 ;; Auto vars:     Size  Location     Type
  7334 ;;  sign            1   10[BANK0 ] unsigned char 
  7335 ;;  arg             4   12[BANK0 ] unsigned long 
  7336 ;;  exp             1   11[BANK0 ] unsigned char 
  7337 ;; Return value:  Size  Location     Type
  7338 ;;                  4    2[BANK0 ] unsigned char 
  7339 ;; Registers used:
  7340 ;;		wreg, status,2, status,0
  7341 ;; Tracked objects:
  7342 ;;		On entry : 0/0
  7343 ;;		On exit  : 0/0
  7344 ;;		Unchanged: 0/0
  7345 ;; Data sizes:     COMMON   BANK0   BANK1   BANK3   BANK2
  7346 ;;      Params:         0       4       0       0       0
  7347 ;;      Locals:         0       6       0       0       0
  7348 ;;      Temps:          0       4       0       0       0
  7349 ;;      Totals:         0      14       0       0       0
  7350 ;;Total ram usage:       14 bytes
  7351 ;; Hardware stack levels used: 1
  7352 ;; Hardware stack levels required when called: 1
  7353 ;; This function calls:
  7354 ;;		Nothing
  7355 ;; This function is called by:
  7356 ;;		_HandleKeypadReading
  7357 ;;		_ReadTemperature
  7358 ;;		_UpdateLCDViewWithNumber
  7359 ;;		_PrepareTempHumDataPacket
  7360 ;;		_PrepareDesiredTempDataPacket
  7361 ;;		_HandleRequest
  7362 ;; This function uses a non-reentrant model
  7363 ;;
  7364                           
  7365                           
  7366                           ;psect for function ___xxtofl
  7367  135B                     ___xxtofl:
  7368                           
  7369                           ;incstack = 0
  7370                           ; Regs used in ___xxtofl: [wreg+status,2+status,0]
  7371                           ;___xxtofl@sign stored from wreg
  7372  135B  1283               	bcf	3,5	;RP0=0, select bank0
  7373  135C  1303               	bcf	3,6	;RP1=0, select bank0
  7374  135D  00AA               	movwf	___xxtofl@sign
  7375  135E                     l2949:
  7376  135E  082A               	movf	___xxtofl@sign,w
  7377  135F  1903               	btfsc	3,2
  7378  1360  2B62               	goto	u4001
  7379  1361  2B63               	goto	u4000
  7380  1362                     u4001:
  7381  1362  2B77               	goto	l2955
  7382  1363                     u4000:
  7383  1363                     l2951:
  7384  1363  1FA5               	btfss	___xxtofl@val+3,7
  7385  1364  2B66               	goto	u4011
  7386  1365  2B67               	goto	u4010
  7387  1366                     u4011:
  7388  1366  2B77               	goto	l2955
  7389  1367                     u4010:
  7390  1367                     l2953:
  7391  1367  0922               	comf	___xxtofl@val,w
  7392  1368  00AC               	movwf	___xxtofl@arg
  7393  1369  0923               	comf	___xxtofl@val+1,w
  7394  136A  00AD               	movwf	___xxtofl@arg+1
  7395  136B  0924               	comf	___xxtofl@val+2,w
  7396  136C  00AE               	movwf	___xxtofl@arg+2
  7397  136D  0925               	comf	___xxtofl@val+3,w
  7398  136E  00AF               	movwf	___xxtofl@arg+3
  7399  136F  0AAC               	incf	___xxtofl@arg,f
  7400  1370  1903               	skipnz
  7401  1371  0AAD               	incf	___xxtofl@arg+1,f
  7402  1372  1903               	skipnz
  7403  1373  0AAE               	incf	___xxtofl@arg+2,f
  7404  1374  1903               	skipnz
  7405  1375  0AAF               	incf	___xxtofl@arg+3,f
  7406  1376  2B7F               	goto	l946
  7407  1377                     l2955:
  7408  1377  0825               	movf	___xxtofl@val+3,w
  7409  1378  00AF               	movwf	___xxtofl@arg+3
  7410  1379  0824               	movf	___xxtofl@val+2,w
  7411  137A  00AE               	movwf	___xxtofl@arg+2
  7412  137B  0823               	movf	___xxtofl@val+1,w
  7413  137C  00AD               	movwf	___xxtofl@arg+1
  7414  137D  0822               	movf	___xxtofl@val,w
  7415  137E  00AC               	movwf	___xxtofl@arg
  7416  137F                     l946:
  7417  137F  0825               	movf	___xxtofl@val+3,w
  7418  1380  0424               	iorwf	___xxtofl@val+2,w
  7419  1381  0423               	iorwf	___xxtofl@val+1,w
  7420  1382  0422               	iorwf	___xxtofl@val,w
  7421  1383  1D03               	skipz
  7422  1384  2B86               	goto	u4021
  7423  1385  2B87               	goto	u4020
  7424  1386                     u4021:
  7425  1386  2B90               	goto	l2961
  7426  1387                     u4020:
  7427  1387                     l2957:
  7428  1387  3000               	movlw	0
  7429  1388  00A5               	movwf	?___xxtofl+3
  7430  1389  3000               	movlw	0
  7431  138A  00A4               	movwf	?___xxtofl+2
  7432  138B  3000               	movlw	0
  7433  138C  00A3               	movwf	?___xxtofl+1
  7434  138D  3000               	movlw	0
  7435  138E  00A2               	movwf	?___xxtofl
  7436  138F  2C16               	goto	l948
  7437  1390                     l2961:
  7438  1390  3096               	movlw	150
  7439  1391  00A6               	movwf	??___xxtofl
  7440  1392  0826               	movf	??___xxtofl,w
  7441  1393  00AB               	movwf	___xxtofl@exp
  7442  1394  2BA2               	goto	l2965
  7443  1395                     l2963:
  7444  1395  3001               	movlw	1
  7445  1396  00A6               	movwf	??___xxtofl
  7446  1397  0826               	movf	??___xxtofl,w
  7447  1398  07AB               	addwf	___xxtofl@exp,f
  7448  1399  3001               	movlw	1
  7449  139A                     u4035:
  7450  139A  1003               	clrc
  7451  139B  0CAF               	rrf	___xxtofl@arg+3,f
  7452  139C  0CAE               	rrf	___xxtofl@arg+2,f
  7453  139D  0CAD               	rrf	___xxtofl@arg+1,f
  7454  139E  0CAC               	rrf	___xxtofl@arg,f
  7455  139F  3EFF               	addlw	-1
  7456  13A0  1D03               	skipz
  7457  13A1  2B9A               	goto	u4035
  7458  13A2                     l2965:
  7459  13A2  30FE               	movlw	254
  7460  13A3  052F               	andwf	___xxtofl@arg+3,w
  7461  13A4  1D03               	btfss	3,2
  7462  13A5  2BA7               	goto	u4041
  7463  13A6  2BA8               	goto	u4040
  7464  13A7                     u4041:
  7465  13A7  2B95               	goto	l2963
  7466  13A8                     u4040:
  7467  13A8  2BC4               	goto	l952
  7468  13A9                     l2967:
  7469  13A9  3001               	movlw	1
  7470  13AA  00A6               	movwf	??___xxtofl
  7471  13AB  0826               	movf	??___xxtofl,w
  7472  13AC  07AB               	addwf	___xxtofl@exp,f
  7473  13AD                     l2969:
  7474  13AD  3001               	movlw	1
  7475  13AE  07AC               	addwf	___xxtofl@arg,f
  7476  13AF  3000               	movlw	0
  7477  13B0  1803               	skipnc
  7478  13B1  3001               	movlw	1
  7479  13B2  07AD               	addwf	___xxtofl@arg+1,f
  7480  13B3  3000               	movlw	0
  7481  13B4  1803               	skipnc
  7482  13B5  3001               	movlw	1
  7483  13B6  07AE               	addwf	___xxtofl@arg+2,f
  7484  13B7  3000               	movlw	0
  7485  13B8  1803               	skipnc
  7486  13B9  3001               	movlw	1
  7487  13BA  07AF               	addwf	___xxtofl@arg+3,f
  7488  13BB                     l2971:
  7489  13BB  3001               	movlw	1
  7490  13BC                     u4055:
  7491  13BC  1003               	clrc
  7492  13BD  0CAF               	rrf	___xxtofl@arg+3,f
  7493  13BE  0CAE               	rrf	___xxtofl@arg+2,f
  7494  13BF  0CAD               	rrf	___xxtofl@arg+1,f
  7495  13C0  0CAC               	rrf	___xxtofl@arg,f
  7496  13C1  3EFF               	addlw	-1
  7497  13C2  1D03               	skipz
  7498  13C3  2BBC               	goto	u4055
  7499  13C4                     l952:
  7500  13C4  30FF               	movlw	255
  7501  13C5  052F               	andwf	___xxtofl@arg+3,w
  7502  13C6  1D03               	btfss	3,2
  7503  13C7  2BC9               	goto	u4061
  7504  13C8  2BCA               	goto	u4060
  7505  13C9                     u4061:
  7506  13C9  2BA9               	goto	l2967
  7507  13CA                     u4060:
  7508  13CA  2BD6               	goto	l2975
  7509  13CB                     l2973:
  7510  13CB  3001               	movlw	1
  7511  13CC  02AB               	subwf	___xxtofl@exp,f
  7512  13CD  3001               	movlw	1
  7513  13CE  00A6               	movwf	??___xxtofl
  7514  13CF                     u4075:
  7515  13CF  1003               	clrc
  7516  13D0  0DAC               	rlf	___xxtofl@arg,f
  7517  13D1  0DAD               	rlf	___xxtofl@arg+1,f
  7518  13D2  0DAE               	rlf	___xxtofl@arg+2,f
  7519  13D3  0DAF               	rlf	___xxtofl@arg+3,f
  7520  13D4  0BA6               	decfsz	??___xxtofl,f
  7521  13D5  2BCF               	goto	u4075
  7522  13D6                     l2975:
  7523  13D6  1BAE               	btfsc	___xxtofl@arg+2,7
  7524  13D7  2BD9               	goto	u4081
  7525  13D8  2BDA               	goto	u4080
  7526  13D9                     u4081:
  7527  13D9  2BE0               	goto	l959
  7528  13DA                     u4080:
  7529  13DA                     l2977:
  7530  13DA  3002               	movlw	2
  7531  13DB  022B               	subwf	___xxtofl@exp,w
  7532  13DC  1803               	skipnc
  7533  13DD  2BDF               	goto	u4091
  7534  13DE  2BE0               	goto	u4090
  7535  13DF                     u4091:
  7536  13DF  2BCB               	goto	l2973
  7537  13E0                     u4090:
  7538  13E0                     l959:
  7539  13E0  182B               	btfsc	___xxtofl@exp,0
  7540  13E1  2BE3               	goto	u4101
  7541  13E2  2BE4               	goto	u4100
  7542  13E3                     u4101:
  7543  13E3  2BEC               	goto	l960
  7544  13E4                     u4100:
  7545  13E4                     l2979:
  7546  13E4  30FF               	movlw	255
  7547  13E5  05AC               	andwf	___xxtofl@arg,f
  7548  13E6  30FF               	movlw	255
  7549  13E7  05AD               	andwf	___xxtofl@arg+1,f
  7550  13E8  307F               	movlw	127
  7551  13E9  05AE               	andwf	___xxtofl@arg+2,f
  7552  13EA  30FF               	movlw	255
  7553  13EB  05AF               	andwf	___xxtofl@arg+3,f
  7554  13EC                     l960:
  7555  13EC  1003               	clrc
  7556  13ED  0CAB               	rrf	___xxtofl@exp,f
  7557  13EE                     l2981:
  7558  13EE  082B               	movf	___xxtofl@exp,w
  7559  13EF  00A6               	movwf	??___xxtofl
  7560  13F0  01A7               	clrf	??___xxtofl+1
  7561  13F1  01A8               	clrf	??___xxtofl+2
  7562  13F2  01A9               	clrf	??___xxtofl+3
  7563  13F3  3018               	movlw	24
  7564  13F4                     u4115:
  7565  13F4  1003               	clrc
  7566  13F5  0DA6               	rlf	??___xxtofl,f
  7567  13F6  0DA7               	rlf	??___xxtofl+1,f
  7568  13F7  0DA8               	rlf	??___xxtofl+2,f
  7569  13F8  0DA9               	rlf	??___xxtofl+3,f
  7570  13F9                     u4110:
  7571  13F9  3EFF               	addlw	-1
  7572  13FA  1D03               	skipz
  7573  13FB  2BF4               	goto	u4115
  7574  13FC  0826               	movf	??___xxtofl,w
  7575  13FD  04AC               	iorwf	___xxtofl@arg,f
  7576  13FE  0827               	movf	??___xxtofl+1,w
  7577  13FF  04AD               	iorwf	___xxtofl@arg+1,f
  7578  1400  0828               	movf	??___xxtofl+2,w
  7579  1401  04AE               	iorwf	___xxtofl@arg+2,f
  7580  1402  0829               	movf	??___xxtofl+3,w
  7581  1403  04AF               	iorwf	___xxtofl@arg+3,f
  7582  1404                     l2983:
  7583  1404  082A               	movf	___xxtofl@sign,w
  7584  1405  1903               	btfsc	3,2
  7585  1406  2C08               	goto	u4121
  7586  1407  2C09               	goto	u4120
  7587  1408                     u4121:
  7588  1408  2C0E               	goto	l2989
  7589  1409                     u4120:
  7590  1409                     l2985:
  7591  1409  1FA5               	btfss	___xxtofl@val+3,7
  7592  140A  2C0C               	goto	u4131
  7593  140B  2C0D               	goto	u4130
  7594  140C                     u4131:
  7595  140C  2C0E               	goto	l2989
  7596  140D                     u4130:
  7597  140D                     l2987:
  7598  140D  17AF               	bsf	___xxtofl@arg+3,7
  7599  140E                     l2989:
  7600  140E  082F               	movf	___xxtofl@arg+3,w
  7601  140F  00A5               	movwf	?___xxtofl+3
  7602  1410  082E               	movf	___xxtofl@arg+2,w
  7603  1411  00A4               	movwf	?___xxtofl+2
  7604  1412  082D               	movf	___xxtofl@arg+1,w
  7605  1413  00A3               	movwf	?___xxtofl+1
  7606  1414  082C               	movf	___xxtofl@arg,w
  7607  1415  00A2               	movwf	?___xxtofl
  7608  1416                     l948:
  7609  1416  0008               	return
  7610  1417                     __end_of___xxtofl:
  7611                           
  7612                           	psect	text23
  7613  1F84                     __ptext23:	
  7614 ;; *************** function ___fltol *****************
  7615 ;; Defined at:
  7616 ;;		line 43 in file "C:\Program Files\Microchip\xc8\v2.32\pic\sources\c90\common\fltol.c"
  7617 ;; Parameters:    Size  Location     Type
  7618 ;;  f1              4   42[BANK0 ] unsigned char 
  7619 ;; Auto vars:     Size  Location     Type
  7620 ;;  exp1            1   52[BANK0 ] unsigned char 
  7621 ;;  sign1           1   51[BANK0 ] unsigned char 
  7622 ;; Return value:  Size  Location     Type
  7623 ;;                  4   42[BANK0 ] long 
  7624 ;; Registers used:
  7625 ;;		wreg, status,2, status,0
  7626 ;; Tracked objects:
  7627 ;;		On entry : 0/0
  7628 ;;		On exit  : 0/0
  7629 ;;		Unchanged: 0/0
  7630 ;; Data sizes:     COMMON   BANK0   BANK1   BANK3   BANK2
  7631 ;;      Params:         0       4       0       0       0
  7632 ;;      Locals:         0       2       0       0       0
  7633 ;;      Temps:          0       5       0       0       0
  7634 ;;      Totals:         0      11       0       0       0
  7635 ;;Total ram usage:       11 bytes
  7636 ;; Hardware stack levels used: 1
  7637 ;; Hardware stack levels required when called: 1
  7638 ;; This function calls:
  7639 ;;		Nothing
  7640 ;; This function is called by:
  7641 ;;		_UpdateLCDViewWithNumber
  7642 ;;		_PrepareTempHumDataPacket
  7643 ;;		_PrepareDesiredTempDataPacket
  7644 ;; This function uses a non-reentrant model
  7645 ;;
  7646                           
  7647                           
  7648                           ;psect for function ___fltol
  7649  1F84                     ___fltol:
  7650  1F84                     l3735:	
  7651                           ;incstack = 0
  7652                           ; Regs used in ___fltol: [wreg+status,2+status,0]
  7653                           
  7654  1F84  1003               	clrc
  7655  1F85  1283               	bcf	3,5	;RP0=0, select bank0
  7656  1F86  1303               	bcf	3,6	;RP1=0, select bank0
  7657  1F87  0D4C               	rlf	___fltol@f1+2,w
  7658  1F88  0D4D               	rlf	___fltol@f1+3,w
  7659  1F89  00CE               	movwf	??___fltol
  7660  1F8A  084E               	movf	??___fltol,w
  7661  1F8B  00D4               	movwf	___fltol@exp1
  7662  1F8C  0854               	movf	___fltol@exp1,w
  7663  1F8D  1D03               	btfss	3,2
  7664  1F8E  2F90               	goto	u5351
  7665  1F8F  2F91               	goto	u5350
  7666  1F90                     u5351:
  7667  1F90  2F9A               	goto	l3741
  7668  1F91                     u5350:
  7669  1F91                     l3737:
  7670  1F91  3000               	movlw	0
  7671  1F92  00CD               	movwf	?___fltol+3
  7672  1F93  3000               	movlw	0
  7673  1F94  00CC               	movwf	?___fltol+2
  7674  1F95  3000               	movlw	0
  7675  1F96  00CB               	movwf	?___fltol+1
  7676  1F97  3000               	movlw	0
  7677  1F98  00CA               	movwf	?___fltol
  7678  1F99  2FFF               	goto	l699
  7679  1F9A                     l3741:
  7680  1F9A  084A               	movf	___fltol@f1,w
  7681  1F9B  00CE               	movwf	??___fltol
  7682  1F9C  084B               	movf	___fltol@f1+1,w
  7683  1F9D  00CF               	movwf	??___fltol+1
  7684  1F9E  084C               	movf	___fltol@f1+2,w
  7685  1F9F  00D0               	movwf	??___fltol+2
  7686  1FA0  084D               	movf	___fltol@f1+3,w
  7687  1FA1  00D1               	movwf	??___fltol+3
  7688  1FA2  301F               	movlw	31
  7689  1FA3                     u5365:
  7690  1FA3  1003               	clrc
  7691  1FA4  0CD1               	rrf	??___fltol+3,f
  7692  1FA5  0CD0               	rrf	??___fltol+2,f
  7693  1FA6  0CCF               	rrf	??___fltol+1,f
  7694  1FA7  0CCE               	rrf	??___fltol,f
  7695  1FA8                     u5360:
  7696  1FA8  3EFF               	addlw	-1
  7697  1FA9  1D03               	skipz
  7698  1FAA  2FA3               	goto	u5365
  7699  1FAB  084E               	movf	??___fltol,w
  7700  1FAC  00D2               	movwf	??___fltol+4
  7701  1FAD  0852               	movf	??___fltol+4,w
  7702  1FAE  00D3               	movwf	___fltol@sign1
  7703  1FAF                     l3743:
  7704  1FAF  17CC               	bsf	___fltol@f1+2,7
  7705  1FB0                     l3745:
  7706  1FB0  30FF               	movlw	255
  7707  1FB1  05CA               	andwf	___fltol@f1,f
  7708  1FB2  30FF               	movlw	255
  7709  1FB3  05CB               	andwf	___fltol@f1+1,f
  7710  1FB4  30FF               	movlw	255
  7711  1FB5  05CC               	andwf	___fltol@f1+2,f
  7712  1FB6  3000               	movlw	0
  7713  1FB7  05CD               	andwf	___fltol@f1+3,f
  7714  1FB8                     l3747:
  7715  1FB8  3096               	movlw	150
  7716  1FB9  02D4               	subwf	___fltol@exp1,f
  7717  1FBA                     l3749:
  7718  1FBA  1FD4               	btfss	___fltol@exp1,7
  7719  1FBB  2FBD               	goto	u5371
  7720  1FBC  2FBE               	goto	u5370
  7721  1FBD                     u5371:
  7722  1FBD  2FD8               	goto	l3759
  7723  1FBE                     u5370:
  7724  1FBE                     l3751:
  7725  1FBE  0854               	movf	___fltol@exp1,w
  7726  1FBF  3A80               	xorlw	128
  7727  1FC0  3E97               	addlw	151
  7728  1FC1  1803               	skipnc
  7729  1FC2  2FC4               	goto	u5381
  7730  1FC3  2FC5               	goto	u5380
  7731  1FC4                     u5381:
  7732  1FC4  2FC6               	goto	l3757
  7733  1FC5                     u5380:
  7734  1FC5  2F91               	goto	l3737
  7735  1FC6                     l3757:
  7736  1FC6  3001               	movlw	1
  7737  1FC7                     u5395:
  7738  1FC7  1003               	clrc
  7739  1FC8  0CCD               	rrf	___fltol@f1+3,f
  7740  1FC9  0CCC               	rrf	___fltol@f1+2,f
  7741  1FCA  0CCB               	rrf	___fltol@f1+1,f
  7742  1FCB  0CCA               	rrf	___fltol@f1,f
  7743  1FCC  3EFF               	addlw	-1
  7744  1FCD  1D03               	skipz
  7745  1FCE  2FC7               	goto	u5395
  7746  1FCF  3001               	movlw	1
  7747  1FD0  00CE               	movwf	??___fltol
  7748  1FD1  084E               	movf	??___fltol,w
  7749  1FD2  07D4               	addwf	___fltol@exp1,f
  7750  1FD3  1D03               	btfss	3,2
  7751  1FD4  2FD6               	goto	u5401
  7752  1FD5  2FD7               	goto	u5400
  7753  1FD6                     u5401:
  7754  1FD6  2FC6               	goto	l3757
  7755  1FD7                     u5400:
  7756  1FD7  2FEF               	goto	l3767
  7757  1FD8                     l3759:
  7758  1FD8  3020               	movlw	32
  7759  1FD9  0254               	subwf	___fltol@exp1,w
  7760  1FDA  1C03               	skipc
  7761  1FDB  2FDD               	goto	u5411
  7762  1FDC  2FDE               	goto	u5410
  7763  1FDD                     u5411:
  7764  1FDD  2FEA               	goto	l706
  7765  1FDE                     u5410:
  7766  1FDE  2F91               	goto	l3737
  7767  1FDF                     l3765:
  7768  1FDF  3001               	movlw	1
  7769  1FE0  00CE               	movwf	??___fltol
  7770  1FE1                     u5425:
  7771  1FE1  1003               	clrc
  7772  1FE2  0DCA               	rlf	___fltol@f1,f
  7773  1FE3  0DCB               	rlf	___fltol@f1+1,f
  7774  1FE4  0DCC               	rlf	___fltol@f1+2,f
  7775  1FE5  0DCD               	rlf	___fltol@f1+3,f
  7776  1FE6  0BCE               	decfsz	??___fltol,f
  7777  1FE7  2FE1               	goto	u5425
  7778  1FE8  3001               	movlw	1
  7779  1FE9  02D4               	subwf	___fltol@exp1,f
  7780  1FEA                     l706:
  7781  1FEA  0854               	movf	___fltol@exp1,w
  7782  1FEB  1D03               	btfss	3,2
  7783  1FEC  2FEE               	goto	u5431
  7784  1FED  2FEF               	goto	u5430
  7785  1FEE                     u5431:
  7786  1FEE  2FDF               	goto	l3765
  7787  1FEF                     u5430:
  7788  1FEF                     l3767:
  7789  1FEF  0853               	movf	___fltol@sign1,w
  7790  1FF0  1903               	btfsc	3,2
  7791  1FF1  2FF3               	goto	u5441
  7792  1FF2  2FF4               	goto	u5440
  7793  1FF3                     u5441:
  7794  1FF3  2FFF               	goto	l709
  7795  1FF4                     u5440:
  7796  1FF4                     l3769:
  7797  1FF4  09CA               	comf	___fltol@f1,f
  7798  1FF5  09CB               	comf	___fltol@f1+1,f
  7799  1FF6  09CC               	comf	___fltol@f1+2,f
  7800  1FF7  09CD               	comf	___fltol@f1+3,f
  7801  1FF8  0ACA               	incf	___fltol@f1,f
  7802  1FF9  1903               	skipnz
  7803  1FFA  0ACB               	incf	___fltol@f1+1,f
  7804  1FFB  1903               	skipnz
  7805  1FFC  0ACC               	incf	___fltol@f1+2,f
  7806  1FFD  1903               	skipnz
  7807  1FFE  0ACD               	incf	___fltol@f1+3,f
  7808  1FFF                     l709:
  7809  1FFF                     l699:
  7810  1FFF  0008               	return
  7811  2000                     __end_of___fltol:
  7812                           
  7813                           	psect	text24
  7814  1C87                     __ptext24:	
  7815 ;; *************** function ___flsub *****************
  7816 ;; Defined at:
  7817 ;;		line 242 in file "C:\Program Files\Microchip\xc8\v2.32\pic\sources\c90\common\sprcadd.c"
  7818 ;; Parameters:    Size  Location     Type
  7819 ;;  a               4    0[BANK1 ] long 
  7820 ;;  b               4    4[BANK1 ] long 
  7821 ;; Auto vars:     Size  Location     Type
  7822 ;;		None
  7823 ;; Return value:  Size  Location     Type
  7824 ;;                  4    0[BANK1 ] long 
  7825 ;; Registers used:
  7826 ;;		wreg, status,2, status,0, btemp+1, pclath, cstack
  7827 ;; Tracked objects:
  7828 ;;		On entry : 0/0
  7829 ;;		On exit  : 0/0
  7830 ;;		Unchanged: 0/0
  7831 ;; Data sizes:     COMMON   BANK0   BANK1   BANK3   BANK2
  7832 ;;      Params:         0       0       8       0       0
  7833 ;;      Locals:         0       0       0       0       0
  7834 ;;      Temps:          0       0       0       0       0
  7835 ;;      Totals:         0       0       8       0       0
  7836 ;;Total ram usage:        8 bytes
  7837 ;; Hardware stack levels used: 1
  7838 ;; Hardware stack levels required when called: 2
  7839 ;; This function calls:
  7840 ;;		___fladd
  7841 ;; This function is called by:
  7842 ;;		_HandleKeypadReading
  7843 ;;		_ManageTemperature
  7844 ;;		_UpdateLCDViewWithNumber
  7845 ;;		_PrepareTempHumDataPacket
  7846 ;;		_PrepareDesiredTempDataPacket
  7847 ;; This function uses a non-reentrant model
  7848 ;;
  7849                           
  7850                           
  7851                           ;psect for function ___flsub
  7852  1C87                     ___flsub:
  7853  1C87                     l3771:	
  7854                           ;incstack = 0
  7855                           ; Regs used in ___flsub: [wreg+status,2+status,0+btemp+1+pclath+cstack]
  7856                           
  7857  1C87  3080               	movlw	128
  7858  1C88  1683               	bsf	3,5	;RP0=1, select bank1
  7859  1C89  1303               	bcf	3,6	;RP1=0, select bank1
  7860  1C8A  06A3               	xorwf	(___flsub@a+3)^(0+128),f
  7861  1C8B                     l3773:
  7862  1C8B  0827               	movf	(___flsub@b+3)^(0+128),w
  7863  1C8C  1283               	bcf	3,5	;RP0=0, select bank0
  7864  1C8D  1303               	bcf	3,6	;RP1=0, select bank0
  7865  1C8E  00D8               	movwf	___fladd@b+3
  7866  1C8F  1683               	bsf	3,5	;RP0=1, select bank1
  7867  1C90  1303               	bcf	3,6	;RP1=0, select bank1
  7868  1C91  0826               	movf	(___flsub@b+2)^(0+128),w
  7869  1C92  1283               	bcf	3,5	;RP0=0, select bank0
  7870  1C93  1303               	bcf	3,6	;RP1=0, select bank0
  7871  1C94  00D7               	movwf	___fladd@b+2
  7872  1C95  1683               	bsf	3,5	;RP0=1, select bank1
  7873  1C96  1303               	bcf	3,6	;RP1=0, select bank1
  7874  1C97  0825               	movf	(___flsub@b+1)^(0+128),w
  7875  1C98  1283               	bcf	3,5	;RP0=0, select bank0
  7876  1C99  1303               	bcf	3,6	;RP1=0, select bank0
  7877  1C9A  00D6               	movwf	___fladd@b+1
  7878  1C9B  1683               	bsf	3,5	;RP0=1, select bank1
  7879  1C9C  1303               	bcf	3,6	;RP1=0, select bank1
  7880  1C9D  0824               	movf	___flsub@b^(0+128),w
  7881  1C9E  1283               	bcf	3,5	;RP0=0, select bank0
  7882  1C9F  1303               	bcf	3,6	;RP1=0, select bank0
  7883  1CA0  00D5               	movwf	___fladd@b
  7884  1CA1  1683               	bsf	3,5	;RP0=1, select bank1
  7885  1CA2  1303               	bcf	3,6	;RP1=0, select bank1
  7886  1CA3  0823               	movf	(___flsub@a+3)^(0+128),w
  7887  1CA4  1283               	bcf	3,5	;RP0=0, select bank0
  7888  1CA5  1303               	bcf	3,6	;RP1=0, select bank0
  7889  1CA6  00DC               	movwf	___fladd@a+3
  7890  1CA7  1683               	bsf	3,5	;RP0=1, select bank1
  7891  1CA8  1303               	bcf	3,6	;RP1=0, select bank1
  7892  1CA9  0822               	movf	(___flsub@a+2)^(0+128),w
  7893  1CAA  1283               	bcf	3,5	;RP0=0, select bank0
  7894  1CAB  1303               	bcf	3,6	;RP1=0, select bank0
  7895  1CAC  00DB               	movwf	___fladd@a+2
  7896  1CAD  1683               	bsf	3,5	;RP0=1, select bank1
  7897  1CAE  1303               	bcf	3,6	;RP1=0, select bank1
  7898  1CAF  0821               	movf	(___flsub@a+1)^(0+128),w
  7899  1CB0  1283               	bcf	3,5	;RP0=0, select bank0
  7900  1CB1  1303               	bcf	3,6	;RP1=0, select bank0
  7901  1CB2  00DA               	movwf	___fladd@a+1
  7902  1CB3  1683               	bsf	3,5	;RP0=1, select bank1
  7903  1CB4  1303               	bcf	3,6	;RP1=0, select bank1
  7904  1CB5  0820               	movf	___flsub@a^(0+128),w
  7905  1CB6  1283               	bcf	3,5	;RP0=0, select bank0
  7906  1CB7  1303               	bcf	3,6	;RP1=0, select bank0
  7907  1CB8  00D9               	movwf	___fladd@a
  7908  1CB9  120A  158A  2578  160A  158A  	fcall	___fladd
  7909  1CBE  1283               	bcf	3,5	;RP0=0, select bank0
  7910  1CBF  1303               	bcf	3,6	;RP1=0, select bank0
  7911  1CC0  0858               	movf	?___fladd+3,w
  7912  1CC1  1683               	bsf	3,5	;RP0=1, select bank1
  7913  1CC2  1303               	bcf	3,6	;RP1=0, select bank1
  7914  1CC3  00A3               	movwf	(?___flsub+3)^(0+128)
  7915  1CC4  1283               	bcf	3,5	;RP0=0, select bank0
  7916  1CC5  1303               	bcf	3,6	;RP1=0, select bank0
  7917  1CC6  0857               	movf	?___fladd+2,w
  7918  1CC7  1683               	bsf	3,5	;RP0=1, select bank1
  7919  1CC8  1303               	bcf	3,6	;RP1=0, select bank1
  7920  1CC9  00A2               	movwf	(?___flsub+2)^(0+128)
  7921  1CCA  1283               	bcf	3,5	;RP0=0, select bank0
  7922  1CCB  1303               	bcf	3,6	;RP1=0, select bank0
  7923  1CCC  0856               	movf	?___fladd+1,w
  7924  1CCD  1683               	bsf	3,5	;RP0=1, select bank1
  7925  1CCE  1303               	bcf	3,6	;RP1=0, select bank1
  7926  1CCF  00A1               	movwf	(?___flsub+1)^(0+128)
  7927  1CD0  1283               	bcf	3,5	;RP0=0, select bank0
  7928  1CD1  1303               	bcf	3,6	;RP1=0, select bank0
  7929  1CD2  0855               	movf	?___fladd,w
  7930  1CD3  1683               	bsf	3,5	;RP0=1, select bank1
  7931  1CD4  1303               	bcf	3,6	;RP1=0, select bank1
  7932  1CD5  00A0               	movwf	?___flsub^(0+128)
  7933  1CD6                     l852:
  7934  1CD6  0008               	return
  7935  1CD7                     __end_of___flsub:
  7936                           
  7937                           	psect	text25
  7938  0D78                     __ptext25:	
  7939 ;; *************** function ___fladd *****************
  7940 ;; Defined at:
  7941 ;;		line 10 in file "C:\Program Files\Microchip\xc8\v2.32\pic\sources\c90\common\sprcadd.c"
  7942 ;; Parameters:    Size  Location     Type
  7943 ;;  b               4   53[BANK0 ] long 
  7944 ;;  a               4   57[BANK0 ] long 
  7945 ;; Auto vars:     Size  Location     Type
  7946 ;;  grs             1   72[BANK0 ] unsigned char 
  7947 ;;  bexp            1   71[BANK0 ] unsigned char 
  7948 ;;  aexp            1   70[BANK0 ] unsigned char 
  7949 ;;  signs           1   69[BANK0 ] unsigned char 
  7950 ;; Return value:  Size  Location     Type
  7951 ;;                  4   53[BANK0 ] unsigned char 
  7952 ;; Registers used:
  7953 ;;		wreg, status,2, status,0, btemp+1
  7954 ;; Tracked objects:
  7955 ;;		On entry : 0/0
  7956 ;;		On exit  : 0/0
  7957 ;;		Unchanged: 0/0
  7958 ;; Data sizes:     COMMON   BANK0   BANK1   BANK3   BANK2
  7959 ;;      Params:         0       8       0       0       0
  7960 ;;      Locals:         0       4       0       0       0
  7961 ;;      Temps:          0       8       0       0       0
  7962 ;;      Totals:         0      20       0       0       0
  7963 ;;Total ram usage:       20 bytes
  7964 ;; Hardware stack levels used: 1
  7965 ;; Hardware stack levels required when called: 1
  7966 ;; This function calls:
  7967 ;;		Nothing
  7968 ;; This function is called by:
  7969 ;;		_HandleKeypadReading
  7970 ;;		_ManageTemperature
  7971 ;;		_ReadHumidity
  7972 ;;		_PrepareTempHumDataPacket
  7973 ;;		_HandleRequest
  7974 ;;		___flsub
  7975 ;; This function uses a non-reentrant model
  7976 ;;
  7977                           
  7978                           
  7979                           ;psect for function ___fladd
  7980  0D78                     ___fladd:
  7981  0D78                     l2349:	
  7982                           ;incstack = 0
  7983                           ; Regs used in ___fladd: [wreg+status,2+status,0+btemp+1]
  7984                           
  7985  0D78  1283               	bcf	3,5	;RP0=0, select bank0
  7986  0D79  1303               	bcf	3,6	;RP1=0, select bank0
  7987  0D7A  0858               	movf	___fladd@b+3,w
  7988  0D7B  3980               	andlw	128
  7989  0D7C  00DD               	movwf	??___fladd
  7990  0D7D  085D               	movf	??___fladd,w
  7991  0D7E  00E5               	movwf	___fladd@signs
  7992  0D7F                     l2351:
  7993  0D7F  0858               	movf	___fladd@b+3,w
  7994  0D80  00DD               	movwf	??___fladd
  7995  0D81  075D               	addwf	??___fladd,w
  7996  0D82  00DE               	movwf	??___fladd+1
  7997  0D83  085E               	movf	??___fladd+1,w
  7998  0D84  00E7               	movwf	___fladd@bexp
  7999  0D85                     l2353:
  8000  0D85  1FD7               	btfss	___fladd@b+2,7
  8001  0D86  2D88               	goto	u2611
  8002  0D87  2D89               	goto	u2610
  8003  0D88                     u2611:
  8004  0D88  2D8A               	goto	l2357
  8005  0D89                     u2610:
  8006  0D89                     l2355:
  8007  0D89  1467               	bsf	___fladd@bexp,0
  8008  0D8A                     l2357:
  8009  0D8A  0867               	movf	___fladd@bexp,w
  8010  0D8B  1903               	btfsc	3,2
  8011  0D8C  2D8E               	goto	u2621
  8012  0D8D  2D8F               	goto	u2620
  8013  0D8E                     u2621:
  8014  0D8E  2D9F               	goto	l2367
  8015  0D8F                     u2620:
  8016  0D8F                     l2359:
  8017  0D8F  0A67               	incf	___fladd@bexp,w
  8018  0D90  1D03               	btfss	3,2
  8019  0D91  2D93               	goto	u2631
  8020  0D92  2D94               	goto	u2630
  8021  0D93                     u2631:
  8022  0D93  2D9C               	goto	l2363
  8023  0D94                     u2630:
  8024  0D94                     l2361:
  8025  0D94  3000               	movlw	0
  8026  0D95  00D8               	movwf	___fladd@b+3
  8027  0D96  3000               	movlw	0
  8028  0D97  00D7               	movwf	___fladd@b+2
  8029  0D98  3000               	movlw	0
  8030  0D99  00D6               	movwf	___fladd@b+1
  8031  0D9A  3000               	movlw	0
  8032  0D9B  00D5               	movwf	___fladd@b
  8033  0D9C                     l2363:
  8034  0D9C  17D7               	bsf	___fladd@b+2,7
  8035  0D9D                     l2365:
  8036  0D9D  01D8               	clrf	___fladd@b+3
  8037  0D9E  2DA7               	goto	l2369
  8038  0D9F                     l2367:
  8039  0D9F  3000               	movlw	0
  8040  0DA0  00D8               	movwf	___fladd@b+3
  8041  0DA1  3000               	movlw	0
  8042  0DA2  00D7               	movwf	___fladd@b+2
  8043  0DA3  3000               	movlw	0
  8044  0DA4  00D6               	movwf	___fladd@b+1
  8045  0DA5  3000               	movlw	0
  8046  0DA6  00D5               	movwf	___fladd@b
  8047  0DA7                     l2369:
  8048  0DA7  085C               	movf	___fladd@a+3,w
  8049  0DA8  3980               	andlw	128
  8050  0DA9  00DD               	movwf	??___fladd
  8051  0DAA  085D               	movf	??___fladd,w
  8052  0DAB  00E6               	movwf	___fladd@aexp
  8053  0DAC                     l2371:
  8054  0DAC  0866               	movf	___fladd@aexp,w
  8055  0DAD  0665               	xorwf	___fladd@signs,w
  8056  0DAE  1903               	skipnz
  8057  0DAF  2DB1               	goto	u2641
  8058  0DB0  2DB2               	goto	u2640
  8059  0DB1                     u2641:
  8060  0DB1  2DB3               	goto	l2375
  8061  0DB2                     u2640:
  8062  0DB2                     l2373:
  8063  0DB2  1765               	bsf	___fladd@signs,6
  8064  0DB3                     l2375:
  8065  0DB3  085C               	movf	___fladd@a+3,w
  8066  0DB4  00DD               	movwf	??___fladd
  8067  0DB5  075D               	addwf	??___fladd,w
  8068  0DB6  00DE               	movwf	??___fladd+1
  8069  0DB7  085E               	movf	??___fladd+1,w
  8070  0DB8  00E6               	movwf	___fladd@aexp
  8071  0DB9                     l2377:
  8072  0DB9  1FDB               	btfss	___fladd@a+2,7
  8073  0DBA  2DBC               	goto	u2651
  8074  0DBB  2DBD               	goto	u2650
  8075  0DBC                     u2651:
  8076  0DBC  2DBE               	goto	l2381
  8077  0DBD                     u2650:
  8078  0DBD                     l2379:
  8079  0DBD  1466               	bsf	___fladd@aexp,0
  8080  0DBE                     l2381:
  8081  0DBE  0866               	movf	___fladd@aexp,w
  8082  0DBF  1903               	btfsc	3,2
  8083  0DC0  2DC2               	goto	u2661
  8084  0DC1  2DC3               	goto	u2660
  8085  0DC2                     u2661:
  8086  0DC2  2DD3               	goto	l2391
  8087  0DC3                     u2660:
  8088  0DC3                     l2383:
  8089  0DC3  0A66               	incf	___fladd@aexp,w
  8090  0DC4  1D03               	btfss	3,2
  8091  0DC5  2DC7               	goto	u2671
  8092  0DC6  2DC8               	goto	u2670
  8093  0DC7                     u2671:
  8094  0DC7  2DD0               	goto	l2387
  8095  0DC8                     u2670:
  8096  0DC8                     l2385:
  8097  0DC8  3000               	movlw	0
  8098  0DC9  00DC               	movwf	___fladd@a+3
  8099  0DCA  3000               	movlw	0
  8100  0DCB  00DB               	movwf	___fladd@a+2
  8101  0DCC  3000               	movlw	0
  8102  0DCD  00DA               	movwf	___fladd@a+1
  8103  0DCE  3000               	movlw	0
  8104  0DCF  00D9               	movwf	___fladd@a
  8105  0DD0                     l2387:
  8106  0DD0  17DB               	bsf	___fladd@a+2,7
  8107  0DD1                     l2389:
  8108  0DD1  01DC               	clrf	___fladd@a+3
  8109  0DD2  2DDB               	goto	l806
  8110  0DD3                     l2391:
  8111  0DD3  3000               	movlw	0
  8112  0DD4  00DC               	movwf	___fladd@a+3
  8113  0DD5  3000               	movlw	0
  8114  0DD6  00DB               	movwf	___fladd@a+2
  8115  0DD7  3000               	movlw	0
  8116  0DD8  00DA               	movwf	___fladd@a+1
  8117  0DD9  3000               	movlw	0
  8118  0DDA  00D9               	movwf	___fladd@a
  8119  0DDB                     l806:
  8120  0DDB  0867               	movf	___fladd@bexp,w
  8121  0DDC  0266               	subwf	___fladd@aexp,w
  8122  0DDD  1803               	skipnc
  8123  0DDE  2DE0               	goto	u2681
  8124  0DDF  2DE1               	goto	u2680
  8125  0DE0                     u2681:
  8126  0DE0  2E25               	goto	l2427
  8127  0DE1                     u2680:
  8128  0DE1                     l2393:
  8129  0DE1  1F65               	btfss	___fladd@signs,6
  8130  0DE2  2DE4               	goto	u2691
  8131  0DE3  2DE5               	goto	u2690
  8132  0DE4                     u2691:
  8133  0DE4  2DE9               	goto	l2397
  8134  0DE5                     u2690:
  8135  0DE5                     l2395:
  8136  0DE5  3080               	movlw	128
  8137  0DE6  00DD               	movwf	??___fladd
  8138  0DE7  085D               	movf	??___fladd,w
  8139  0DE8  06E5               	xorwf	___fladd@signs,f
  8140  0DE9                     l2397:
  8141  0DE9  0867               	movf	___fladd@bexp,w
  8142  0DEA  00DD               	movwf	??___fladd
  8143  0DEB  085D               	movf	??___fladd,w
  8144  0DEC  00E8               	movwf	___fladd@grs
  8145  0DED                     l2399:
  8146  0DED  0866               	movf	___fladd@aexp,w
  8147  0DEE  00DD               	movwf	??___fladd
  8148  0DEF  085D               	movf	??___fladd,w
  8149  0DF0  00E7               	movwf	___fladd@bexp
  8150  0DF1                     l2401:
  8151  0DF1  0868               	movf	___fladd@grs,w
  8152  0DF2  00DD               	movwf	??___fladd
  8153  0DF3  085D               	movf	??___fladd,w
  8154  0DF4  00E6               	movwf	___fladd@aexp
  8155  0DF5                     l2403:
  8156  0DF5  0855               	movf	___fladd@b,w
  8157  0DF6  00DD               	movwf	??___fladd
  8158  0DF7  085D               	movf	??___fladd,w
  8159  0DF8  00E8               	movwf	___fladd@grs
  8160  0DF9                     l2405:
  8161  0DF9  0859               	movf	___fladd@a,w
  8162  0DFA  00DD               	movwf	??___fladd
  8163  0DFB  085D               	movf	??___fladd,w
  8164  0DFC  00D5               	movwf	___fladd@b
  8165  0DFD                     l2407:
  8166  0DFD  0868               	movf	___fladd@grs,w
  8167  0DFE  00DD               	movwf	??___fladd
  8168  0DFF  085D               	movf	??___fladd,w
  8169  0E00  00D9               	movwf	___fladd@a
  8170  0E01                     l2409:
  8171  0E01  0856               	movf	___fladd@b+1,w
  8172  0E02  00DD               	movwf	??___fladd
  8173  0E03  085D               	movf	??___fladd,w
  8174  0E04  00E8               	movwf	___fladd@grs
  8175  0E05                     l2411:
  8176  0E05  085A               	movf	___fladd@a+1,w
  8177  0E06  00DD               	movwf	??___fladd
  8178  0E07  085D               	movf	??___fladd,w
  8179  0E08  00D6               	movwf	___fladd@b+1
  8180  0E09                     l2413:
  8181  0E09  0868               	movf	___fladd@grs,w
  8182  0E0A  00DD               	movwf	??___fladd
  8183  0E0B  085D               	movf	??___fladd,w
  8184  0E0C  00DA               	movwf	___fladd@a+1
  8185  0E0D                     l2415:
  8186  0E0D  0857               	movf	___fladd@b+2,w
  8187  0E0E  00DD               	movwf	??___fladd
  8188  0E0F  085D               	movf	??___fladd,w
  8189  0E10  00E8               	movwf	___fladd@grs
  8190  0E11                     l2417:
  8191  0E11  085B               	movf	___fladd@a+2,w
  8192  0E12  00DD               	movwf	??___fladd
  8193  0E13  085D               	movf	??___fladd,w
  8194  0E14  00D7               	movwf	___fladd@b+2
  8195  0E15                     l2419:
  8196  0E15  0868               	movf	___fladd@grs,w
  8197  0E16  00DD               	movwf	??___fladd
  8198  0E17  085D               	movf	??___fladd,w
  8199  0E18  00DB               	movwf	___fladd@a+2
  8200  0E19                     l2421:
  8201  0E19  0858               	movf	___fladd@b+3,w
  8202  0E1A  00DD               	movwf	??___fladd
  8203  0E1B  085D               	movf	??___fladd,w
  8204  0E1C  00E8               	movwf	___fladd@grs
  8205  0E1D                     l2423:
  8206  0E1D  085C               	movf	___fladd@a+3,w
  8207  0E1E  00DD               	movwf	??___fladd
  8208  0E1F  085D               	movf	??___fladd,w
  8209  0E20  00D8               	movwf	___fladd@b+3
  8210  0E21                     l2425:
  8211  0E21  0868               	movf	___fladd@grs,w
  8212  0E22  00DD               	movwf	??___fladd
  8213  0E23  085D               	movf	??___fladd,w
  8214  0E24  00DC               	movwf	___fladd@a+3
  8215  0E25                     l2427:
  8216  0E25  01E8               	clrf	___fladd@grs
  8217  0E26                     l2429:
  8218  0E26  0866               	movf	___fladd@aexp,w
  8219  0E27  00DD               	movwf	??___fladd
  8220  0E28  01DE               	clrf	??___fladd+1
  8221  0E29  085E               	movf	??___fladd+1,w
  8222  0E2A  00E0               	movwf	??___fladd+3
  8223  0E2B  0867               	movf	___fladd@bexp,w
  8224  0E2C  025D               	subwf	??___fladd,w
  8225  0E2D  00DF               	movwf	??___fladd+2
  8226  0E2E  1C03               	skipc
  8227  0E2F  03E0               	decf	??___fladd+3,f
  8228  0E30  0860               	movf	??___fladd+3,w
  8229  0E31  3A80               	xorlw	128
  8230  0E32  00FF               	movwf	btemp+1
  8231  0E33  3080               	movlw	128
  8232  0E34  027F               	subwf	btemp+1,w
  8233  0E35  1D03               	skipz
  8234  0E36  2E39               	goto	u2705
  8235  0E37  301A               	movlw	26
  8236  0E38  025F               	subwf	??___fladd+2,w
  8237  0E39                     u2705:
  8238  0E39  1C03               	skipc
  8239  0E3A  2E3C               	goto	u2701
  8240  0E3B  2E3D               	goto	u2700
  8241  0E3C                     u2701:
  8242  0E3C  2E7A               	goto	l2445
  8243  0E3D                     u2700:
  8244  0E3D                     l2431:
  8245  0E3D  1283               	bcf	3,5	;RP0=0, select bank0
  8246  0E3E  1303               	bcf	3,6	;RP1=0, select bank0
  8247  0E3F  0858               	movf	___fladd@b+3,w
  8248  0E40  0457               	iorwf	___fladd@b+2,w
  8249  0E41  0456               	iorwf	___fladd@b+1,w
  8250  0E42  0455               	iorwf	___fladd@b,w
  8251  0E43  1D03               	skipz
  8252  0E44  2E46               	goto	u2711
  8253  0E45  2E48               	goto	u2710
  8254  0E46                     u2711:
  8255  0E46  3001               	movlw	1
  8256  0E47  2E49               	goto	u2720
  8257  0E48                     u2710:
  8258  0E48  3000               	movlw	0
  8259  0E49                     u2720:
  8260  0E49  00DD               	movwf	??___fladd
  8261  0E4A  085D               	movf	??___fladd,w
  8262  0E4B  00E8               	movwf	___fladd@grs
  8263  0E4C  3000               	movlw	0
  8264  0E4D  00D8               	movwf	___fladd@b+3
  8265  0E4E  3000               	movlw	0
  8266  0E4F  00D7               	movwf	___fladd@b+2
  8267  0E50  3000               	movlw	0
  8268  0E51  00D6               	movwf	___fladd@b+1
  8269  0E52  3000               	movlw	0
  8270  0E53  00D5               	movwf	___fladd@b
  8271  0E54  0866               	movf	___fladd@aexp,w
  8272  0E55  00DD               	movwf	??___fladd
  8273  0E56  085D               	movf	??___fladd,w
  8274  0E57  00E7               	movwf	___fladd@bexp
  8275  0E58  2E82               	goto	l810
  8276  0E59                     l812:
  8277  0E59  1C68               	btfss	___fladd@grs,0
  8278  0E5A  2E5C               	goto	u2731
  8279  0E5B  2E5D               	goto	u2730
  8280  0E5C                     u2731:
  8281  0E5C  2E66               	goto	l2435
  8282  0E5D                     u2730:
  8283  0E5D                     l2433:
  8284  0E5D  0868               	movf	___fladd@grs,w
  8285  0E5E  00DD               	movwf	??___fladd
  8286  0E5F  1003               	clrc
  8287  0E60  0C5D               	rrf	??___fladd,w
  8288  0E61  3801               	iorlw	1
  8289  0E62  00DE               	movwf	??___fladd+1
  8290  0E63  085E               	movf	??___fladd+1,w
  8291  0E64  00E8               	movwf	___fladd@grs
  8292  0E65  2E68               	goto	l2437
  8293  0E66                     l2435:
  8294  0E66  1003               	clrc
  8295  0E67  0CE8               	rrf	___fladd@grs,f
  8296  0E68                     l2437:
  8297  0E68  1C55               	btfss	___fladd@b,0
  8298  0E69  2E6B               	goto	u2741
  8299  0E6A  2E6C               	goto	u2740
  8300  0E6B                     u2741:
  8301  0E6B  2E6D               	goto	l2441
  8302  0E6C                     u2740:
  8303  0E6C                     l2439:
  8304  0E6C  17E8               	bsf	___fladd@grs,7
  8305  0E6D                     l2441:
  8306  0E6D  3001               	movlw	1
  8307  0E6E  00DD               	movwf	??___fladd
  8308  0E6F                     u2755:
  8309  0E6F  0D58               	rlf	___fladd@b+3,w
  8310  0E70  0CD8               	rrf	___fladd@b+3,f
  8311  0E71  0CD7               	rrf	___fladd@b+2,f
  8312  0E72  0CD6               	rrf	___fladd@b+1,f
  8313  0E73  0CD5               	rrf	___fladd@b,f
  8314  0E74  0BDD               	decfsz	??___fladd& (0+127),f
  8315  0E75  2E6F               	goto	u2755
  8316  0E76                     l2443:
  8317  0E76  3001               	movlw	1
  8318  0E77  00DD               	movwf	??___fladd
  8319  0E78  085D               	movf	??___fladd,w
  8320  0E79  07E7               	addwf	___fladd@bexp,f
  8321  0E7A                     l2445:
  8322  0E7A  1283               	bcf	3,5	;RP0=0, select bank0
  8323  0E7B  1303               	bcf	3,6	;RP1=0, select bank0
  8324  0E7C  0866               	movf	___fladd@aexp,w
  8325  0E7D  0267               	subwf	___fladd@bexp,w
  8326  0E7E  1C03               	skipc
  8327  0E7F  2E81               	goto	u2761
  8328  0E80  2E82               	goto	u2760
  8329  0E81                     u2761:
  8330  0E81  2E59               	goto	l812
  8331  0E82                     u2760:
  8332  0E82                     l810:
  8333  0E82  1B65               	btfsc	___fladd@signs,6
  8334  0E83  2E85               	goto	u2771
  8335  0E84  2E86               	goto	u2770
  8336  0E85                     u2771:
  8337  0E85  2ED1               	goto	l2471
  8338  0E86                     u2770:
  8339  0E86                     l2447:
  8340  0E86  0867               	movf	___fladd@bexp,w
  8341  0E87  1D03               	btfss	3,2
  8342  0E88  2E8A               	goto	u2781
  8343  0E89  2E8B               	goto	u2780
  8344  0E8A                     u2781:
  8345  0E8A  2E94               	goto	l2453
  8346  0E8B                     u2780:
  8347  0E8B                     l2449:
  8348  0E8B  3000               	movlw	0
  8349  0E8C  00D8               	movwf	?___fladd+3
  8350  0E8D  3000               	movlw	0
  8351  0E8E  00D7               	movwf	?___fladd+2
  8352  0E8F  3000               	movlw	0
  8353  0E90  00D6               	movwf	?___fladd+1
  8354  0E91  3000               	movlw	0
  8355  0E92  00D5               	movwf	?___fladd
  8356  0E93  2FFF               	goto	l819
  8357  0E94                     l2453:
  8358  0E94  0859               	movf	___fladd@a,w
  8359  0E95  07D5               	addwf	___fladd@b,f
  8360  0E96  085A               	movf	___fladd@a+1,w
  8361  0E97  1103               	clrz
  8362  0E98  1803               	skipnc
  8363  0E99  3E01               	addlw	1
  8364  0E9A  1903               	skipnz
  8365  0E9B  2E9D               	goto	u2791
  8366  0E9C  07D6               	addwf	___fladd@b+1,f
  8367  0E9D                     u2791:
  8368  0E9D  085B               	movf	___fladd@a+2,w
  8369  0E9E  1103               	clrz
  8370  0E9F  1803               	skipnc
  8371  0EA0  3E01               	addlw	1
  8372  0EA1  1903               	skipnz
  8373  0EA2  2EA4               	goto	u2792
  8374  0EA3  07D7               	addwf	___fladd@b+2,f
  8375  0EA4                     u2792:
  8376  0EA4  085C               	movf	___fladd@a+3,w
  8377  0EA5  1103               	clrz
  8378  0EA6  1803               	skipnc
  8379  0EA7  3E01               	addlw	1
  8380  0EA8  1903               	skipnz
  8381  0EA9  2EAB               	goto	u2793
  8382  0EAA  07D8               	addwf	___fladd@b+3,f
  8383  0EAB                     u2793:
  8384  0EAB                     l2455:
  8385  0EAB  1C58               	btfss	___fladd@b+3,0
  8386  0EAC  2EAE               	goto	u2801
  8387  0EAD  2EAF               	goto	u2800
  8388  0EAE                     u2801:
  8389  0EAE  2F85               	goto	l2505
  8390  0EAF                     u2800:
  8391  0EAF                     l2457:
  8392  0EAF  1C68               	btfss	___fladd@grs,0
  8393  0EB0  2EB2               	goto	u2811
  8394  0EB1  2EB3               	goto	u2810
  8395  0EB2                     u2811:
  8396  0EB2  2EBC               	goto	l2461
  8397  0EB3                     u2810:
  8398  0EB3                     l2459:
  8399  0EB3  0868               	movf	___fladd@grs,w
  8400  0EB4  00DD               	movwf	??___fladd
  8401  0EB5  1003               	clrc
  8402  0EB6  0C5D               	rrf	??___fladd,w
  8403  0EB7  3801               	iorlw	1
  8404  0EB8  00DE               	movwf	??___fladd+1
  8405  0EB9  085E               	movf	??___fladd+1,w
  8406  0EBA  00E8               	movwf	___fladd@grs
  8407  0EBB  2EBE               	goto	l2463
  8408  0EBC                     l2461:
  8409  0EBC  1003               	clrc
  8410  0EBD  0CE8               	rrf	___fladd@grs,f
  8411  0EBE                     l2463:
  8412  0EBE  1C55               	btfss	___fladd@b,0
  8413  0EBF  2EC1               	goto	u2821
  8414  0EC0  2EC2               	goto	u2820
  8415  0EC1                     u2821:
  8416  0EC1  2EC3               	goto	l2467
  8417  0EC2                     u2820:
  8418  0EC2                     l2465:
  8419  0EC2  17E8               	bsf	___fladd@grs,7
  8420  0EC3                     l2467:
  8421  0EC3  3001               	movlw	1
  8422  0EC4  00DD               	movwf	??___fladd
  8423  0EC5                     u2835:
  8424  0EC5  0D58               	rlf	___fladd@b+3,w
  8425  0EC6  0CD8               	rrf	___fladd@b+3,f
  8426  0EC7  0CD7               	rrf	___fladd@b+2,f
  8427  0EC8  0CD6               	rrf	___fladd@b+1,f
  8428  0EC9  0CD5               	rrf	___fladd@b,f
  8429  0ECA  0BDD               	decfsz	??___fladd& (0+127),f
  8430  0ECB  2EC5               	goto	u2835
  8431  0ECC                     l2469:
  8432  0ECC  3001               	movlw	1
  8433  0ECD  00DD               	movwf	??___fladd
  8434  0ECE  085D               	movf	??___fladd,w
  8435  0ECF  07E7               	addwf	___fladd@bexp,f
  8436  0ED0  2F85               	goto	l2505
  8437  0ED1                     l2471:
  8438  0ED1  0858               	movf	___fladd@b+3,w
  8439  0ED2  3A80               	xorlw	128
  8440  0ED3  00FF               	movwf	btemp+1
  8441  0ED4  085C               	movf	___fladd@a+3,w
  8442  0ED5  3A80               	xorlw	128
  8443  0ED6  027F               	subwf	btemp+1,w
  8444  0ED7  1D03               	skipz
  8445  0ED8  2EE3               	goto	u2843
  8446  0ED9  085B               	movf	___fladd@a+2,w
  8447  0EDA  0257               	subwf	___fladd@b+2,w
  8448  0EDB  1D03               	skipz
  8449  0EDC  2EE3               	goto	u2843
  8450  0EDD  085A               	movf	___fladd@a+1,w
  8451  0EDE  0256               	subwf	___fladd@b+1,w
  8452  0EDF  1D03               	skipz
  8453  0EE0  2EE3               	goto	u2843
  8454  0EE1  0859               	movf	___fladd@a,w
  8455  0EE2  0255               	subwf	___fladd@b,w
  8456  0EE3                     u2843:
  8457  0EE3  1803               	skipnc
  8458  0EE4  2EE6               	goto	u2841
  8459  0EE5  2EE7               	goto	u2840
  8460  0EE6                     u2841:
  8461  0EE6  2F3F               	goto	l2481
  8462  0EE7                     u2840:
  8463  0EE7                     l2473:
  8464  0EE7  30FF               	movlw	255
  8465  0EE8  00DD               	movwf	??___fladd
  8466  0EE9  30FF               	movlw	255
  8467  0EEA  00DE               	movwf	??___fladd+1
  8468  0EEB  30FF               	movlw	255
  8469  0EEC  00DF               	movwf	??___fladd+2
  8470  0EED  30FF               	movlw	255
  8471  0EEE  00E0               	movwf	??___fladd+3
  8472  0EEF  0859               	movf	___fladd@a,w
  8473  0EF0  00E1               	movwf	??___fladd+4
  8474  0EF1  085A               	movf	___fladd@a+1,w
  8475  0EF2  00E2               	movwf	??___fladd+5
  8476  0EF3  085B               	movf	___fladd@a+2,w
  8477  0EF4  00E3               	movwf	??___fladd+6
  8478  0EF5  085C               	movf	___fladd@a+3,w
  8479  0EF6  00E4               	movwf	??___fladd+7
  8480  0EF7  0855               	movf	___fladd@b,w
  8481  0EF8  02E1               	subwf	??___fladd+4,f
  8482  0EF9  0856               	movf	___fladd@b+1,w
  8483  0EFA  1C03               	skipc
  8484  0EFB  0F56               	incfsz	___fladd@b+1,w
  8485  0EFC  2EFE               	goto	u2851
  8486  0EFD  2EFF               	goto	u2852
  8487  0EFE                     u2851:
  8488  0EFE  02E2               	subwf	??___fladd+5,f
  8489  0EFF                     u2852:
  8490  0EFF  0857               	movf	___fladd@b+2,w
  8491  0F00  1C03               	skipc
  8492  0F01  0F57               	incfsz	___fladd@b+2,w
  8493  0F02  2F04               	goto	u2853
  8494  0F03  2F05               	goto	u2854
  8495  0F04                     u2853:
  8496  0F04  02E3               	subwf	??___fladd+6,f
  8497  0F05                     u2854:
  8498  0F05  0858               	movf	___fladd@b+3,w
  8499  0F06  1C03               	skipc
  8500  0F07  0F58               	incfsz	___fladd@b+3,w
  8501  0F08  2F0A               	goto	u2855
  8502  0F09  2F0B               	goto	u2856
  8503  0F0A                     u2855:
  8504  0F0A  02E4               	subwf	??___fladd+7,f
  8505  0F0B                     u2856:
  8506  0F0B  0861               	movf	??___fladd+4,w
  8507  0F0C  07DD               	addwf	??___fladd,f
  8508  0F0D  0862               	movf	??___fladd+5,w
  8509  0F0E  1803               	skipnc
  8510  0F0F  0F62               	incfsz	??___fladd+5,w
  8511  0F10  2F12               	goto	u2860
  8512  0F11  2F13               	goto	u2861
  8513  0F12                     u2860:
  8514  0F12  07DE               	addwf	??___fladd+1,f
  8515  0F13                     u2861:
  8516  0F13  0863               	movf	??___fladd+6,w
  8517  0F14  1803               	skipnc
  8518  0F15  0F63               	incfsz	??___fladd+6,w
  8519  0F16  2F18               	goto	u2862
  8520  0F17  2F19               	goto	u2863
  8521  0F18                     u2862:
  8522  0F18  07DF               	addwf	??___fladd+2,f
  8523  0F19                     u2863:
  8524  0F19  0864               	movf	??___fladd+7,w
  8525  0F1A  1803               	skipnc
  8526  0F1B  0A64               	incf	??___fladd+7,w
  8527  0F1C  07E0               	addwf	??___fladd+3,f
  8528  0F1D  0860               	movf	??___fladd+3,w
  8529  0F1E  00D8               	movwf	___fladd@b+3
  8530  0F1F  085F               	movf	??___fladd+2,w
  8531  0F20  00D7               	movwf	___fladd@b+2
  8532  0F21  085E               	movf	??___fladd+1,w
  8533  0F22  00D6               	movwf	___fladd@b+1
  8534  0F23  085D               	movf	??___fladd,w
  8535  0F24  00D5               	movwf	___fladd@b
  8536  0F25                     l2475:
  8537  0F25  3080               	movlw	128
  8538  0F26  00DD               	movwf	??___fladd
  8539  0F27  085D               	movf	??___fladd,w
  8540  0F28  06E5               	xorwf	___fladd@signs,f
  8541  0F29  09E8               	comf	___fladd@grs,f
  8542  0F2A  0AE8               	incf	___fladd@grs,f
  8543  0F2B                     l2477:
  8544  0F2B  0868               	movf	___fladd@grs,w
  8545  0F2C  1D03               	btfss	3,2
  8546  0F2D  2F2F               	goto	u2871
  8547  0F2E  2F30               	goto	u2870
  8548  0F2F                     u2871:
  8549  0F2F  2F4D               	goto	l827
  8550  0F30                     u2870:
  8551  0F30                     l2479:
  8552  0F30  3001               	movlw	1
  8553  0F31  07D5               	addwf	___fladd@b,f
  8554  0F32  3000               	movlw	0
  8555  0F33  1803               	skipnc
  8556  0F34  3001               	movlw	1
  8557  0F35  07D6               	addwf	___fladd@b+1,f
  8558  0F36  3000               	movlw	0
  8559  0F37  1803               	skipnc
  8560  0F38  3001               	movlw	1
  8561  0F39  07D7               	addwf	___fladd@b+2,f
  8562  0F3A  3000               	movlw	0
  8563  0F3B  1803               	skipnc
  8564  0F3C  3001               	movlw	1
  8565  0F3D  07D8               	addwf	___fladd@b+3,f
  8566  0F3E  2F4D               	goto	l827
  8567  0F3F                     l2481:
  8568  0F3F  0859               	movf	___fladd@a,w
  8569  0F40  02D5               	subwf	___fladd@b,f
  8570  0F41  085A               	movf	___fladd@a+1,w
  8571  0F42  1C03               	skipc
  8572  0F43  0F5A               	incfsz	___fladd@a+1,w
  8573  0F44  02D6               	subwf	___fladd@b+1,f
  8574  0F45  085B               	movf	___fladd@a+2,w
  8575  0F46  1C03               	skipc
  8576  0F47  0F5B               	incfsz	___fladd@a+2,w
  8577  0F48  02D7               	subwf	___fladd@b+2,f
  8578  0F49  085C               	movf	___fladd@a+3,w
  8579  0F4A  1C03               	skipc
  8580  0F4B  0F5C               	incfsz	___fladd@a+3,w
  8581  0F4C  02D8               	subwf	___fladd@b+3,f
  8582  0F4D                     l827:
  8583  0F4D  0858               	movf	___fladd@b+3,w
  8584  0F4E  0457               	iorwf	___fladd@b+2,w
  8585  0F4F  0456               	iorwf	___fladd@b+1,w
  8586  0F50  0455               	iorwf	___fladd@b,w
  8587  0F51  1D03               	skipz
  8588  0F52  2F54               	goto	u2881
  8589  0F53  2F55               	goto	u2880
  8590  0F54                     u2881:
  8591  0F54  2F81               	goto	l2503
  8592  0F55                     u2880:
  8593  0F55                     l2483:
  8594  0F55  0868               	movf	___fladd@grs,w
  8595  0F56  1D03               	btfss	3,2
  8596  0F57  2F59               	goto	u2891
  8597  0F58  2F5A               	goto	u2890
  8598  0F59                     u2891:
  8599  0F59  2F81               	goto	l2503
  8600  0F5A                     u2890:
  8601  0F5A                     l2485:
  8602  0F5A  3000               	movlw	0
  8603  0F5B  00D8               	movwf	?___fladd+3
  8604  0F5C  3000               	movlw	0
  8605  0F5D  00D7               	movwf	?___fladd+2
  8606  0F5E  3000               	movlw	0
  8607  0F5F  00D6               	movwf	?___fladd+1
  8608  0F60  3000               	movlw	0
  8609  0F61  00D5               	movwf	?___fladd
  8610  0F62  2FFF               	goto	l819
  8611  0F63                     l2489:
  8612  0F63  3001               	movlw	1
  8613  0F64  00DD               	movwf	??___fladd
  8614  0F65                     u2905:
  8615  0F65  1003               	clrc
  8616  0F66  0DD5               	rlf	___fladd@b,f
  8617  0F67  0DD6               	rlf	___fladd@b+1,f
  8618  0F68  0DD7               	rlf	___fladd@b+2,f
  8619  0F69  0DD8               	rlf	___fladd@b+3,f
  8620  0F6A  0BDD               	decfsz	??___fladd,f
  8621  0F6B  2F65               	goto	u2905
  8622  0F6C                     l2491:
  8623  0F6C  1FE8               	btfss	___fladd@grs,7
  8624  0F6D  2F6F               	goto	u2911
  8625  0F6E  2F70               	goto	u2910
  8626  0F6F                     u2911:
  8627  0F6F  2F71               	goto	l831
  8628  0F70                     u2910:
  8629  0F70                     l2493:
  8630  0F70  1455               	bsf	___fladd@b,0
  8631  0F71                     l831:
  8632  0F71  1C68               	btfss	___fladd@grs,0
  8633  0F72  2F74               	goto	u2921
  8634  0F73  2F75               	goto	u2920
  8635  0F74                     u2921:
  8636  0F74  2F78               	goto	l2497
  8637  0F75                     u2920:
  8638  0F75                     l2495:
  8639  0F75  1403               	setc
  8640  0F76  0DE8               	rlf	___fladd@grs,f
  8641  0F77  2F7A               	goto	l2499
  8642  0F78                     l2497:
  8643  0F78  1003               	clrc
  8644  0F79  0DE8               	rlf	___fladd@grs,f
  8645  0F7A                     l2499:
  8646  0F7A  0867               	movf	___fladd@bexp,w
  8647  0F7B  1903               	btfsc	3,2
  8648  0F7C  2F7E               	goto	u2931
  8649  0F7D  2F7F               	goto	u2930
  8650  0F7E                     u2931:
  8651  0F7E  2F81               	goto	l2503
  8652  0F7F                     u2930:
  8653  0F7F                     l2501:
  8654  0F7F  3001               	movlw	1
  8655  0F80  02E7               	subwf	___fladd@bexp,f
  8656  0F81                     l2503:
  8657  0F81  1FD7               	btfss	___fladd@b+2,7
  8658  0F82  2F84               	goto	u2941
  8659  0F83  2F85               	goto	u2940
  8660  0F84                     u2941:
  8661  0F84  2F63               	goto	l2489
  8662  0F85                     u2940:
  8663  0F85                     l2505:
  8664  0F85  01E6               	clrf	___fladd@aexp
  8665  0F86                     l2507:
  8666  0F86  1FE8               	btfss	___fladd@grs,7
  8667  0F87  2F89               	goto	u2951
  8668  0F88  2F8A               	goto	u2950
  8669  0F89                     u2951:
  8670  0F89  2F98               	goto	l2515
  8671  0F8A                     u2950:
  8672  0F8A                     l2509:
  8673  0F8A  0868               	movf	___fladd@grs,w
  8674  0F8B  397F               	andlw	127
  8675  0F8C  1903               	btfsc	3,2
  8676  0F8D  2F8F               	goto	u2961
  8677  0F8E  2F90               	goto	u2960
  8678  0F8F                     u2961:
  8679  0F8F  2F93               	goto	l837
  8680  0F90                     u2960:
  8681  0F90                     l2511:
  8682  0F90  01E6               	clrf	___fladd@aexp
  8683  0F91  0AE6               	incf	___fladd@aexp,f
  8684  0F92  2F98               	goto	l2515
  8685  0F93                     l837:
  8686  0F93  1C55               	btfss	___fladd@b,0
  8687  0F94  2F96               	goto	u2971
  8688  0F95  2F97               	goto	u2970
  8689  0F96                     u2971:
  8690  0F96  2F98               	goto	l2515
  8691  0F97                     u2970:
  8692  0F97  2F90               	goto	l2511
  8693  0F98                     l2515:
  8694  0F98  0866               	movf	___fladd@aexp,w
  8695  0F99  1903               	btfsc	3,2
  8696  0F9A  2F9C               	goto	u2981
  8697  0F9B  2F9D               	goto	u2980
  8698  0F9C                     u2981:
  8699  0F9C  2FD1               	goto	l840
  8700  0F9D                     u2980:
  8701  0F9D                     l2517:
  8702  0F9D  3001               	movlw	1
  8703  0F9E  07D5               	addwf	___fladd@b,f
  8704  0F9F  3000               	movlw	0
  8705  0FA0  1803               	skipnc
  8706  0FA1  3001               	movlw	1
  8707  0FA2  07D6               	addwf	___fladd@b+1,f
  8708  0FA3  3000               	movlw	0
  8709  0FA4  1803               	skipnc
  8710  0FA5  3001               	movlw	1
  8711  0FA6  07D7               	addwf	___fladd@b+2,f
  8712  0FA7  3000               	movlw	0
  8713  0FA8  1803               	skipnc
  8714  0FA9  3001               	movlw	1
  8715  0FAA  07D8               	addwf	___fladd@b+3,f
  8716  0FAB                     l2519:
  8717  0FAB  1C58               	btfss	___fladd@b+3,0
  8718  0FAC  2FAE               	goto	u2991
  8719  0FAD  2FAF               	goto	u2990
  8720  0FAE                     u2991:
  8721  0FAE  2FD1               	goto	l840
  8722  0FAF                     u2990:
  8723  0FAF                     l2521:
  8724  0FAF  0855               	movf	___fladd@b,w
  8725  0FB0  00DD               	movwf	??___fladd
  8726  0FB1  0856               	movf	___fladd@b+1,w
  8727  0FB2  00DE               	movwf	??___fladd+1
  8728  0FB3  0857               	movf	___fladd@b+2,w
  8729  0FB4  00DF               	movwf	??___fladd+2
  8730  0FB5  0858               	movf	___fladd@b+3,w
  8731  0FB6  00E0               	movwf	??___fladd+3
  8732  0FB7  3001               	movlw	1
  8733  0FB8  00E1               	movwf	??___fladd+4
  8734  0FB9                     u3005:
  8735  0FB9  0D60               	rlf	??___fladd+3,w
  8736  0FBA  0CE0               	rrf	??___fladd+3,f
  8737  0FBB  0CDF               	rrf	??___fladd+2,f
  8738  0FBC  0CDE               	rrf	??___fladd+1,f
  8739  0FBD  0CDD               	rrf	??___fladd,f
  8740  0FBE                     u3000:
  8741  0FBE  0BE1               	decfsz	??___fladd+4,f
  8742  0FBF  2FB9               	goto	u3005
  8743  0FC0  0860               	movf	??___fladd+3,w
  8744  0FC1  00D8               	movwf	___fladd@b+3
  8745  0FC2  085F               	movf	??___fladd+2,w
  8746  0FC3  00D7               	movwf	___fladd@b+2
  8747  0FC4  085E               	movf	??___fladd+1,w
  8748  0FC5  00D6               	movwf	___fladd@b+1
  8749  0FC6  085D               	movf	??___fladd,w
  8750  0FC7  00D5               	movwf	___fladd@b
  8751  0FC8  0A67               	incf	___fladd@bexp,w
  8752  0FC9  1903               	btfsc	3,2
  8753  0FCA  2FCC               	goto	u3011
  8754  0FCB  2FCD               	goto	u3010
  8755  0FCC                     u3011:
  8756  0FCC  2FD1               	goto	l840
  8757  0FCD                     u3010:
  8758  0FCD                     l2523:
  8759  0FCD  3001               	movlw	1
  8760  0FCE  00DD               	movwf	??___fladd
  8761  0FCF  085D               	movf	??___fladd,w
  8762  0FD0  07E7               	addwf	___fladd@bexp,f
  8763  0FD1                     l840:
  8764  0FD1  0A67               	incf	___fladd@bexp,w
  8765  0FD2  1903               	btfsc	3,2
  8766  0FD3  2FD5               	goto	u3021
  8767  0FD4  2FD6               	goto	u3020
  8768  0FD5                     u3021:
  8769  0FD5  2FDB               	goto	l2527
  8770  0FD6                     u3020:
  8771  0FD6                     l2525:
  8772  0FD6  0867               	movf	___fladd@bexp,w
  8773  0FD7  1D03               	btfss	3,2
  8774  0FD8  2FDA               	goto	u3031
  8775  0FD9  2FDB               	goto	u3030
  8776  0FDA                     u3031:
  8777  0FDA  2FE9               	goto	l2533
  8778  0FDB                     u3030:
  8779  0FDB                     l2527:
  8780  0FDB  3000               	movlw	0
  8781  0FDC  00D8               	movwf	___fladd@b+3
  8782  0FDD  3000               	movlw	0
  8783  0FDE  00D7               	movwf	___fladd@b+2
  8784  0FDF  3000               	movlw	0
  8785  0FE0  00D6               	movwf	___fladd@b+1
  8786  0FE1  3000               	movlw	0
  8787  0FE2  00D5               	movwf	___fladd@b
  8788  0FE3                     l2529:
  8789  0FE3  0867               	movf	___fladd@bexp,w
  8790  0FE4  1D03               	btfss	3,2
  8791  0FE5  2FE7               	goto	u3041
  8792  0FE6  2FE8               	goto	u3040
  8793  0FE7                     u3041:
  8794  0FE7  2FE9               	goto	l2533
  8795  0FE8                     u3040:
  8796  0FE8                     l2531:
  8797  0FE8  01E5               	clrf	___fladd@signs
  8798  0FE9                     l2533:
  8799  0FE9  1C67               	btfss	___fladd@bexp,0
  8800  0FEA  2FEC               	goto	u3051
  8801  0FEB  2FED               	goto	u3050
  8802  0FEC                     u3051:
  8803  0FEC  2FEF               	goto	l2537
  8804  0FED                     u3050:
  8805  0FED                     l2535:
  8806  0FED  17D7               	bsf	___fladd@b+2,7
  8807  0FEE  2FF3               	goto	l848
  8808  0FEF                     l2537:
  8809  0FEF  307F               	movlw	127
  8810  0FF0  00DD               	movwf	??___fladd
  8811  0FF1  085D               	movf	??___fladd,w
  8812  0FF2  05D7               	andwf	___fladd@b+2,f
  8813  0FF3                     l848:
  8814  0FF3  0867               	movf	___fladd@bexp,w
  8815  0FF4  00DD               	movwf	??___fladd
  8816  0FF5  1003               	clrc
  8817  0FF6  0C5D               	rrf	??___fladd,w
  8818  0FF7  00DE               	movwf	??___fladd+1
  8819  0FF8  085E               	movf	??___fladd+1,w
  8820  0FF9  00D8               	movwf	___fladd@b+3
  8821  0FFA                     l2539:
  8822  0FFA  1FE5               	btfss	___fladd@signs,7
  8823  0FFB  2FFD               	goto	u3061
  8824  0FFC  2FFE               	goto	u3060
  8825  0FFD                     u3061:
  8826  0FFD  2FFF               	goto	l849
  8827  0FFE                     u3060:
  8828  0FFE                     l2541:
  8829  0FFE  17D8               	bsf	___fladd@b+3,7
  8830  0FFF                     l849:
  8831  0FFF                     l819:
  8832  0FFF  0008               	return
  8833  1000                     __end_of___fladd:
  8834                           
  8835                           	psect	text26
  8836  0890                     __ptext26:	
  8837 ;; *************** function ___fldiv *****************
  8838 ;; Defined at:
  8839 ;;		line 8 in file "C:\Program Files\Microchip\xc8\v2.32\pic\sources\c90\common\sprcdiv.c"
  8840 ;; Parameters:    Size  Location     Type
  8841 ;;  a               4    8[BANK1 ] unsigned char 
  8842 ;;  b               4   12[BANK1 ] unsigned char 
  8843 ;; Auto vars:     Size  Location     Type
  8844 ;;  grs             4   23[BANK1 ] unsigned long 
  8845 ;;  rem             4   16[BANK1 ] unsigned long 
  8846 ;;  new_exp         2   21[BANK1 ] int 
  8847 ;;  aexp            1   28[BANK1 ] unsigned char 
  8848 ;;  bexp            1   27[BANK1 ] unsigned char 
  8849 ;;  sign            1   20[BANK1 ] unsigned char 
  8850 ;; Return value:  Size  Location     Type
  8851 ;;                  4    8[BANK1 ] unsigned char 
  8852 ;; Registers used:
  8853 ;;		wreg, status,2, status,0, btemp+1
  8854 ;; Tracked objects:
  8855 ;;		On entry : 0/0
  8856 ;;		On exit  : 0/0
  8857 ;;		Unchanged: 0/0
  8858 ;; Data sizes:     COMMON   BANK0   BANK1   BANK3   BANK2
  8859 ;;      Params:         0       0       8       0       0
  8860 ;;      Locals:         0       0      13       0       0
  8861 ;;      Temps:          0       5       0       0       0
  8862 ;;      Totals:         0       5      21       0       0
  8863 ;;Total ram usage:       26 bytes
  8864 ;; Hardware stack levels used: 1
  8865 ;; Hardware stack levels required when called: 1
  8866 ;; This function calls:
  8867 ;;		Nothing
  8868 ;; This function is called by:
  8869 ;;		_UpdateLCDViewWithNumber
  8870 ;;		_PrepareTempHumDataPacket
  8871 ;;		_PrepareDesiredTempDataPacket
  8872 ;; This function uses a non-reentrant model
  8873 ;;
  8874                           
  8875                           
  8876                           ;psect for function ___fldiv
  8877  0890                     ___fldiv:
  8878  0890                     l3777:	
  8879                           ;incstack = 0
  8880                           ; Regs used in ___fldiv: [wreg+status,2+status,0+btemp+1]
  8881                           
  8882  0890  1683               	bsf	3,5	;RP0=1, select bank1
  8883  0891  1303               	bcf	3,6	;RP1=0, select bank1
  8884  0892  082F               	movf	(___fldiv@b^(0+128)+3),w
  8885  0893  3980               	andlw	128
  8886  0894  1283               	bcf	3,5	;RP0=0, select bank0
  8887  0895  1303               	bcf	3,6	;RP1=0, select bank0
  8888  0896  00E9               	movwf	??___fldiv
  8889  0897  0869               	movf	??___fldiv,w
  8890  0898  1683               	bsf	3,5	;RP0=1, select bank1
  8891  0899  1303               	bcf	3,6	;RP1=0, select bank1
  8892  089A  00B4               	movwf	___fldiv@sign^(0+128)
  8893  089B                     l3779:
  8894  089B  082F               	movf	(___fldiv@b^(0+128)+3),w
  8895  089C  1283               	bcf	3,5	;RP0=0, select bank0
  8896  089D  1303               	bcf	3,6	;RP1=0, select bank0
  8897  089E  00E9               	movwf	??___fldiv
  8898  089F  0769               	addwf	??___fldiv,w
  8899  08A0  00EA               	movwf	??___fldiv+1
  8900  08A1  086A               	movf	??___fldiv+1,w
  8901  08A2  1683               	bsf	3,5	;RP0=1, select bank1
  8902  08A3  1303               	bcf	3,6	;RP1=0, select bank1
  8903  08A4  00BB               	movwf	___fldiv@bexp^(0+128)
  8904  08A5                     l3781:
  8905  08A5  1FAE               	btfss	(___fldiv@b^(0+128)+2),7
  8906  08A6  28A8               	goto	u5451
  8907  08A7  28A9               	goto	u5450
  8908  08A8                     u5451:
  8909  08A8  28AA               	goto	l3785
  8910  08A9                     u5450:
  8911  08A9                     l3783:
  8912  08A9  143B               	bsf	___fldiv@bexp^(0+128),0
  8913  08AA                     l3785:
  8914  08AA  083B               	movf	___fldiv@bexp^(0+128),w
  8915  08AB  1903               	btfsc	3,2
  8916  08AC  28AE               	goto	u5461
  8917  08AD  28AF               	goto	u5460
  8918  08AE                     u5461:
  8919  08AE  28BF               	goto	l3795
  8920  08AF                     u5460:
  8921  08AF                     l3787:
  8922  08AF  0A3B               	incf	___fldiv@bexp^(0+128),w
  8923  08B0  1D03               	btfss	3,2
  8924  08B1  28B3               	goto	u5471
  8925  08B2  28B4               	goto	u5470
  8926  08B3                     u5471:
  8927  08B3  28BC               	goto	l3791
  8928  08B4                     u5470:
  8929  08B4                     l3789:
  8930  08B4  3000               	movlw	0
  8931  08B5  00AF               	movwf	(___fldiv@b+3)^(0+128)
  8932  08B6  3000               	movlw	0
  8933  08B7  00AE               	movwf	(___fldiv@b+2)^(0+128)
  8934  08B8  3000               	movlw	0
  8935  08B9  00AD               	movwf	(___fldiv@b+1)^(0+128)
  8936  08BA  3000               	movlw	0
  8937  08BB  00AC               	movwf	___fldiv@b^(0+128)
  8938  08BC                     l3791:
  8939  08BC  17AE               	bsf	(___fldiv@b^(0+128)+2),7
  8940  08BD                     l3793:
  8941  08BD  01AF               	clrf	(___fldiv@b^(0+128)+3)
  8942  08BE  28C7               	goto	l3797
  8943  08BF                     l3795:
  8944  08BF  3000               	movlw	0
  8945  08C0  00AF               	movwf	(___fldiv@b+3)^(0+128)
  8946  08C1  3000               	movlw	0
  8947  08C2  00AE               	movwf	(___fldiv@b+2)^(0+128)
  8948  08C3  3000               	movlw	0
  8949  08C4  00AD               	movwf	(___fldiv@b+1)^(0+128)
  8950  08C5  3000               	movlw	0
  8951  08C6  00AC               	movwf	___fldiv@b^(0+128)
  8952  08C7                     l3797:
  8953  08C7  082B               	movf	(___fldiv@a^(0+128)+3),w
  8954  08C8  3980               	andlw	128
  8955  08C9  1283               	bcf	3,5	;RP0=0, select bank0
  8956  08CA  1303               	bcf	3,6	;RP1=0, select bank0
  8957  08CB  00E9               	movwf	??___fldiv
  8958  08CC  0869               	movf	??___fldiv,w
  8959  08CD  1683               	bsf	3,5	;RP0=1, select bank1
  8960  08CE  1303               	bcf	3,6	;RP1=0, select bank1
  8961  08CF  06B4               	xorwf	___fldiv@sign^(0+128),f
  8962  08D0                     l3799:
  8963  08D0  082B               	movf	(___fldiv@a^(0+128)+3),w
  8964  08D1  1283               	bcf	3,5	;RP0=0, select bank0
  8965  08D2  1303               	bcf	3,6	;RP1=0, select bank0
  8966  08D3  00E9               	movwf	??___fldiv
  8967  08D4  0769               	addwf	??___fldiv,w
  8968  08D5  00EA               	movwf	??___fldiv+1
  8969  08D6  086A               	movf	??___fldiv+1,w
  8970  08D7  1683               	bsf	3,5	;RP0=1, select bank1
  8971  08D8  1303               	bcf	3,6	;RP1=0, select bank1
  8972  08D9  00BC               	movwf	___fldiv@aexp^(0+128)
  8973  08DA                     l3801:
  8974  08DA  1FAA               	btfss	(___fldiv@a^(0+128)+2),7
  8975  08DB  28DD               	goto	u5481
  8976  08DC  28DE               	goto	u5480
  8977  08DD                     u5481:
  8978  08DD  28DF               	goto	l3805
  8979  08DE                     u5480:
  8980  08DE                     l3803:
  8981  08DE  143C               	bsf	___fldiv@aexp^(0+128),0
  8982  08DF                     l3805:
  8983  08DF  083C               	movf	___fldiv@aexp^(0+128),w
  8984  08E0  1903               	btfsc	3,2
  8985  08E1  28E3               	goto	u5491
  8986  08E2  28E4               	goto	u5490
  8987  08E3                     u5491:
  8988  08E3  28F4               	goto	l3815
  8989  08E4                     u5490:
  8990  08E4                     l3807:
  8991  08E4  0A3C               	incf	___fldiv@aexp^(0+128),w
  8992  08E5  1D03               	btfss	3,2
  8993  08E6  28E8               	goto	u5501
  8994  08E7  28E9               	goto	u5500
  8995  08E8                     u5501:
  8996  08E8  28F1               	goto	l3811
  8997  08E9                     u5500:
  8998  08E9                     l3809:
  8999  08E9  3000               	movlw	0
  9000  08EA  00AB               	movwf	(___fldiv@a+3)^(0+128)
  9001  08EB  3000               	movlw	0
  9002  08EC  00AA               	movwf	(___fldiv@a+2)^(0+128)
  9003  08ED  3000               	movlw	0
  9004  08EE  00A9               	movwf	(___fldiv@a+1)^(0+128)
  9005  08EF  3000               	movlw	0
  9006  08F0  00A8               	movwf	___fldiv@a^(0+128)
  9007  08F1                     l3811:
  9008  08F1  17AA               	bsf	(___fldiv@a^(0+128)+2),7
  9009  08F2                     l3813:
  9010  08F2  01AB               	clrf	(___fldiv@a^(0+128)+3)
  9011  08F3  28FC               	goto	l862
  9012  08F4                     l3815:
  9013  08F4  3000               	movlw	0
  9014  08F5  00AB               	movwf	(___fldiv@a+3)^(0+128)
  9015  08F6  3000               	movlw	0
  9016  08F7  00AA               	movwf	(___fldiv@a+2)^(0+128)
  9017  08F8  3000               	movlw	0
  9018  08F9  00A9               	movwf	(___fldiv@a+1)^(0+128)
  9019  08FA  3000               	movlw	0
  9020  08FB  00A8               	movwf	___fldiv@a^(0+128)
  9021  08FC                     l862:
  9022  08FC  082B               	movf	(___fldiv@a+3)^(0+128),w
  9023  08FD  042A               	iorwf	(___fldiv@a+2)^(0+128),w
  9024  08FE  0429               	iorwf	(___fldiv@a+1)^(0+128),w
  9025  08FF  0428               	iorwf	___fldiv@a^(0+128),w
  9026  0900  1D03               	skipz
  9027  0901  2903               	goto	u5511
  9028  0902  2904               	goto	u5510
  9029  0903                     u5511:
  9030  0903  2921               	goto	l3825
  9031  0904                     u5510:
  9032  0904                     l3817:
  9033  0904  3000               	movlw	0
  9034  0905  00AF               	movwf	(___fldiv@b+3)^(0+128)
  9035  0906  3000               	movlw	0
  9036  0907  00AE               	movwf	(___fldiv@b+2)^(0+128)
  9037  0908  3000               	movlw	0
  9038  0909  00AD               	movwf	(___fldiv@b+1)^(0+128)
  9039  090A  3000               	movlw	0
  9040  090B  00AC               	movwf	___fldiv@b^(0+128)
  9041  090C  3080               	movlw	128
  9042  090D  04AE               	iorwf	(___fldiv@b^(0+128)+2),f
  9043  090E  307F               	movlw	127
  9044  090F  04AF               	iorwf	((___fldiv@b+1)^(0+128)+2),f
  9045  0910                     l3819:
  9046  0910  0834               	movf	___fldiv@sign^(0+128),w
  9047  0911  1283               	bcf	3,5	;RP0=0, select bank0
  9048  0912  1303               	bcf	3,6	;RP1=0, select bank0
  9049  0913  00E9               	movwf	??___fldiv
  9050  0914  0869               	movf	??___fldiv,w
  9051  0915  1683               	bsf	3,5	;RP0=1, select bank1
  9052  0916  1303               	bcf	3,6	;RP1=0, select bank1
  9053  0917  04AF               	iorwf	(___fldiv@b^(0+128)+3),f
  9054  0918                     l3821:
  9055  0918  082F               	movf	(___fldiv@b+3)^(0+128),w
  9056  0919  00AB               	movwf	(?___fldiv+3)^(0+128)
  9057  091A  082E               	movf	(___fldiv@b+2)^(0+128),w
  9058  091B  00AA               	movwf	(?___fldiv+2)^(0+128)
  9059  091C  082D               	movf	(___fldiv@b+1)^(0+128),w
  9060  091D  00A9               	movwf	(?___fldiv+1)^(0+128)
  9061  091E  082C               	movf	___fldiv@b^(0+128),w
  9062  091F  00A8               	movwf	?___fldiv^(0+128)
  9063  0920  2AF2               	goto	l864
  9064  0921                     l3825:
  9065  0921  083B               	movf	___fldiv@bexp^(0+128),w
  9066  0922  1D03               	btfss	3,2
  9067  0923  2925               	goto	u5521
  9068  0924  2926               	goto	u5520
  9069  0925                     u5521:
  9070  0925  292F               	goto	l3831
  9071  0926                     u5520:
  9072  0926                     l3827:
  9073  0926  3000               	movlw	0
  9074  0927  00AB               	movwf	(?___fldiv+3)^(0+128)
  9075  0928  3000               	movlw	0
  9076  0929  00AA               	movwf	(?___fldiv+2)^(0+128)
  9077  092A  3000               	movlw	0
  9078  092B  00A9               	movwf	(?___fldiv+1)^(0+128)
  9079  092C  3000               	movlw	0
  9080  092D  00A8               	movwf	?___fldiv^(0+128)
  9081  092E  2AF2               	goto	l864
  9082  092F                     l3831:
  9083  092F  083B               	movf	___fldiv@bexp^(0+128),w
  9084  0930  1283               	bcf	3,5	;RP0=0, select bank0
  9085  0931  1303               	bcf	3,6	;RP1=0, select bank0
  9086  0932  00E9               	movwf	??___fldiv
  9087  0933  01EA               	clrf	??___fldiv+1
  9088  0934  086A               	movf	??___fldiv+1,w
  9089  0935  00EC               	movwf	??___fldiv+3
  9090  0936  1683               	bsf	3,5	;RP0=1, select bank1
  9091  0937  1303               	bcf	3,6	;RP1=0, select bank1
  9092  0938  083C               	movf	___fldiv@aexp^(0+128),w
  9093  0939  1283               	bcf	3,5	;RP0=0, select bank0
  9094  093A  1303               	bcf	3,6	;RP1=0, select bank0
  9095  093B  0269               	subwf	??___fldiv,w
  9096  093C  00EB               	movwf	??___fldiv+2
  9097  093D  1C03               	skipc
  9098  093E  03EC               	decf	??___fldiv+3,f
  9099  093F  086B               	movf	??___fldiv+2,w
  9100  0940  3E7F               	addlw	127
  9101  0941  1683               	bsf	3,5	;RP0=1, select bank1
  9102  0942  1303               	bcf	3,6	;RP1=0, select bank1
  9103  0943  00B5               	movwf	___fldiv@new_exp^(0+128)
  9104  0944  1283               	bcf	3,5	;RP0=0, select bank0
  9105  0945  1303               	bcf	3,6	;RP1=0, select bank0
  9106  0946  086C               	movf	??___fldiv+3,w
  9107  0947  1803               	skipnc
  9108  0948  3E01               	addlw	1
  9109  0949  3E00               	addlw	0
  9110  094A  1683               	bsf	3,5	;RP0=1, select bank1
  9111  094B  1303               	bcf	3,6	;RP1=0, select bank1
  9112  094C  00B6               	movwf	(___fldiv@new_exp+1)^(0+128)
  9113  094D                     l3833:
  9114  094D  082F               	movf	(___fldiv@b+3)^(0+128),w
  9115  094E  00B3               	movwf	(___fldiv@rem+3)^(0+128)
  9116  094F  082E               	movf	(___fldiv@b+2)^(0+128),w
  9117  0950  00B2               	movwf	(___fldiv@rem+2)^(0+128)
  9118  0951  082D               	movf	(___fldiv@b+1)^(0+128),w
  9119  0952  00B1               	movwf	(___fldiv@rem+1)^(0+128)
  9120  0953  082C               	movf	___fldiv@b^(0+128),w
  9121  0954  00B0               	movwf	___fldiv@rem^(0+128)
  9122  0955                     l3835:
  9123  0955  3000               	movlw	0
  9124  0956  00AF               	movwf	(___fldiv@b+3)^(0+128)
  9125  0957  3000               	movlw	0
  9126  0958  00AE               	movwf	(___fldiv@b+2)^(0+128)
  9127  0959  3000               	movlw	0
  9128  095A  00AD               	movwf	(___fldiv@b+1)^(0+128)
  9129  095B  3000               	movlw	0
  9130  095C  00AC               	movwf	___fldiv@b^(0+128)
  9131  095D                     l3837:
  9132  095D  3000               	movlw	0
  9133  095E  00BA               	movwf	(___fldiv@grs+3)^(0+128)
  9134  095F  3000               	movlw	0
  9135  0960  00B9               	movwf	(___fldiv@grs+2)^(0+128)
  9136  0961  3000               	movlw	0
  9137  0962  00B8               	movwf	(___fldiv@grs+1)^(0+128)
  9138  0963  3000               	movlw	0
  9139  0964  00B7               	movwf	___fldiv@grs^(0+128)
  9140  0965                     l3839:
  9141  0965  01BC               	clrf	___fldiv@aexp^(0+128)
  9142  0966  29C9               	goto	l3859
  9143  0967                     l3841:
  9144  0967  083C               	movf	___fldiv@aexp^(0+128),w
  9145  0968  1903               	btfsc	3,2
  9146  0969  296B               	goto	u5531
  9147  096A  296C               	goto	u5530
  9148  096B                     u5531:
  9149  096B  299E               	goto	l3851
  9150  096C                     u5530:
  9151  096C                     l3843:
  9152  096C  3001               	movlw	1
  9153  096D  1283               	bcf	3,5	;RP0=0, select bank0
  9154  096E  1303               	bcf	3,6	;RP1=0, select bank0
  9155  096F  00E9               	movwf	??___fldiv
  9156  0970                     u5545:
  9157  0970  1003               	clrc
  9158  0971  1683               	bsf	3,5	;RP0=1, select bank1
  9159  0972  1303               	bcf	3,6	;RP1=0, select bank1
  9160  0973  0DB0               	rlf	___fldiv@rem^(0+128),f
  9161  0974  0DB1               	rlf	(___fldiv@rem+1)^(0+128),f
  9162  0975  0DB2               	rlf	(___fldiv@rem+2)^(0+128),f
  9163  0976  0DB3               	rlf	(___fldiv@rem+3)^(0+128),f
  9164  0977  1283               	bcf	3,5	;RP0=0, select bank0
  9165  0978  1303               	bcf	3,6	;RP1=0, select bank0
  9166  0979  0BE9               	decfsz	??___fldiv,f
  9167  097A  2970               	goto	u5545
  9168  097B  3001               	movlw	1
  9169  097C  00E9               	movwf	??___fldiv
  9170  097D                     u5555:
  9171  097D  1003               	clrc
  9172  097E  1683               	bsf	3,5	;RP0=1, select bank1
  9173  097F  1303               	bcf	3,6	;RP1=0, select bank1
  9174  0980  0DAC               	rlf	___fldiv@b^(0+128),f
  9175  0981  0DAD               	rlf	(___fldiv@b+1)^(0+128),f
  9176  0982  0DAE               	rlf	(___fldiv@b+2)^(0+128),f
  9177  0983  0DAF               	rlf	(___fldiv@b+3)^(0+128),f
  9178  0984  1283               	bcf	3,5	;RP0=0, select bank0
  9179  0985  1303               	bcf	3,6	;RP1=0, select bank0
  9180  0986  0BE9               	decfsz	??___fldiv,f
  9181  0987  297D               	goto	u5555
  9182  0988                     l3845:
  9183  0988  1683               	bsf	3,5	;RP0=1, select bank1
  9184  0989  1303               	bcf	3,6	;RP1=0, select bank1
  9185  098A  1FBA               	btfss	(___fldiv@grs+3)^(0+128),7
  9186  098B  298D               	goto	u5561
  9187  098C  298E               	goto	u5560
  9188  098D                     u5561:
  9189  098D  298F               	goto	l3849
  9190  098E                     u5560:
  9191  098E                     l3847:
  9192  098E  142C               	bsf	___fldiv@b^(0+128),0
  9193  098F                     l3849:
  9194  098F  3001               	movlw	1
  9195  0990  1283               	bcf	3,5	;RP0=0, select bank0
  9196  0991  1303               	bcf	3,6	;RP1=0, select bank0
  9197  0992  00E9               	movwf	??___fldiv
  9198  0993                     u5575:
  9199  0993  1003               	clrc
  9200  0994  1683               	bsf	3,5	;RP0=1, select bank1
  9201  0995  1303               	bcf	3,6	;RP1=0, select bank1
  9202  0996  0DB7               	rlf	___fldiv@grs^(0+128),f
  9203  0997  0DB8               	rlf	(___fldiv@grs+1)^(0+128),f
  9204  0998  0DB9               	rlf	(___fldiv@grs+2)^(0+128),f
  9205  0999  0DBA               	rlf	(___fldiv@grs+3)^(0+128),f
  9206  099A  1283               	bcf	3,5	;RP0=0, select bank0
  9207  099B  1303               	bcf	3,6	;RP1=0, select bank0
  9208  099C  0BE9               	decfsz	??___fldiv,f
  9209  099D  2993               	goto	u5575
  9210  099E                     l3851:
  9211  099E  1683               	bsf	3,5	;RP0=1, select bank1
  9212  099F  1303               	bcf	3,6	;RP1=0, select bank1
  9213  09A0  082B               	movf	(___fldiv@a+3)^(0+128),w
  9214  09A1  0233               	subwf	(___fldiv@rem+3)^(0+128),w
  9215  09A2  1D03               	skipz
  9216  09A3  29AE               	goto	u5585
  9217  09A4  082A               	movf	(___fldiv@a+2)^(0+128),w
  9218  09A5  0232               	subwf	(___fldiv@rem+2)^(0+128),w
  9219  09A6  1D03               	skipz
  9220  09A7  29AE               	goto	u5585
  9221  09A8  0829               	movf	(___fldiv@a+1)^(0+128),w
  9222  09A9  0231               	subwf	(___fldiv@rem+1)^(0+128),w
  9223  09AA  1D03               	skipz
  9224  09AB  29AE               	goto	u5585
  9225  09AC  0828               	movf	___fldiv@a^(0+128),w
  9226  09AD  0230               	subwf	___fldiv@rem^(0+128),w
  9227  09AE                     u5585:
  9228  09AE  1C03               	skipc
  9229  09AF  29B1               	goto	u5581
  9230  09B0  29B2               	goto	u5580
  9231  09B1                     u5581:
  9232  09B1  29C1               	goto	l3857
  9233  09B2                     u5580:
  9234  09B2                     l3853:
  9235  09B2  173A               	bsf	(___fldiv@grs^(0+128)+3),6
  9236  09B3                     l3855:
  9237  09B3  0828               	movf	___fldiv@a^(0+128),w
  9238  09B4  02B0               	subwf	___fldiv@rem^(0+128),f
  9239  09B5  0829               	movf	(___fldiv@a+1)^(0+128),w
  9240  09B6  1C03               	skipc
  9241  09B7  0F29               	incfsz	(___fldiv@a+1)^(0+128),w
  9242  09B8  02B1               	subwf	(___fldiv@rem+1)^(0+128),f
  9243  09B9  082A               	movf	(___fldiv@a+2)^(0+128),w
  9244  09BA  1C03               	skipc
  9245  09BB  0F2A               	incfsz	(___fldiv@a+2)^(0+128),w
  9246  09BC  02B2               	subwf	(___fldiv@rem+2)^(0+128),f
  9247  09BD  082B               	movf	(___fldiv@a+3)^(0+128),w
  9248  09BE  1C03               	skipc
  9249  09BF  0F2B               	incfsz	(___fldiv@a+3)^(0+128),w
  9250  09C0  02B3               	subwf	(___fldiv@rem+3)^(0+128),f
  9251  09C1                     l3857:
  9252  09C1  3001               	movlw	1
  9253  09C2  1283               	bcf	3,5	;RP0=0, select bank0
  9254  09C3  1303               	bcf	3,6	;RP1=0, select bank0
  9255  09C4  00E9               	movwf	??___fldiv
  9256  09C5  0869               	movf	??___fldiv,w
  9257  09C6  1683               	bsf	3,5	;RP0=1, select bank1
  9258  09C7  1303               	bcf	3,6	;RP1=0, select bank1
  9259  09C8  07BC               	addwf	___fldiv@aexp^(0+128),f
  9260  09C9                     l3859:
  9261  09C9  301A               	movlw	26
  9262  09CA  023C               	subwf	___fldiv@aexp^(0+128),w
  9263  09CB  1C03               	skipc
  9264  09CC  29CE               	goto	u5591
  9265  09CD  29CF               	goto	u5590
  9266  09CE                     u5591:
  9267  09CE  2967               	goto	l3841
  9268  09CF                     u5590:
  9269  09CF                     l3861:
  9270  09CF  0833               	movf	(___fldiv@rem+3)^(0+128),w
  9271  09D0  0432               	iorwf	(___fldiv@rem+2)^(0+128),w
  9272  09D1  0431               	iorwf	(___fldiv@rem+1)^(0+128),w
  9273  09D2  0430               	iorwf	___fldiv@rem^(0+128),w
  9274  09D3  1903               	skipnz
  9275  09D4  29D6               	goto	u5601
  9276  09D5  29D7               	goto	u5600
  9277  09D6                     u5601:
  9278  09D6  2A06               	goto	l3875
  9279  09D7                     u5600:
  9280  09D7                     l3863:
  9281  09D7  1437               	bsf	___fldiv@grs^(0+128),0
  9282  09D8  2A06               	goto	l3875
  9283  09D9                     l3865:
  9284  09D9  3001               	movlw	1
  9285  09DA  1283               	bcf	3,5	;RP0=0, select bank0
  9286  09DB  1303               	bcf	3,6	;RP1=0, select bank0
  9287  09DC  00E9               	movwf	??___fldiv
  9288  09DD                     u5615:
  9289  09DD  1003               	clrc
  9290  09DE  1683               	bsf	3,5	;RP0=1, select bank1
  9291  09DF  1303               	bcf	3,6	;RP1=0, select bank1
  9292  09E0  0DAC               	rlf	___fldiv@b^(0+128),f
  9293  09E1  0DAD               	rlf	(___fldiv@b+1)^(0+128),f
  9294  09E2  0DAE               	rlf	(___fldiv@b+2)^(0+128),f
  9295  09E3  0DAF               	rlf	(___fldiv@b+3)^(0+128),f
  9296  09E4  1283               	bcf	3,5	;RP0=0, select bank0
  9297  09E5  1303               	bcf	3,6	;RP1=0, select bank0
  9298  09E6  0BE9               	decfsz	??___fldiv,f
  9299  09E7  29DD               	goto	u5615
  9300  09E8                     l3867:
  9301  09E8  1683               	bsf	3,5	;RP0=1, select bank1
  9302  09E9  1303               	bcf	3,6	;RP1=0, select bank1
  9303  09EA  1FBA               	btfss	(___fldiv@grs+3)^(0+128),7
  9304  09EB  29ED               	goto	u5621
  9305  09EC  29EE               	goto	u5620
  9306  09ED                     u5621:
  9307  09ED  29EF               	goto	l3871
  9308  09EE                     u5620:
  9309  09EE                     l3869:
  9310  09EE  142C               	bsf	___fldiv@b^(0+128),0
  9311  09EF                     l3871:
  9312  09EF  3001               	movlw	1
  9313  09F0  1283               	bcf	3,5	;RP0=0, select bank0
  9314  09F1  1303               	bcf	3,6	;RP1=0, select bank0
  9315  09F2  00E9               	movwf	??___fldiv
  9316  09F3                     u5635:
  9317  09F3  1003               	clrc
  9318  09F4  1683               	bsf	3,5	;RP0=1, select bank1
  9319  09F5  1303               	bcf	3,6	;RP1=0, select bank1
  9320  09F6  0DB7               	rlf	___fldiv@grs^(0+128),f
  9321  09F7  0DB8               	rlf	(___fldiv@grs+1)^(0+128),f
  9322  09F8  0DB9               	rlf	(___fldiv@grs+2)^(0+128),f
  9323  09F9  0DBA               	rlf	(___fldiv@grs+3)^(0+128),f
  9324  09FA  1283               	bcf	3,5	;RP0=0, select bank0
  9325  09FB  1303               	bcf	3,6	;RP1=0, select bank0
  9326  09FC  0BE9               	decfsz	??___fldiv,f
  9327  09FD  29F3               	goto	u5635
  9328  09FE                     l3873:
  9329  09FE  30FF               	movlw	255
  9330  09FF  1683               	bsf	3,5	;RP0=1, select bank1
  9331  0A00  1303               	bcf	3,6	;RP1=0, select bank1
  9332  0A01  07B5               	addwf	___fldiv@new_exp^(0+128),f
  9333  0A02  1803               	skipnc
  9334  0A03  0AB6               	incf	(___fldiv@new_exp+1)^(0+128),f
  9335  0A04  30FF               	movlw	255
  9336  0A05  07B6               	addwf	(___fldiv@new_exp+1)^(0+128),f
  9337  0A06                     l3875:
  9338  0A06  1FAE               	btfss	(___fldiv@b+2)^(0+128),7
  9339  0A07  2A09               	goto	u5641
  9340  0A08  2A0A               	goto	u5640
  9341  0A09                     u5641:
  9342  0A09  29D9               	goto	l3865
  9343  0A0A                     u5640:
  9344  0A0A                     l3877:
  9345  0A0A  01BC               	clrf	___fldiv@aexp^(0+128)
  9346  0A0B                     l3879:
  9347  0A0B  1FBA               	btfss	(___fldiv@grs+3)^(0+128),7
  9348  0A0C  2A0E               	goto	u5651
  9349  0A0D  2A0F               	goto	u5650
  9350  0A0E                     u5651:
  9351  0A0E  2A3D               	goto	l3887
  9352  0A0F                     u5650:
  9353  0A0F                     l3881:
  9354  0A0F  30FF               	movlw	255
  9355  0A10  0537               	andwf	___fldiv@grs^(0+128),w
  9356  0A11  1283               	bcf	3,5	;RP0=0, select bank0
  9357  0A12  1303               	bcf	3,6	;RP1=0, select bank0
  9358  0A13  00E9               	movwf	??___fldiv
  9359  0A14  30FF               	movlw	255
  9360  0A15  1683               	bsf	3,5	;RP0=1, select bank1
  9361  0A16  1303               	bcf	3,6	;RP1=0, select bank1
  9362  0A17  0538               	andwf	(___fldiv@grs+1)^(0+128),w
  9363  0A18  1283               	bcf	3,5	;RP0=0, select bank0
  9364  0A19  1303               	bcf	3,6	;RP1=0, select bank0
  9365  0A1A  00EA               	movwf	??___fldiv+1
  9366  0A1B  30FF               	movlw	255
  9367  0A1C  1683               	bsf	3,5	;RP0=1, select bank1
  9368  0A1D  1303               	bcf	3,6	;RP1=0, select bank1
  9369  0A1E  0539               	andwf	(___fldiv@grs+2)^(0+128),w
  9370  0A1F  1283               	bcf	3,5	;RP0=0, select bank0
  9371  0A20  1303               	bcf	3,6	;RP1=0, select bank0
  9372  0A21  00EB               	movwf	??___fldiv+2
  9373  0A22  307F               	movlw	127
  9374  0A23  1683               	bsf	3,5	;RP0=1, select bank1
  9375  0A24  1303               	bcf	3,6	;RP1=0, select bank1
  9376  0A25  053A               	andwf	(___fldiv@grs+3)^(0+128),w
  9377  0A26  1283               	bcf	3,5	;RP0=0, select bank0
  9378  0A27  1303               	bcf	3,6	;RP1=0, select bank0
  9379  0A28  00EC               	movwf	??___fldiv+3
  9380  0A29  086C               	movf	??___fldiv+3,w
  9381  0A2A  046B               	iorwf	??___fldiv+2,w
  9382  0A2B  046A               	iorwf	??___fldiv+1,w
  9383  0A2C  0469               	iorwf	??___fldiv,w
  9384  0A2D  1903               	skipnz
  9385  0A2E  2A30               	goto	u5661
  9386  0A2F  2A31               	goto	u5660
  9387  0A30                     u5661:
  9388  0A30  2A36               	goto	l878
  9389  0A31                     u5660:
  9390  0A31                     l3883:
  9391  0A31  1683               	bsf	3,5	;RP0=1, select bank1
  9392  0A32  1303               	bcf	3,6	;RP1=0, select bank1
  9393  0A33  01BC               	clrf	___fldiv@aexp^(0+128)
  9394  0A34  0ABC               	incf	___fldiv@aexp^(0+128),f
  9395  0A35  2A3D               	goto	l3887
  9396  0A36                     l878:
  9397  0A36  1683               	bsf	3,5	;RP0=1, select bank1
  9398  0A37  1303               	bcf	3,6	;RP1=0, select bank1
  9399  0A38  1C2C               	btfss	___fldiv@b^(0+128),0
  9400  0A39  2A3B               	goto	u5671
  9401  0A3A  2A3C               	goto	u5670
  9402  0A3B                     u5671:
  9403  0A3B  2A3D               	goto	l3887
  9404  0A3C                     u5670:
  9405  0A3C  2A31               	goto	l3883
  9406  0A3D                     l3887:
  9407  0A3D  083C               	movf	___fldiv@aexp^(0+128),w
  9408  0A3E  1903               	btfsc	3,2
  9409  0A3F  2A41               	goto	u5681
  9410  0A40  2A42               	goto	u5680
  9411  0A41                     u5681:
  9412  0A41  2A8F               	goto	l3897
  9413  0A42                     u5680:
  9414  0A42                     l3889:
  9415  0A42  3001               	movlw	1
  9416  0A43  07AC               	addwf	___fldiv@b^(0+128),f
  9417  0A44  3000               	movlw	0
  9418  0A45  1803               	skipnc
  9419  0A46  3001               	movlw	1
  9420  0A47  07AD               	addwf	(___fldiv@b+1)^(0+128),f
  9421  0A48  3000               	movlw	0
  9422  0A49  1803               	skipnc
  9423  0A4A  3001               	movlw	1
  9424  0A4B  07AE               	addwf	(___fldiv@b+2)^(0+128),f
  9425  0A4C  3000               	movlw	0
  9426  0A4D  1803               	skipnc
  9427  0A4E  3001               	movlw	1
  9428  0A4F  07AF               	addwf	(___fldiv@b+3)^(0+128),f
  9429  0A50                     l3891:
  9430  0A50  1C2F               	btfss	(___fldiv@b+3)^(0+128),0
  9431  0A51  2A53               	goto	u5691
  9432  0A52  2A54               	goto	u5690
  9433  0A53                     u5691:
  9434  0A53  2A8F               	goto	l3897
  9435  0A54                     u5690:
  9436  0A54                     l3893:
  9437  0A54  082C               	movf	___fldiv@b^(0+128),w
  9438  0A55  1283               	bcf	3,5	;RP0=0, select bank0
  9439  0A56  1303               	bcf	3,6	;RP1=0, select bank0
  9440  0A57  00E9               	movwf	??___fldiv
  9441  0A58  1683               	bsf	3,5	;RP0=1, select bank1
  9442  0A59  1303               	bcf	3,6	;RP1=0, select bank1
  9443  0A5A  082D               	movf	(___fldiv@b+1)^(0+128),w
  9444  0A5B  1283               	bcf	3,5	;RP0=0, select bank0
  9445  0A5C  1303               	bcf	3,6	;RP1=0, select bank0
  9446  0A5D  00EA               	movwf	??___fldiv+1
  9447  0A5E  1683               	bsf	3,5	;RP0=1, select bank1
  9448  0A5F  1303               	bcf	3,6	;RP1=0, select bank1
  9449  0A60  082E               	movf	(___fldiv@b+2)^(0+128),w
  9450  0A61  1283               	bcf	3,5	;RP0=0, select bank0
  9451  0A62  1303               	bcf	3,6	;RP1=0, select bank0
  9452  0A63  00EB               	movwf	??___fldiv+2
  9453  0A64  1683               	bsf	3,5	;RP0=1, select bank1
  9454  0A65  1303               	bcf	3,6	;RP1=0, select bank1
  9455  0A66  082F               	movf	(___fldiv@b+3)^(0+128),w
  9456  0A67  1283               	bcf	3,5	;RP0=0, select bank0
  9457  0A68  1303               	bcf	3,6	;RP1=0, select bank0
  9458  0A69  00EC               	movwf	??___fldiv+3
  9459  0A6A  3001               	movlw	1
  9460  0A6B  00ED               	movwf	??___fldiv+4
  9461  0A6C                     u5705:
  9462  0A6C  0D6C               	rlf	??___fldiv+3,w
  9463  0A6D  0CEC               	rrf	??___fldiv+3,f
  9464  0A6E  0CEB               	rrf	??___fldiv+2,f
  9465  0A6F  0CEA               	rrf	??___fldiv+1,f
  9466  0A70  0CE9               	rrf	??___fldiv,f
  9467  0A71                     u5700:
  9468  0A71  0BED               	decfsz	??___fldiv+4,f
  9469  0A72  2A6C               	goto	u5705
  9470  0A73  086C               	movf	??___fldiv+3,w
  9471  0A74  1683               	bsf	3,5	;RP0=1, select bank1
  9472  0A75  1303               	bcf	3,6	;RP1=0, select bank1
  9473  0A76  00AF               	movwf	(___fldiv@b+3)^(0+128)
  9474  0A77  1283               	bcf	3,5	;RP0=0, select bank0
  9475  0A78  1303               	bcf	3,6	;RP1=0, select bank0
  9476  0A79  086B               	movf	??___fldiv+2,w
  9477  0A7A  1683               	bsf	3,5	;RP0=1, select bank1
  9478  0A7B  1303               	bcf	3,6	;RP1=0, select bank1
  9479  0A7C  00AE               	movwf	(___fldiv@b+2)^(0+128)
  9480  0A7D  1283               	bcf	3,5	;RP0=0, select bank0
  9481  0A7E  1303               	bcf	3,6	;RP1=0, select bank0
  9482  0A7F  086A               	movf	??___fldiv+1,w
  9483  0A80  1683               	bsf	3,5	;RP0=1, select bank1
  9484  0A81  1303               	bcf	3,6	;RP1=0, select bank1
  9485  0A82  00AD               	movwf	(___fldiv@b+1)^(0+128)
  9486  0A83  1283               	bcf	3,5	;RP0=0, select bank0
  9487  0A84  1303               	bcf	3,6	;RP1=0, select bank0
  9488  0A85  0869               	movf	??___fldiv,w
  9489  0A86  1683               	bsf	3,5	;RP0=1, select bank1
  9490  0A87  1303               	bcf	3,6	;RP1=0, select bank1
  9491  0A88  00AC               	movwf	___fldiv@b^(0+128)
  9492  0A89                     l3895:
  9493  0A89  3001               	movlw	1
  9494  0A8A  07B5               	addwf	___fldiv@new_exp^(0+128),f
  9495  0A8B  1803               	skipnc
  9496  0A8C  0AB6               	incf	(___fldiv@new_exp+1)^(0+128),f
  9497  0A8D  3000               	movlw	0
  9498  0A8E  07B6               	addwf	(___fldiv@new_exp+1)^(0+128),f
  9499  0A8F                     l3897:
  9500  0A8F  0836               	movf	(___fldiv@new_exp+1)^(0+128),w
  9501  0A90  3A80               	xorlw	128
  9502  0A91  00FF               	movwf	btemp+1
  9503  0A92  3080               	movlw	128
  9504  0A93  027F               	subwf	btemp+1,w
  9505  0A94  1D03               	skipz
  9506  0A95  2A98               	goto	u5715
  9507  0A96  30FF               	movlw	255
  9508  0A97  0235               	subwf	___fldiv@new_exp^(0+128),w
  9509  0A98                     u5715:
  9510  0A98  1C03               	skipc
  9511  0A99  2A9B               	goto	u5711
  9512  0A9A  2A9C               	goto	u5710
  9513  0A9B                     u5711:
  9514  0A9B  2AAA               	goto	l3901
  9515  0A9C                     u5710:
  9516  0A9C                     l3899:
  9517  0A9C  30FF               	movlw	255
  9518  0A9D  1683               	bsf	3,5	;RP0=1, select bank1
  9519  0A9E  1303               	bcf	3,6	;RP1=0, select bank1
  9520  0A9F  00B5               	movwf	___fldiv@new_exp^(0+128)
  9521  0AA0  3000               	movlw	0
  9522  0AA1  00B6               	movwf	(___fldiv@new_exp^(0+128)+1)
  9523  0AA2  3000               	movlw	0
  9524  0AA3  00AF               	movwf	(___fldiv@b+3)^(0+128)
  9525  0AA4  3000               	movlw	0
  9526  0AA5  00AE               	movwf	(___fldiv@b+2)^(0+128)
  9527  0AA6  3000               	movlw	0
  9528  0AA7  00AD               	movwf	(___fldiv@b+1)^(0+128)
  9529  0AA8  3000               	movlw	0
  9530  0AA9  00AC               	movwf	___fldiv@b^(0+128)
  9531  0AAA                     l3901:
  9532  0AAA  1683               	bsf	3,5	;RP0=1, select bank1
  9533  0AAB  1303               	bcf	3,6	;RP1=0, select bank1
  9534  0AAC  0836               	movf	(___fldiv@new_exp+1)^(0+128),w
  9535  0AAD  3A80               	xorlw	128
  9536  0AAE  00FF               	movwf	btemp+1
  9537  0AAF  3080               	movlw	128
  9538  0AB0  027F               	subwf	btemp+1,w
  9539  0AB1  1D03               	skipz
  9540  0AB2  2AB5               	goto	u5725
  9541  0AB3  3001               	movlw	1
  9542  0AB4  0235               	subwf	___fldiv@new_exp^(0+128),w
  9543  0AB5                     u5725:
  9544  0AB5  1803               	skipnc
  9545  0AB6  2AB8               	goto	u5721
  9546  0AB7  2AB9               	goto	u5720
  9547  0AB8                     u5721:
  9548  0AB8  2AC6               	goto	l884
  9549  0AB9                     u5720:
  9550  0AB9                     l3903:
  9551  0AB9  1683               	bsf	3,5	;RP0=1, select bank1
  9552  0ABA  1303               	bcf	3,6	;RP1=0, select bank1
  9553  0ABB  01B5               	clrf	___fldiv@new_exp^(0+128)
  9554  0ABC  01B6               	clrf	(___fldiv@new_exp+1)^(0+128)
  9555  0ABD                     l3905:
  9556  0ABD  3000               	movlw	0
  9557  0ABE  00AF               	movwf	(___fldiv@b+3)^(0+128)
  9558  0ABF  3000               	movlw	0
  9559  0AC0  00AE               	movwf	(___fldiv@b+2)^(0+128)
  9560  0AC1  3000               	movlw	0
  9561  0AC2  00AD               	movwf	(___fldiv@b+1)^(0+128)
  9562  0AC3  3000               	movlw	0
  9563  0AC4  00AC               	movwf	___fldiv@b^(0+128)
  9564  0AC5                     l3907:
  9565  0AC5  01B4               	clrf	___fldiv@sign^(0+128)
  9566  0AC6                     l884:
  9567  0AC6  1683               	bsf	3,5	;RP0=1, select bank1
  9568  0AC7  1303               	bcf	3,6	;RP1=0, select bank1
  9569  0AC8  0835               	movf	___fldiv@new_exp^(0+128),w
  9570  0AC9  1283               	bcf	3,5	;RP0=0, select bank0
  9571  0ACA  1303               	bcf	3,6	;RP1=0, select bank0
  9572  0ACB  00E9               	movwf	??___fldiv
  9573  0ACC  0869               	movf	??___fldiv,w
  9574  0ACD  1683               	bsf	3,5	;RP0=1, select bank1
  9575  0ACE  1303               	bcf	3,6	;RP1=0, select bank1
  9576  0ACF  00BB               	movwf	___fldiv@bexp^(0+128)
  9577  0AD0                     l3909:
  9578  0AD0  1C3B               	btfss	___fldiv@bexp^(0+128),0
  9579  0AD1  2AD3               	goto	u5731
  9580  0AD2  2AD4               	goto	u5730
  9581  0AD3                     u5731:
  9582  0AD3  2AD6               	goto	l3913
  9583  0AD4                     u5730:
  9584  0AD4                     l3911:
  9585  0AD4  17AE               	bsf	(___fldiv@b^(0+128)+2),7
  9586  0AD5  2ADE               	goto	l886
  9587  0AD6                     l3913:
  9588  0AD6  307F               	movlw	127
  9589  0AD7  1283               	bcf	3,5	;RP0=0, select bank0
  9590  0AD8  1303               	bcf	3,6	;RP1=0, select bank0
  9591  0AD9  00E9               	movwf	??___fldiv
  9592  0ADA  0869               	movf	??___fldiv,w
  9593  0ADB  1683               	bsf	3,5	;RP0=1, select bank1
  9594  0ADC  1303               	bcf	3,6	;RP1=0, select bank1
  9595  0ADD  05AE               	andwf	(___fldiv@b^(0+128)+2),f
  9596  0ADE                     l886:
  9597  0ADE  083B               	movf	___fldiv@bexp^(0+128),w
  9598  0ADF  1283               	bcf	3,5	;RP0=0, select bank0
  9599  0AE0  1303               	bcf	3,6	;RP1=0, select bank0
  9600  0AE1  00E9               	movwf	??___fldiv
  9601  0AE2  1003               	clrc
  9602  0AE3  0C69               	rrf	??___fldiv,w
  9603  0AE4  00EA               	movwf	??___fldiv+1
  9604  0AE5  086A               	movf	??___fldiv+1,w
  9605  0AE6  1683               	bsf	3,5	;RP0=1, select bank1
  9606  0AE7  1303               	bcf	3,6	;RP1=0, select bank1
  9607  0AE8  00AF               	movwf	(___fldiv@b^(0+128)+3)
  9608  0AE9  0834               	movf	___fldiv@sign^(0+128),w
  9609  0AEA  1283               	bcf	3,5	;RP0=0, select bank0
  9610  0AEB  1303               	bcf	3,6	;RP1=0, select bank0
  9611  0AEC  00E9               	movwf	??___fldiv
  9612  0AED  0869               	movf	??___fldiv,w
  9613  0AEE  1683               	bsf	3,5	;RP0=1, select bank1
  9614  0AEF  1303               	bcf	3,6	;RP1=0, select bank1
  9615  0AF0  04AF               	iorwf	(___fldiv@b^(0+128)+3),f
  9616  0AF1  2918               	goto	l3821
  9617  0AF2                     l864:
  9618  0AF2  0008               	return
  9619  0AF3                     __end_of___fldiv:
  9620                           
  9621                           	psect	text27
  9622  1A4D                     __ptext27:	
  9623 ;; *************** function _ManageCooler *****************
  9624 ;; Defined at:
  9625 ;;		line 429 in file "main.c"
  9626 ;; Parameters:    Size  Location     Type
  9627 ;;  duty            1    wreg     unsigned char 
  9628 ;; Auto vars:     Size  Location     Type
  9629 ;;  duty            1    4[COMMON] unsigned char 
  9630 ;; Return value:  Size  Location     Type
  9631 ;;                  1    wreg      void 
  9632 ;; Registers used:
  9633 ;;		wreg, status,2, status,0
  9634 ;; Tracked objects:
  9635 ;;		On entry : 0/0
  9636 ;;		On exit  : 0/0
  9637 ;;		Unchanged: 0/0
  9638 ;; Data sizes:     COMMON   BANK0   BANK1   BANK3   BANK2
  9639 ;;      Params:         0       0       0       0       0
  9640 ;;      Locals:         1       0       0       0       0
  9641 ;;      Temps:          1       0       0       0       0
  9642 ;;      Totals:         2       0       0       0       0
  9643 ;;Total ram usage:        2 bytes
  9644 ;; Hardware stack levels used: 1
  9645 ;; Hardware stack levels required when called: 1
  9646 ;; This function calls:
  9647 ;;		Nothing
  9648 ;; This function is called by:
  9649 ;;		_main
  9650 ;; This function uses a non-reentrant model
  9651 ;;
  9652                           
  9653                           
  9654                           ;psect for function _ManageCooler
  9655  1A4D                     _ManageCooler:
  9656                           
  9657                           ;incstack = 0
  9658                           ; Regs used in _ManageCooler: [wreg+status,2+status,0]
  9659                           ;ManageCooler@duty stored from wreg
  9660  1A4D  00F4               	movwf	ManageCooler@duty
  9661  1A4E                     l3543:
  9662                           
  9663                           ;main.c: 429: void ManageCooler(char duty);main.c: 430: {;main.c: 431:     if(dutyCounte
      +                          r<duty)
  9664  1A4E  0874               	movf	ManageCooler@duty,w
  9665  1A4F  1683               	bsf	3,5	;RP0=1, select bank1
  9666  1A50  1303               	bcf	3,6	;RP1=0, select bank1
  9667  1A51  025C               	subwf	_dutyCounter^(0+128),w
  9668  1A52  1803               	skipnc
  9669  1A53  2A55               	goto	u4991
  9670  1A54  2A56               	goto	u4990
  9671  1A55                     u4991:
  9672  1A55  2A5A               	goto	l3547
  9673  1A56                     u4990:
  9674  1A56                     l3545:
  9675                           
  9676                           ;main.c: 432:     {;main.c: 433:         PORTC |= 1<<2;
  9677  1A56  1283               	bcf	3,5	;RP0=0, select bank0
  9678  1A57  1303               	bcf	3,6	;RP1=0, select bank0
  9679  1A58  1507               	bsf	7,2	;volatile
  9680                           
  9681                           ;main.c: 434:     }
  9682  1A59  2A60               	goto	l287
  9683  1A5A                     l3547:
  9684                           
  9685                           ;main.c: 436:     {;main.c: 437:         PORTC &= ~(1<<2);
  9686  1A5A  30FB               	movlw	251
  9687  1A5B  00F3               	movwf	??_ManageCooler
  9688  1A5C  0873               	movf	??_ManageCooler,w
  9689  1A5D  1283               	bcf	3,5	;RP0=0, select bank0
  9690  1A5E  1303               	bcf	3,6	;RP1=0, select bank0
  9691  1A5F  0587               	andwf	7,f	;volatile
  9692  1A60                     l287:
  9693  1A60  0008               	return
  9694  1A61                     __end_of_ManageCooler:
  9695                           
  9696                           	psect	text28
  9697  1A39                     __ptext28:	
  9698 ;; *************** function _InitPic *****************
  9699 ;; Defined at:
  9700 ;;		line 406 in file "main.c"
  9701 ;; Parameters:    Size  Location     Type
  9702 ;;		None
  9703 ;; Auto vars:     Size  Location     Type
  9704 ;;		None
  9705 ;; Return value:  Size  Location     Type
  9706 ;;                  1    wreg      void 
  9707 ;; Registers used:
  9708 ;;		wreg, status,2, status,0
  9709 ;; Tracked objects:
  9710 ;;		On entry : 0/0
  9711 ;;		On exit  : 0/0
  9712 ;;		Unchanged: 0/0
  9713 ;; Data sizes:     COMMON   BANK0   BANK1   BANK3   BANK2
  9714 ;;      Params:         0       0       0       0       0
  9715 ;;      Locals:         0       0       0       0       0
  9716 ;;      Temps:          1       0       0       0       0
  9717 ;;      Totals:         1       0       0       0       0
  9718 ;;Total ram usage:        1 bytes
  9719 ;; Hardware stack levels used: 1
  9720 ;; Hardware stack levels required when called: 1
  9721 ;; This function calls:
  9722 ;;		Nothing
  9723 ;; This function is called by:
  9724 ;;		_main
  9725 ;; This function uses a non-reentrant model
  9726 ;;
  9727                           
  9728                           
  9729                           ;psect for function _InitPic
  9730  1A39                     _InitPic:
  9731  1A39                     l3343:	
  9732                           ;incstack = 0
  9733                           ; Regs used in _InitPic: [wreg+status,2+status,0]
  9734                           
  9735                           
  9736                           ;main.c: 408:     TRISE = 0x00;
  9737  1A39  1683               	bsf	3,5	;RP0=1, select bank1
  9738  1A3A  1303               	bcf	3,6	;RP1=0, select bank1
  9739  1A3B  0189               	clrf	9	;volatile
  9740                           
  9741                           ;main.c: 409:     TRISD = 0x00;
  9742  1A3C  0188               	clrf	8	;volatile
  9743                           
  9744                           ;main.c: 410:     PORTD = 0x00;
  9745  1A3D  1283               	bcf	3,5	;RP0=0, select bank0
  9746  1A3E  1303               	bcf	3,6	;RP1=0, select bank0
  9747  1A3F  0188               	clrf	8	;volatile
  9748  1A40                     l3345:
  9749                           
  9750                           ;main.c: 411:     INTCON |= 0xA0;
  9751  1A40  30A0               	movlw	160
  9752  1A41  00F3               	movwf	??_InitPic
  9753  1A42  0873               	movf	??_InitPic,w
  9754  1A43  048B               	iorwf	11,f	;volatile
  9755  1A44                     l3347:
  9756                           
  9757                           ;main.c: 412:     OPTION_REG = 0x02;
  9758  1A44  3002               	movlw	2
  9759  1A45  1683               	bsf	3,5	;RP0=1, select bank1
  9760  1A46  1303               	bcf	3,6	;RP1=0, select bank1
  9761  1A47  0081               	movwf	1	;volatile
  9762  1A48                     l3349:
  9763                           
  9764                           ;main.c: 413:     TMR0 = 6;
  9765  1A48  3006               	movlw	6
  9766  1A49  1283               	bcf	3,5	;RP0=0, select bank0
  9767  1A4A  1303               	bcf	3,6	;RP1=0, select bank0
  9768  1A4B  0081               	movwf	1	;volatile
  9769  1A4C                     l277:
  9770  1A4C  0008               	return
  9771  1A4D                     __end_of_InitPic:
  9772                           
  9773                           	psect	text29
  9774  1DEC                     __ptext29:	
  9775 ;; *************** function _InitLCD *****************
  9776 ;; Defined at:
  9777 ;;		line 388 in file "main.c"
  9778 ;; Parameters:    Size  Location     Type
  9779 ;;		None
  9780 ;; Auto vars:     Size  Location     Type
  9781 ;;		None
  9782 ;; Return value:  Size  Location     Type
  9783 ;;                  1    wreg      void 
  9784 ;; Registers used:
  9785 ;;		wreg, status,2, status,0, pclath, cstack
  9786 ;; Tracked objects:
  9787 ;;		On entry : 0/0
  9788 ;;		On exit  : 0/0
  9789 ;;		Unchanged: 0/0
  9790 ;; Data sizes:     COMMON   BANK0   BANK1   BANK3   BANK2
  9791 ;;      Params:         0       0       0       0       0
  9792 ;;      Locals:         0       0       0       0       0
  9793 ;;      Temps:          0       2       0       0       0
  9794 ;;      Totals:         0       2       0       0       0
  9795 ;;Total ram usage:        2 bytes
  9796 ;; Hardware stack levels used: 1
  9797 ;; Hardware stack levels required when called: 2
  9798 ;; This function calls:
  9799 ;;		_SendLCD
  9800 ;; This function is called by:
  9801 ;;		_main
  9802 ;; This function uses a non-reentrant model
  9803 ;;
  9804                           
  9805                           
  9806                           ;psect for function _InitLCD
  9807  1DEC                     _InitLCD:
  9808  1DEC                     l4223:	
  9809                           ;incstack = 0
  9810                           ; Regs used in _InitLCD: [wreg+status,2+status,0+pclath+cstack]
  9811                           
  9812                           
  9813                           ;main.c: 390:     PORTE = PORTE & 0x02;
  9814  1DEC  1283               	bcf	3,5	;RP0=0, select bank0
  9815  1DED  1303               	bcf	3,6	;RP1=0, select bank0
  9816  1DEE  0809               	movf	9,w	;volatile
  9817  1DEF  3902               	andlw	2
  9818  1DF0  0089               	movwf	9	;volatile
  9819                           
  9820                           ;main.c: 391:     PORTE = PORTE & 0x04;
  9821  1DF1  0809               	movf	9,w	;volatile
  9822  1DF2  3904               	andlw	4
  9823  1DF3  0089               	movwf	9	;volatile
  9824  1DF4                     l4225:
  9825                           
  9826                           ;main.c: 392:     _delay((unsigned long)((20)*(8000000/4000.0)));
  9827  1DF4  3034               	movlw	52
  9828  1DF5  1283               	bcf	3,5	;RP0=0, select bank0
  9829  1DF6  1303               	bcf	3,6	;RP1=0, select bank0
  9830  1DF7  00A1               	movwf	??_InitLCD+1
  9831  1DF8  30F1               	movlw	241
  9832  1DF9  00A0               	movwf	??_InitLCD
  9833  1DFA                     u6587:
  9834  1DFA  0BA0               	decfsz	??_InitLCD,f
  9835  1DFB  2DFA               	goto	u6587
  9836  1DFC  0BA1               	decfsz	??_InitLCD+1,f
  9837  1DFD  2DFA               	goto	u6587
  9838  1DFE                     l4227:
  9839                           
  9840                           ;main.c: 393:     PORTE = PORTE | 0x02;
  9841  1DFE  1283               	bcf	3,5	;RP0=0, select bank0
  9842  1DFF  1303               	bcf	3,6	;RP1=0, select bank0
  9843  1E00  0809               	movf	9,w	;volatile
  9844  1E01  3802               	iorlw	2
  9845  1E02  0089               	movwf	9	;volatile
  9846  1E03                     l4229:
  9847                           
  9848                           ;main.c: 394:     SendLCD(0x38, 0x00);
  9849  1E03  01F3               	clrf	SendLCD@type
  9850  1E04  3038               	movlw	56
  9851  1E05  160A  158A  2307  160A  158A  	fcall	_SendLCD
  9852  1E0A                     l4231:
  9853                           
  9854                           ;main.c: 395:     _delay((unsigned long)((5)*(8000000/4000.0)));
  9855  1E0A  300D               	movlw	13
  9856  1E0B  1283               	bcf	3,5	;RP0=0, select bank0
  9857  1E0C  1303               	bcf	3,6	;RP1=0, select bank0
  9858  1E0D  00A1               	movwf	??_InitLCD+1
  9859  1E0E  30FB               	movlw	251
  9860  1E0F  00A0               	movwf	??_InitLCD
  9861  1E10                     u6597:
  9862  1E10  0BA0               	decfsz	??_InitLCD,f
  9863  1E11  2E10               	goto	u6597
  9864  1E12  0BA1               	decfsz	??_InitLCD+1,f
  9865  1E13  2E10               	goto	u6597
  9866                           
  9867                           ;main.c: 396:     SendLCD(0x38, 0x00);
  9868  1E14  01F3               	clrf	SendLCD@type
  9869  1E15  3038               	movlw	56
  9870  1E16  160A  158A  2307  160A  158A  	fcall	_SendLCD
  9871  1E1B                     l4233:
  9872                           
  9873                           ;main.c: 397:     _delay((unsigned long)((1)*(8000000/4000.0)));
  9874  1E1B  3003               	movlw	3
  9875  1E1C  1283               	bcf	3,5	;RP0=0, select bank0
  9876  1E1D  1303               	bcf	3,6	;RP1=0, select bank0
  9877  1E1E  00A1               	movwf	??_InitLCD+1
  9878  1E1F  3097               	movlw	151
  9879  1E20  00A0               	movwf	??_InitLCD
  9880  1E21                     u6607:
  9881  1E21  0BA0               	decfsz	??_InitLCD,f
  9882  1E22  2E21               	goto	u6607
  9883  1E23  0BA1               	decfsz	??_InitLCD+1,f
  9884  1E24  2E21               	goto	u6607
  9885  1E25                     l4235:
  9886                           
  9887                           ;main.c: 398:     SendLCD(0x38, 0x00);
  9888  1E25  01F3               	clrf	SendLCD@type
  9889  1E26  3038               	movlw	56
  9890  1E27  160A  158A  2307  160A  158A  	fcall	_SendLCD
  9891  1E2C                     l4237:
  9892                           
  9893                           ;main.c: 399:     SendLCD(0x0F, 0x00);
  9894  1E2C  01F3               	clrf	SendLCD@type
  9895  1E2D  300F               	movlw	15
  9896  1E2E  160A  158A  2307  160A  158A  	fcall	_SendLCD
  9897  1E33                     l4239:
  9898                           
  9899                           ;main.c: 400:     SendLCD(0x01, 0x00);
  9900  1E33  01F3               	clrf	SendLCD@type
  9901  1E34  3001               	movlw	1
  9902  1E35  160A  158A  2307  160A  158A  	fcall	_SendLCD
  9903  1E3A                     l4241:
  9904                           
  9905                           ;main.c: 401:     SendLCD(0x0E, 0x00);
  9906  1E3A  01F3               	clrf	SendLCD@type
  9907  1E3B  300E               	movlw	14
  9908  1E3C  160A  158A  2307  160A  158A  	fcall	_SendLCD
  9909  1E41                     l4243:
  9910                           
  9911                           ;main.c: 402:     SendLCD(0x80, 0x00);
  9912  1E41  01F3               	clrf	SendLCD@type
  9913  1E42  3080               	movlw	128
  9914  1E43  160A  158A  2307  160A  158A  	fcall	_SendLCD
  9915  1E48                     l4245:
  9916                           
  9917                           ;main.c: 403:     SendLCD(0x0C, 0x00);
  9918  1E48  01F3               	clrf	SendLCD@type
  9919  1E49  300C               	movlw	12
  9920  1E4A  160A  158A  2307  160A  158A  	fcall	_SendLCD
  9921  1E4F                     l274:
  9922  1E4F  0008               	return
  9923  1E50                     __end_of_InitLCD:
  9924                           
  9925                           	psect	text30
  9926  1B07                     __ptext30:	
  9927 ;; *************** function _SendLCD *****************
  9928 ;; Defined at:
  9929 ;;		line 509 in file "main.c"
  9930 ;; Parameters:    Size  Location     Type
  9931 ;;  data            1    wreg     unsigned char 
  9932 ;;  type            1    3[COMMON] unsigned char 
  9933 ;; Auto vars:     Size  Location     Type
  9934 ;;  data            1    6[COMMON] unsigned char 
  9935 ;; Return value:  Size  Location     Type
  9936 ;;                  1    wreg      void 
  9937 ;; Registers used:
  9938 ;;		wreg, status,2, status,0
  9939 ;; Tracked objects:
  9940 ;;		On entry : 0/0
  9941 ;;		On exit  : 0/0
  9942 ;;		Unchanged: 0/0
  9943 ;; Data sizes:     COMMON   BANK0   BANK1   BANK3   BANK2
  9944 ;;      Params:         1       0       0       0       0
  9945 ;;      Locals:         1       0       0       0       0
  9946 ;;      Temps:          2       0       0       0       0
  9947 ;;      Totals:         4       0       0       0       0
  9948 ;;Total ram usage:        4 bytes
  9949 ;; Hardware stack levels used: 1
  9950 ;; Hardware stack levels required when called: 1
  9951 ;; This function calls:
  9952 ;;		Nothing
  9953 ;; This function is called by:
  9954 ;;		_InitLCD
  9955 ;;		_ManageDisplays
  9956 ;;		_SendLCDString
  9957 ;;		_UpdateLCDViewWithNumber
  9958 ;; This function uses a non-reentrant model
  9959 ;;
  9960                           
  9961                           
  9962                           ;psect for function _SendLCD
  9963  1B07                     _SendLCD:
  9964                           
  9965                           ;incstack = 0
  9966                           ; Regs used in _SendLCD: [wreg+status,2+status,0]
  9967                           ;SendLCD@data stored from wreg
  9968  1B07  00F6               	movwf	SendLCD@data
  9969  1B08                     l3667:
  9970                           
  9971                           ;main.c: 509: void SendLCD(char data,char type);main.c: 510: {;main.c: 511:     TRISD = 
      +                          0x00;
  9972  1B08  1683               	bsf	3,5	;RP0=1, select bank1
  9973  1B09  1303               	bcf	3,6	;RP1=0, select bank1
  9974  1B0A  0188               	clrf	8	;volatile
  9975                           
  9976                           ;main.c: 512:     TRISE = 0x00;
  9977  1B0B  0189               	clrf	9	;volatile
  9978  1B0C                     l3669:
  9979                           
  9980                           ;main.c: 513:     PORTE |= 0x02;
  9981  1B0C  1283               	bcf	3,5	;RP0=0, select bank0
  9982  1B0D  1303               	bcf	3,6	;RP1=0, select bank0
  9983  1B0E  1489               	bsf	9,1	;volatile
  9984  1B0F                     l3671:
  9985                           
  9986                           ;main.c: 514:     PORTD = data;
  9987  1B0F  0876               	movf	SendLCD@data,w
  9988  1B10  0088               	movwf	8	;volatile
  9989  1B11                     l3673:
  9990                           
  9991                           ;main.c: 515:     if(type) PORTE |= 0x04;
  9992  1B11  0873               	movf	SendLCD@type,w
  9993  1B12  1903               	btfsc	3,2
  9994  1B13  2B15               	goto	u5211
  9995  1B14  2B16               	goto	u5210
  9996  1B15                     u5211:
  9997  1B15  2B18               	goto	l3677
  9998  1B16                     u5210:
  9999  1B16                     l3675:
 10000  1B16  1509               	bsf	9,2	;volatile
 10001  1B17  2B1C               	goto	l3679
 10002  1B18                     l3677:
 10003  1B18  30FB               	movlw	251
 10004  1B19  00F4               	movwf	??_SendLCD
 10005  1B1A  0874               	movf	??_SendLCD,w
 10006  1B1B  0589               	andwf	9,f	;volatile
 10007  1B1C                     l3679:
 10008                           
 10009                           ;main.c: 517:     _delay((unsigned long)((3)*(8000000/4000.0)));
 10010  1B1C  3008               	movlw	8
 10011  1B1D  00F5               	movwf	??_SendLCD+1
 10012  1B1E  30C9               	movlw	201
 10013  1B1F  00F4               	movwf	??_SendLCD
 10014  1B20                     u6617:
 10015  1B20  0BF4               	decfsz	??_SendLCD,f
 10016  1B21  2B20               	goto	u6617
 10017  1B22  0BF5               	decfsz	??_SendLCD+1,f
 10018  1B23  2B20               	goto	u6617
 10019  1B24  2B25               	nop2
 10020  1B25                     l3681:
 10021                           
 10022                           ;main.c: 518:     PORTE &= ~0x02;
 10023  1B25  30FD               	movlw	253
 10024  1B26  00F4               	movwf	??_SendLCD
 10025  1B27  0874               	movf	??_SendLCD,w
 10026  1B28  1283               	bcf	3,5	;RP0=0, select bank0
 10027  1B29  1303               	bcf	3,6	;RP1=0, select bank0
 10028  1B2A  0589               	andwf	9,f	;volatile
 10029                           
 10030                           ;main.c: 519:     _delay((unsigned long)((3)*(8000000/4000.0)));
 10031  1B2B  3008               	movlw	8
 10032  1B2C  00F5               	movwf	??_SendLCD+1
 10033  1B2D  30C9               	movlw	201
 10034  1B2E  00F4               	movwf	??_SendLCD
 10035  1B2F                     u6627:
 10036  1B2F  0BF4               	decfsz	??_SendLCD,f
 10037  1B30  2B2F               	goto	u6627
 10038  1B31  0BF5               	decfsz	??_SendLCD+1,f
 10039  1B32  2B2F               	goto	u6627
 10040  1B33  2B34               	nop2
 10041  1B34                     l3683:
 10042                           
 10043                           ;main.c: 520:     PORTE |= 0x02;
 10044  1B34  1283               	bcf	3,5	;RP0=0, select bank0
 10045  1B35  1303               	bcf	3,6	;RP1=0, select bank0
 10046  1B36  1489               	bsf	9,1	;volatile
 10047  1B37                     l325:
 10048  1B37  0008               	return
 10049  1B38                     __end_of_SendLCD:
 10050                           
 10051                           	psect	text31
 10052  1A16                     __ptext31:	
 10053 ;; *************** function _InitADC *****************
 10054 ;; Defined at:
 10055 ;;		line 380 in file "main.c"
 10056 ;; Parameters:    Size  Location     Type
 10057 ;;		None
 10058 ;; Auto vars:     Size  Location     Type
 10059 ;;		None
 10060 ;; Return value:  Size  Location     Type
 10061 ;;                  1    wreg      void 
 10062 ;; Registers used:
 10063 ;;		wreg
 10064 ;; Tracked objects:
 10065 ;;		On entry : 0/0
 10066 ;;		On exit  : 0/0
 10067 ;;		Unchanged: 0/0
 10068 ;; Data sizes:     COMMON   BANK0   BANK1   BANK3   BANK2
 10069 ;;      Params:         0       0       0       0       0
 10070 ;;      Locals:         0       0       0       0       0
 10071 ;;      Temps:          1       0       0       0       0
 10072 ;;      Totals:         1       0       0       0       0
 10073 ;;Total ram usage:        1 bytes
 10074 ;; Hardware stack levels used: 1
 10075 ;; Hardware stack levels required when called: 1
 10076 ;; This function calls:
 10077 ;;		Nothing
 10078 ;; This function is called by:
 10079 ;;		_main
 10080 ;; This function uses a non-reentrant model
 10081 ;;
 10082                           
 10083                           
 10084                           ;psect for function _InitADC
 10085  1A16                     _InitADC:
 10086  1A16                     l3375:	
 10087                           ;incstack = 0
 10088                           ; Regs used in _InitADC: [wreg]
 10089                           
 10090                           
 10091                           ;main.c: 382:     TRISA |= 0x04;
 10092  1A16  1683               	bsf	3,5	;RP0=1, select bank1
 10093  1A17  1303               	bcf	3,6	;RP1=0, select bank1
 10094  1A18  1505               	bsf	5,2	;volatile
 10095  1A19                     l3377:
 10096                           
 10097                           ;main.c: 383:     ADCON0 = 0x01;
 10098  1A19  3001               	movlw	1
 10099  1A1A  1283               	bcf	3,5	;RP0=0, select bank0
 10100  1A1B  1303               	bcf	3,6	;RP1=0, select bank0
 10101  1A1C  009F               	movwf	31	;volatile
 10102                           
 10103                           ;main.c: 384:     ADCON1 = 0x80;
 10104  1A1D  3080               	movlw	128
 10105  1A1E  1683               	bsf	3,5	;RP0=1, select bank1
 10106  1A1F  1303               	bcf	3,6	;RP1=0, select bank1
 10107  1A20  009F               	movwf	31	;volatile
 10108                           
 10109                           ;main.c: 385:     _delay((unsigned long)((20)*(8000000/4000000.0)));
 10110  1A21  300D               	movlw	13
 10111  1A22  00F3               	movwf	??_InitADC
 10112  1A23                     u6637:
 10113  1A23  0BF3               	decfsz	??_InitADC,f
 10114  1A24  2A23               	goto	u6637
 10115  1A25                     l271:
 10116  1A25  0008               	return
 10117  1A26                     __end_of_InitADC:
 10118                           
 10119                           	psect	text32
 10120  0807                     __ptext32:	
 10121 ;; *************** function _CheckOpenDoorButton *****************
 10122 ;; Defined at:
 10123 ;;		line 293 in file "main.c"
 10124 ;; Parameters:    Size  Location     Type
 10125 ;;		None
 10126 ;; Auto vars:     Size  Location     Type
 10127 ;;		None
 10128 ;; Return value:  Size  Location     Type
 10129 ;;                  1    wreg      void 
 10130 ;; Registers used:
 10131 ;;		wreg, fsr0l, fsr0h, status,2, status,0, pclath, cstack
 10132 ;; Tracked objects:
 10133 ;;		On entry : 0/0
 10134 ;;		On exit  : 0/0
 10135 ;;		Unchanged: 0/0
 10136 ;; Data sizes:     COMMON   BANK0   BANK1   BANK3   BANK2
 10137 ;;      Params:         0       0       0       0       0
 10138 ;;      Locals:         0       0       0       0       0
 10139 ;;      Temps:          0       2       0       0       0
 10140 ;;      Totals:         0       2       0       0       0
 10141 ;;Total ram usage:        2 bytes
 10142 ;; Hardware stack levels used: 1
 10143 ;; Hardware stack levels required when called: 4
 10144 ;; This function calls:
 10145 ;;		_MotorRotation
 10146 ;;		_PrepareBoolDataPacket
 10147 ;;		_UART_TxBoolDataPacket
 10148 ;; This function is called by:
 10149 ;;		_main
 10150 ;; This function uses a non-reentrant model
 10151 ;;
 10152                           
 10153                           
 10154                           ;psect for function _CheckOpenDoorButton
 10155  0807                     _CheckOpenDoorButton:
 10156  0807                     l4303:	
 10157                           ;incstack = 0
 10158                           ; Regs used in _CheckOpenDoorButton: [wreg-fsr0h+status,2+status,0+pclath+cstack]
 10159                           
 10160                           
 10161                           ;main.c: 295:     TRISB |= 0x08;
 10162  0807  1683               	bsf	3,5	;RP0=1, select bank1
 10163  0808  1303               	bcf	3,6	;RP1=0, select bank1
 10164  0809  1586               	bsf	6,3	;volatile
 10165                           
 10166                           ;main.c: 296:     if(!(PORTB & 0x08) && oldRB3)
 10167  080A  1283               	bcf	3,5	;RP0=0, select bank0
 10168  080B  1303               	bcf	3,6	;RP1=0, select bank0
 10169  080C  1986               	btfsc	6,3	;volatile
 10170  080D  280F               	goto	u6341
 10171  080E  2810               	goto	u6340
 10172  080F                     u6341:
 10173  080F  2833               	goto	l4317
 10174  0810                     u6340:
 10175  0810                     l4305:
 10176  0810  1683               	bsf	3,5	;RP0=1, select bank1
 10177  0811  1303               	bcf	3,6	;RP1=0, select bank1
 10178  0812  0859               	movf	_oldRB3^(0+128),w
 10179  0813  1903               	btfsc	3,2
 10180  0814  2816               	goto	u6351
 10181  0815  2817               	goto	u6350
 10182  0816                     u6351:
 10183  0816  2833               	goto	l4317
 10184  0817                     u6350:
 10185  0817                     l4307:
 10186                           
 10187                           ;main.c: 297:     {;main.c: 298:         oldRB3 = 0;
 10188  0817  01D9               	clrf	_oldRB3^(0+128)
 10189  0818                     l4309:
 10190                           
 10191                           ;main.c: 299:         if(doorOpen)
 10192  0818  0858               	movf	_doorOpen^(0+128),w
 10193  0819  1903               	btfsc	3,2
 10194  081A  281C               	goto	u6361
 10195  081B  281D               	goto	u6360
 10196  081C                     u6361:
 10197  081C  281F               	goto	l242
 10198  081D                     u6360:
 10199  081D                     l4311:
 10200                           
 10201                           ;main.c: 300:         {;main.c: 301:             doorOpen = 0;
 10202  081D  01D8               	clrf	_doorOpen^(0+128)
 10203                           
 10204                           ;main.c: 302:         }
 10205  081E  2821               	goto	l4313
 10206  081F                     l242:	
 10207                           ;main.c: 303:         else doorOpen = 1;
 10208                           
 10209  081F  01D8               	clrf	_doorOpen^(0+128)
 10210  0820  0AD8               	incf	_doorOpen^(0+128),f
 10211  0821                     l4313:
 10212                           
 10213                           ;main.c: 304:         PrepareBoolDataPacket(0x10, doorOpen);
 10214  0821  0858               	movf	_doorOpen^(0+128),w
 10215  0822  1283               	bcf	3,5	;RP0=0, select bank0
 10216  0823  1303               	bcf	3,6	;RP1=0, select bank0
 10217  0824  00A4               	movwf	??_CheckOpenDoorButton
 10218  0825  0824               	movf	??_CheckOpenDoorButton,w
 10219  0826  00F3               	movwf	PrepareBoolDataPacket@state
 10220  0827  3010               	movlw	16
 10221  0828  160A  158A  2275  120A  158A  	fcall	_PrepareBoolDataPacket
 10222  082D                     l4315:
 10223                           
 10224                           ;main.c: 305:         UART_TxBoolDataPacket(boolDataPacketTx);
 10225  082D  30B9               	movlw	(low (_boolDataPacketTx| (0+256)))& (0+255)
 10226  082E  160A  158A  2588  120A  158A  	fcall	_UART_TxBoolDataPacket
 10227  0833                     l4317:
 10228                           
 10229                           ;main.c: 307:     if((PORTB & 0x08) && !oldRB3)
 10230  0833  1283               	bcf	3,5	;RP0=0, select bank0
 10231  0834  1303               	bcf	3,6	;RP1=0, select bank0
 10232  0835  1D86               	btfss	6,3	;volatile
 10233  0836  2838               	goto	u6371
 10234  0837  2839               	goto	u6370
 10235  0838                     u6371:
 10236  0838  285A               	goto	l4329
 10237  0839                     u6370:
 10238  0839                     l4319:
 10239  0839  1683               	bsf	3,5	;RP0=1, select bank1
 10240  083A  1303               	bcf	3,6	;RP1=0, select bank1
 10241  083B  0859               	movf	_oldRB3^(0+128),w
 10242  083C  1D03               	btfss	3,2
 10243  083D  283F               	goto	u6381
 10244  083E  2840               	goto	u6380
 10245  083F                     u6381:
 10246  083F  285A               	goto	l4329
 10247  0840                     u6380:
 10248  0840                     l4321:
 10249                           
 10250                           ;main.c: 308:     {;main.c: 309:         _delay((unsigned long)((10)*(8000000/4000.0)));
 10251  0840  301A               	movlw	26
 10252  0841  1283               	bcf	3,5	;RP0=0, select bank0
 10253  0842  1303               	bcf	3,6	;RP1=0, select bank0
 10254  0843  00A5               	movwf	??_CheckOpenDoorButton+1
 10255  0844  30F7               	movlw	247
 10256  0845  00A4               	movwf	??_CheckOpenDoorButton
 10257  0846                     u6647:
 10258  0846  0BA4               	decfsz	??_CheckOpenDoorButton,f
 10259  0847  2846               	goto	u6647
 10260  0848  0BA5               	decfsz	??_CheckOpenDoorButton+1,f
 10261  0849  2846               	goto	u6647
 10262  084A  284B               	nop2
 10263  084B                     l4323:
 10264                           
 10265                           ;main.c: 310:         if((PORTB & 0x08) && !oldRB3) oldRB3 = 1;
 10266  084B  1283               	bcf	3,5	;RP0=0, select bank0
 10267  084C  1303               	bcf	3,6	;RP1=0, select bank0
 10268  084D  1D86               	btfss	6,3	;volatile
 10269  084E  2850               	goto	u6391
 10270  084F  2851               	goto	u6390
 10271  0850                     u6391:
 10272  0850  285A               	goto	l4329
 10273  0851                     u6390:
 10274  0851                     l4325:
 10275  0851  1683               	bsf	3,5	;RP0=1, select bank1
 10276  0852  1303               	bcf	3,6	;RP1=0, select bank1
 10277  0853  0859               	movf	_oldRB3^(0+128),w
 10278  0854  1D03               	btfss	3,2
 10279  0855  2857               	goto	u6401
 10280  0856  2858               	goto	u6400
 10281  0857                     u6401:
 10282  0857  285A               	goto	l4329
 10283  0858                     u6400:
 10284  0858                     l4327:
 10285  0858  01D9               	clrf	_oldRB3^(0+128)
 10286  0859  0AD9               	incf	_oldRB3^(0+128),f
 10287  085A                     l4329:
 10288                           
 10289                           ;main.c: 312:     if(!oldDoorOpen && doorOpen)
 10290  085A  1683               	bsf	3,5	;RP0=1, select bank1
 10291  085B  1303               	bcf	3,6	;RP1=0, select bank1
 10292  085C  0857               	movf	_oldDoorOpen^(0+128),w
 10293  085D  1D03               	btfss	3,2
 10294  085E  2860               	goto	u6411
 10295  085F  2861               	goto	u6410
 10296  0860                     u6411:
 10297  0860  2876               	goto	l4337
 10298  0861                     u6410:
 10299  0861                     l4331:
 10300  0861  0858               	movf	_doorOpen^(0+128),w
 10301  0862  1903               	btfsc	3,2
 10302  0863  2865               	goto	u6421
 10303  0864  2866               	goto	u6420
 10304  0865                     u6421:
 10305  0865  2876               	goto	l4337
 10306  0866                     u6420:
 10307  0866                     l4333:
 10308                           
 10309                           ;main.c: 313:     {;main.c: 314:         MotorRotation(0x00, 25);
 10310  0866  3019               	movlw	25
 10311  0867  1283               	bcf	3,5	;RP0=0, select bank0
 10312  0868  1303               	bcf	3,6	;RP1=0, select bank0
 10313  0869  00A4               	movwf	??_CheckOpenDoorButton
 10314  086A  0824               	movf	??_CheckOpenDoorButton,w
 10315  086B  00A0               	movwf	MotorRotation@amplitude
 10316  086C  3000               	movlw	0
 10317  086D  160A  118A  2085  120A  158A  	fcall	_MotorRotation
 10318  0872                     l4335:
 10319                           
 10320                           ;main.c: 315:         oldDoorOpen = 1;
 10321  0872  1683               	bsf	3,5	;RP0=1, select bank1
 10322  0873  1303               	bcf	3,6	;RP1=0, select bank1
 10323  0874  01D7               	clrf	_oldDoorOpen^(0+128)
 10324  0875  0AD7               	incf	_oldDoorOpen^(0+128),f
 10325  0876                     l4337:
 10326                           
 10327                           ;main.c: 317:     if(oldDoorOpen && !doorOpen)
 10328  0876  0857               	movf	_oldDoorOpen^(0+128),w
 10329  0877  1903               	btfsc	3,2
 10330  0878  287A               	goto	u6431
 10331  0879  287B               	goto	u6430
 10332  087A                     u6431:
 10333  087A  288F               	goto	l248
 10334  087B                     u6430:
 10335  087B                     l4339:
 10336  087B  0858               	movf	_doorOpen^(0+128),w
 10337  087C  1D03               	btfss	3,2
 10338  087D  287F               	goto	u6441
 10339  087E  2880               	goto	u6440
 10340  087F                     u6441:
 10341  087F  288F               	goto	l248
 10342  0880                     u6440:
 10343  0880                     l4341:
 10344                           
 10345                           ;main.c: 318:     {;main.c: 319:         MotorRotation(0x01, 25);
 10346  0880  3019               	movlw	25
 10347  0881  1283               	bcf	3,5	;RP0=0, select bank0
 10348  0882  1303               	bcf	3,6	;RP1=0, select bank0
 10349  0883  00A4               	movwf	??_CheckOpenDoorButton
 10350  0884  0824               	movf	??_CheckOpenDoorButton,w
 10351  0885  00A0               	movwf	MotorRotation@amplitude
 10352  0886  3001               	movlw	1
 10353  0887  160A  118A  2085  120A  158A  	fcall	_MotorRotation
 10354  088C                     l4343:
 10355                           
 10356                           ;main.c: 320:         oldDoorOpen = 0;
 10357  088C  1683               	bsf	3,5	;RP0=1, select bank1
 10358  088D  1303               	bcf	3,6	;RP1=0, select bank1
 10359  088E  01D7               	clrf	_oldDoorOpen^(0+128)
 10360  088F                     l248:
 10361  088F  0008               	return
 10362  0890                     __end_of_CheckOpenDoorButton:
 10363                           
 10364                           	psect	text33
 10365  1085                     __ptext33:	
 10366 ;; *************** function _MotorRotation *****************
 10367 ;; Defined at:
 10368 ;;		line 472 in file "main.c"
 10369 ;; Parameters:    Size  Location     Type
 10370 ;;  direction       1    wreg     unsigned char 
 10371 ;;  amplitude       1    0[BANK0 ] unsigned char 
 10372 ;; Auto vars:     Size  Location     Type
 10373 ;;  direction       1    2[BANK0 ] unsigned char 
 10374 ;;  i               1    3[BANK0 ] unsigned char 
 10375 ;; Return value:  Size  Location     Type
 10376 ;;                  1    wreg      void 
 10377 ;; Registers used:
 10378 ;;		wreg, fsr0l, fsr0h, status,2, status,0, pclath, cstack
 10379 ;; Tracked objects:
 10380 ;;		On entry : 0/0
 10381 ;;		On exit  : 0/0
 10382 ;;		Unchanged: 0/0
 10383 ;; Data sizes:     COMMON   BANK0   BANK1   BANK3   BANK2
 10384 ;;      Params:         0       1       0       0       0
 10385 ;;      Locals:         0       2       0       0       0
 10386 ;;      Temps:          0       1       0       0       0
 10387 ;;      Totals:         0       4       0       0       0
 10388 ;;Total ram usage:        4 bytes
 10389 ;; Hardware stack levels used: 1
 10390 ;; Hardware stack levels required when called: 3
 10391 ;; This function calls:
 10392 ;;		_DriveMotor
 10393 ;; This function is called by:
 10394 ;;		_CheckOpenDoorButton
 10395 ;; This function uses a non-reentrant model
 10396 ;;
 10397                           
 10398                           
 10399                           ;psect for function _MotorRotation
 10400  1085                     _MotorRotation:
 10401                           
 10402                           ;incstack = 0
 10403                           ; Regs used in _MotorRotation: [wreg-fsr0h+status,2+status,0+pclath+cstack]
 10404                           ;MotorRotation@direction stored from wreg
 10405  1085  1283               	bcf	3,5	;RP0=0, select bank0
 10406  1086  1303               	bcf	3,6	;RP1=0, select bank0
 10407  1087  00A2               	movwf	MotorRotation@direction
 10408  1088                     l4089:
 10409                           
 10410                           ;main.c: 472: void MotorRotation(char direction, char amplitude);main.c: 473: {;main.c: 
      +                          474:     TRISD &= 0b00001111;
 10411  1088  300F               	movlw	15
 10412  1089  00A1               	movwf	??_MotorRotation
 10413  108A  0821               	movf	??_MotorRotation,w
 10414  108B  1683               	bsf	3,5	;RP0=1, select bank1
 10415  108C  1303               	bcf	3,6	;RP1=0, select bank1
 10416  108D  0588               	andwf	8,f	;volatile
 10417  108E                     l4091:
 10418                           
 10419                           ;main.c: 475:     for(char i = 0; i<amplitude; i++)
 10420  108E  1283               	bcf	3,5	;RP0=0, select bank0
 10421  108F  1303               	bcf	3,6	;RP1=0, select bank0
 10422  1090  01A3               	clrf	MotorRotation@i
 10423  1091  289E               	goto	l4097
 10424  1092                     l4093:
 10425                           
 10426                           ;main.c: 476:     {;main.c: 477:         DriveMotor(direction);
 10427  1092  0822               	movf	MotorRotation@direction,w
 10428  1093  160A  158A  243D  160A  118A  	fcall	_DriveMotor
 10429  1098                     l4095:
 10430                           
 10431                           ;main.c: 478:     }
 10432  1098  3001               	movlw	1
 10433  1099  1283               	bcf	3,5	;RP0=0, select bank0
 10434  109A  1303               	bcf	3,6	;RP1=0, select bank0
 10435  109B  00A1               	movwf	??_MotorRotation
 10436  109C  0821               	movf	??_MotorRotation,w
 10437  109D  07A3               	addwf	MotorRotation@i,f
 10438  109E                     l4097:
 10439  109E  0820               	movf	MotorRotation@amplitude,w
 10440  109F  0223               	subwf	MotorRotation@i,w
 10441  10A0  1C03               	skipc
 10442  10A1  28A3               	goto	u5931
 10443  10A2  28A4               	goto	u5930
 10444  10A3                     u5931:
 10445  10A3  2892               	goto	l4093
 10446  10A4                     u5930:
 10447  10A4                     l305:
 10448  10A4  0008               	return
 10449  10A5                     __end_of_MotorRotation:
 10450                           
 10451                           	psect	text34
 10452  1C3D                     __ptext34:	
 10453 ;; *************** function _DriveMotor *****************
 10454 ;; Defined at:
 10455 ;;		line 324 in file "main.c"
 10456 ;; Parameters:    Size  Location     Type
 10457 ;;  direction       1    wreg     unsigned char 
 10458 ;; Auto vars:     Size  Location     Type
 10459 ;;  direction       1    5[COMMON] unsigned char 
 10460 ;;  i               1    7[COMMON] unsigned char 
 10461 ;;  i               1    6[COMMON] unsigned char 
 10462 ;; Return value:  Size  Location     Type
 10463 ;;                  1    wreg      void 
 10464 ;; Registers used:
 10465 ;;		wreg, fsr0l, fsr0h, status,2, status,0, pclath
 10466 ;; Tracked objects:
 10467 ;;		On entry : 0/0
 10468 ;;		On exit  : 0/0
 10469 ;;		Unchanged: 0/0
 10470 ;; Data sizes:     COMMON   BANK0   BANK1   BANK3   BANK2
 10471 ;;      Params:         0       0       0       0       0
 10472 ;;      Locals:         3       0       0       0       0
 10473 ;;      Temps:          2       0       0       0       0
 10474 ;;      Totals:         5       0       0       0       0
 10475 ;;Total ram usage:        5 bytes
 10476 ;; Hardware stack levels used: 2
 10477 ;; Hardware stack levels required when called: 1
 10478 ;; This function calls:
 10479 ;;		Nothing
 10480 ;; This function is called by:
 10481 ;;		_MotorRotation
 10482 ;; This function uses a non-reentrant model
 10483 ;;
 10484                           
 10485                           
 10486                           ;psect for function _DriveMotor
 10487  1C3D                     _DriveMotor:
 10488                           
 10489                           ;incstack = 0
 10490                           ; Regs used in _DriveMotor: [wreg-fsr0h+status,2+status,0+pclath]
 10491                           ;DriveMotor@direction stored from wreg
 10492  1C3D  00F5               	movwf	DriveMotor@direction
 10493  1C3E                     l3025:
 10494                           
 10495                           ;main.c: 324: void DriveMotor(char direction);main.c: 325: {;main.c: 326:     if (direct
      +                          ion == 0x00)
 10496  1C3E  0875               	movf	DriveMotor@direction,w
 10497  1C3F  1D03               	btfss	3,2
 10498  1C40  2C42               	goto	u4181
 10499  1C41  2C43               	goto	u4180
 10500  1C42                     u4181:
 10501  1C42  2C62               	goto	l3041
 10502  1C43                     u4180:
 10503  1C43                     l3027:
 10504                           
 10505                           ;main.c: 327:     {;main.c: 328:         for (char i = 0; i<5; i++)
 10506  1C43  01F6               	clrf	DriveMotor@i
 10507  1C44                     l3033:
 10508                           
 10509                           ;main.c: 329:         {;main.c: 330:             PORTD = clockWise[i];
 10510  1C44  0876               	movf	DriveMotor@i,w
 10511  1C45  3E12               	addlw	low ((_clockWise-__stringbase)| (0+32768))
 10512  1C46  0084               	movwf	4
 10513  1C47  160A  118A  2000  160A  158A  	fcall	stringdir
 10514  1C4C  1283               	bcf	3,5	;RP0=0, select bank0
 10515  1C4D  1303               	bcf	3,6	;RP1=0, select bank0
 10516  1C4E  0088               	movwf	8	;volatile
 10517  1C4F                     l3035:
 10518                           
 10519                           ;main.c: 331:             _delay((unsigned long)((10)*(8000000/4000.0)));
 10520  1C4F  301A               	movlw	26
 10521  1C50  00F4               	movwf	??_DriveMotor+1
 10522  1C51  30F8               	movlw	248
 10523  1C52  00F3               	movwf	??_DriveMotor
 10524  1C53                     u6657:
 10525  1C53  0BF3               	decfsz	??_DriveMotor,f
 10526  1C54  2C53               	goto	u6657
 10527  1C55  0BF4               	decfsz	??_DriveMotor+1,f
 10528  1C56  2C53               	goto	u6657
 10529  1C57  0000               	nop
 10530  1C58                     l3037:
 10531                           
 10532                           ;main.c: 332:         }
 10533  1C58  3001               	movlw	1
 10534  1C59  00F3               	movwf	??_DriveMotor
 10535  1C5A  0873               	movf	??_DriveMotor,w
 10536  1C5B  07F6               	addwf	DriveMotor@i,f
 10537  1C5C                     l3039:
 10538  1C5C  3005               	movlw	5
 10539  1C5D  0276               	subwf	DriveMotor@i,w
 10540  1C5E  1C03               	skipc
 10541  1C5F  2C61               	goto	u4191
 10542  1C60  2C62               	goto	u4190
 10543  1C61                     u4191:
 10544  1C61  2C44               	goto	l3033
 10545  1C62                     u4190:
 10546  1C62                     l3041:
 10547                           
 10548                           ;main.c: 334:     if (direction == 0x01)
 10549  1C62  0375               	decf	DriveMotor@direction,w
 10550  1C63  1D03               	btfss	3,2
 10551  1C64  2C66               	goto	u4201
 10552  1C65  2C67               	goto	u4200
 10553  1C66                     u4201:
 10554  1C66  2C86               	goto	l257
 10555  1C67                     u4200:
 10556  1C67                     l3043:
 10557                           
 10558                           ;main.c: 335:     {;main.c: 336:         for (char i = 0; i<5; i++)
 10559  1C67  01F7               	clrf	DriveMotor@i_229
 10560  1C68                     l3049:
 10561                           
 10562                           ;main.c: 337:         {;main.c: 338:             PORTD = counterClockWise[i];
 10563  1C68  0877               	movf	DriveMotor@i_229,w
 10564  1C69  3E0D               	addlw	low ((_counterClockWise-__stringbase)| (0+32768))
 10565  1C6A  0084               	movwf	4
 10566  1C6B  160A  118A  2000  160A  158A  	fcall	stringdir
 10567  1C70  1283               	bcf	3,5	;RP0=0, select bank0
 10568  1C71  1303               	bcf	3,6	;RP1=0, select bank0
 10569  1C72  0088               	movwf	8	;volatile
 10570  1C73                     l3051:
 10571                           
 10572                           ;main.c: 339:             _delay((unsigned long)((10)*(8000000/4000.0)));
 10573  1C73  301A               	movlw	26
 10574  1C74  00F4               	movwf	??_DriveMotor+1
 10575  1C75  30F8               	movlw	248
 10576  1C76  00F3               	movwf	??_DriveMotor
 10577  1C77                     u6667:
 10578  1C77  0BF3               	decfsz	??_DriveMotor,f
 10579  1C78  2C77               	goto	u6667
 10580  1C79  0BF4               	decfsz	??_DriveMotor+1,f
 10581  1C7A  2C77               	goto	u6667
 10582  1C7B  0000               	nop
 10583  1C7C                     l3053:
 10584                           
 10585                           ;main.c: 340:         }
 10586  1C7C  3001               	movlw	1
 10587  1C7D  00F3               	movwf	??_DriveMotor
 10588  1C7E  0873               	movf	??_DriveMotor,w
 10589  1C7F  07F7               	addwf	DriveMotor@i_229,f
 10590  1C80                     l3055:
 10591  1C80  3005               	movlw	5
 10592  1C81  0277               	subwf	DriveMotor@i_229,w
 10593  1C82  1C03               	skipc
 10594  1C83  2C85               	goto	u4211
 10595  1C84  2C86               	goto	u4210
 10596  1C85                     u4211:
 10597  1C85  2C68               	goto	l3049
 10598  1C86                     u4210:
 10599  1C86                     l257:
 10600  1C86  0008               	return
 10601  1C87                     __end_of_DriveMotor:
 10602                           
 10603                           	psect	text35
 10604  1121                     __ptext35:	
 10605 ;; *************** function _CheckKeypad *****************
 10606 ;; Defined at:
 10607 ;;		line 265 in file "main.c"
 10608 ;; Parameters:    Size  Location     Type
 10609 ;;		None
 10610 ;; Auto vars:     Size  Location     Type
 10611 ;;		None
 10612 ;; Return value:  Size  Location     Type
 10613 ;;                  1    wreg      unsigned char 
 10614 ;; Registers used:
 10615 ;;		wreg, fsr0l, fsr0h, status,2, status,0, btemp+1, pclath
 10616 ;; Tracked objects:
 10617 ;;		On entry : 0/0
 10618 ;;		On exit  : 0/0
 10619 ;;		Unchanged: 0/0
 10620 ;; Data sizes:     COMMON   BANK0   BANK1   BANK3   BANK2
 10621 ;;      Params:         0       0       0       0       0
 10622 ;;      Locals:         0       0       0       0       0
 10623 ;;      Temps:          2       0       0       0       0
 10624 ;;      Totals:         2       0       0       0       0
 10625 ;;Total ram usage:        2 bytes
 10626 ;; Hardware stack levels used: 2
 10627 ;; Hardware stack levels required when called: 1
 10628 ;; This function calls:
 10629 ;;		Nothing
 10630 ;; This function is called by:
 10631 ;;		_main
 10632 ;; This function uses a non-reentrant model
 10633 ;;
 10634                           
 10635                           
 10636                           ;psect for function _CheckKeypad
 10637  1121                     _CheckKeypad:
 10638  1121                     l3393:	
 10639                           ;incstack = 0
 10640                           ; Regs used in _CheckKeypad: [wreg-fsr0h+status,2+status,0+btemp+1+pclath]
 10641                           
 10642                           
 10643                           ;main.c: 267:     TRISB &= ~0x07;
 10644  1121  30F8               	movlw	248
 10645  1122  00F3               	movwf	??_CheckKeypad
 10646  1123  0873               	movf	??_CheckKeypad,w
 10647  1124  1683               	bsf	3,5	;RP0=1, select bank1
 10648  1125  1303               	bcf	3,6	;RP1=0, select bank1
 10649  1126  0586               	andwf	6,f	;volatile
 10650                           
 10651                           ;main.c: 268:     TRISD |= 0x0F;
 10652  1127  300F               	movlw	15
 10653  1128  00F3               	movwf	??_CheckKeypad
 10654  1129  0873               	movf	??_CheckKeypad,w
 10655  112A  0488               	iorwf	8,f	;volatile
 10656  112B                     l3395:
 10657                           
 10658                           ;main.c: 269:     for(colScan = 0; colScan < 3; colScan++)
 10659  112B  01E1               	clrf	_colScan^(0+128)
 10660  112C                     l3401:
 10661                           
 10662                           ;main.c: 270:     {;main.c: 271:         PORTB |= 0x07;
 10663  112C  3007               	movlw	7
 10664  112D  00F3               	movwf	??_CheckKeypad
 10665  112E  0873               	movf	??_CheckKeypad,w
 10666  112F  1283               	bcf	3,5	;RP0=0, select bank0
 10667  1130  1303               	bcf	3,6	;RP1=0, select bank0
 10668  1131  0486               	iorwf	6,f	;volatile
 10669  1132                     l3403:
 10670                           
 10671                           ;main.c: 272:         PORTB &= colMask[colScan];
 10672  1132  1683               	bsf	3,5	;RP0=1, select bank1
 10673  1133  1303               	bcf	3,6	;RP1=0, select bank1
 10674  1134  0861               	movf	_colScan^(0+128),w
 10675  1135  3E1B               	addlw	low ((_colMask-__stringbase)| (0+32768))
 10676  1136  0084               	movwf	4
 10677  1137  160A  118A  2000  160A  118A  	fcall	stringdir
 10678  113C  00F3               	movwf	??_CheckKeypad
 10679  113D  0873               	movf	??_CheckKeypad,w
 10680  113E  1283               	bcf	3,5	;RP0=0, select bank0
 10681  113F  1303               	bcf	3,6	;RP1=0, select bank0
 10682  1140  0586               	andwf	6,f	;volatile
 10683  1141                     l3405:
 10684                           
 10685                           ;main.c: 273:         _delay((unsigned long)((15)*(8000000/4000000.0)));
 10686  1141  3009               	movlw	9
 10687  1142  00F3               	movwf	??_CheckKeypad
 10688  1143                     u6677:
 10689  1143  0BF3               	decfsz	??_CheckKeypad,f
 10690  1144  2943               	goto	u6677
 10691  1145  2946               	nop2
 10692  1146                     l3407:
 10693                           
 10694                           ;main.c: 274:         for( rowScan = 0; rowScan < 4; rowScan++)
 10695  1146  1683               	bsf	3,5	;RP0=1, select bank1
 10696  1147  1303               	bcf	3,6	;RP1=0, select bank1
 10697  1148  01E0               	clrf	_rowScan^(0+128)
 10698  1149                     l3413:
 10699                           
 10700                           ;main.c: 275:         {;main.c: 276:             if(!(PORTD & rowMask[rowScan]))
 10701  1149  0860               	movf	_rowScan^(0+128),w
 10702  114A  3E17               	addlw	low ((_rowMask-__stringbase)| (0+32768))
 10703  114B  0084               	movwf	4
 10704  114C  160A  118A  2000  160A  118A  	fcall	stringdir
 10705  1151  1283               	bcf	3,5	;RP0=0, select bank0
 10706  1152  1303               	bcf	3,6	;RP1=0, select bank0
 10707  1153  0508               	andwf	8,w	;volatile
 10708  1154  1D03               	btfss	3,2
 10709  1155  2957               	goto	u4701
 10710  1156  2958               	goto	u4700
 10711  1157                     u4701:
 10712  1157  2984               	goto	l3425
 10713  1158                     u4700:
 10714  1158                     l3415:
 10715                           
 10716                           ;main.c: 277:             {;main.c: 278:                 flags |= 0x02;
 10717  1158  1683               	bsf	3,5	;RP0=1, select bank1
 10718  1159  1303               	bcf	3,6	;RP1=0, select bank1
 10719  115A  14E2               	bsf	_flags^(0+128),1
 10720  115B                     l3417:
 10721                           
 10722                           ;main.c: 279:                 if(counterAntibouncing > 10)
 10723  115B  1683               	bsf	3,5	;RP0=1, select bank3
 10724  115C  1703               	bsf	3,6	;RP1=1, select bank3
 10725  115D  082A               	movf	(_counterAntibouncing+1)^(0+384),w
 10726  115E  3A80               	xorlw	128
 10727  115F  00FF               	movwf	btemp+1
 10728  1160  3080               	movlw	128
 10729  1161  027F               	subwf	btemp+1,w
 10730  1162  1D03               	skipz
 10731  1163  2966               	goto	u4715
 10732  1164  300B               	movlw	11
 10733  1165  0229               	subwf	_counterAntibouncing^(0+384),w
 10734  1166                     u4715:
 10735  1166  1C03               	skipc
 10736  1167  2969               	goto	u4711
 10737  1168  296A               	goto	u4710
 10738  1169                     u4711:
 10739  1169  2984               	goto	l3425
 10740  116A                     u4710:
 10741  116A                     l3419:
 10742                           
 10743                           ;main.c: 280:                 {;main.c: 281:                     keyValue = rowScan+(4*c
      +                          olScan);
 10744  116A  1683               	bsf	3,5	;RP0=1, select bank1
 10745  116B  1303               	bcf	3,6	;RP1=0, select bank1
 10746  116C  0861               	movf	_colScan^(0+128),w
 10747  116D  00F3               	movwf	??_CheckKeypad
 10748  116E  3002               	movlw	2
 10749  116F                     u4725:
 10750  116F  1003               	clrc
 10751  1170  0DF3               	rlf	??_CheckKeypad,f
 10752  1171  3EFF               	addlw	-1
 10753  1172  1D03               	skipz
 10754  1173  296F               	goto	u4725
 10755  1174  0860               	movf	_rowScan^(0+128),w
 10756  1175  0773               	addwf	??_CheckKeypad,w
 10757  1176  00F4               	movwf	??_CheckKeypad+1
 10758  1177  0874               	movf	??_CheckKeypad+1,w
 10759  1178  00EA               	movwf	_keyValue^(0+128)
 10760                           
 10761                           ;main.c: 282:                     flags &= ~0x02;
 10762  1179  30FD               	movlw	253
 10763  117A  00F3               	movwf	??_CheckKeypad
 10764  117B  0873               	movf	??_CheckKeypad,w
 10765  117C  05E2               	andwf	_flags^(0+128),f
 10766  117D                     l3421:
 10767                           
 10768                           ;main.c: 283:                     counterAntibouncing = 0;
 10769  117D  1683               	bsf	3,5	;RP0=1, select bank3
 10770  117E  1703               	bsf	3,6	;RP1=1, select bank3
 10771  117F  01A9               	clrf	_counterAntibouncing^(0+384)
 10772  1180  01AA               	clrf	(_counterAntibouncing+1)^(0+384)
 10773  1181                     l3423:
 10774                           
 10775                           ;main.c: 284:                     flags |= 0x01;
 10776  1181  1683               	bsf	3,5	;RP0=1, select bank1
 10777  1182  1303               	bcf	3,6	;RP1=0, select bank1
 10778  1183  1462               	bsf	_flags^(0+128),0
 10779  1184                     l3425:
 10780                           
 10781                           ;main.c: 287:         }
 10782  1184  3001               	movlw	1
 10783  1185  00F3               	movwf	??_CheckKeypad
 10784  1186  0873               	movf	??_CheckKeypad,w
 10785  1187  1683               	bsf	3,5	;RP0=1, select bank1
 10786  1188  1303               	bcf	3,6	;RP1=0, select bank1
 10787  1189  07E0               	addwf	_rowScan^(0+128),f
 10788  118A                     l3427:
 10789  118A  3004               	movlw	4
 10790  118B  0260               	subwf	_rowScan^(0+128),w
 10791  118C  1C03               	skipc
 10792  118D  298F               	goto	u4731
 10793  118E  2990               	goto	u4730
 10794  118F                     u4731:
 10795  118F  2949               	goto	l3413
 10796  1190                     u4730:
 10797  1190                     l3429:
 10798                           
 10799                           ;main.c: 288:     }
 10800  1190  3001               	movlw	1
 10801  1191  00F3               	movwf	??_CheckKeypad
 10802  1192  0873               	movf	??_CheckKeypad,w
 10803  1193  07E1               	addwf	_colScan^(0+128),f
 10804  1194                     l3431:
 10805  1194  3003               	movlw	3
 10806  1195  0261               	subwf	_colScan^(0+128),w
 10807  1196  1C03               	skipc
 10808  1197  2999               	goto	u4741
 10809  1198  299A               	goto	u4740
 10810  1199                     u4741:
 10811  1199  292C               	goto	l3401
 10812  119A                     u4740:
 10813  119A                     l3433:
 10814                           
 10815                           ;main.c: 289:     return keypad[keyValue];
 10816  119A  086A               	movf	_keyValue^(0+128),w
 10817  119B  3E01               	addlw	low ((_keypad-__stringbase)| (0+32768))
 10818  119C  0084               	movwf	4
 10819  119D  160A  118A  2000  160A  118A  	fcall	stringdir
 10820  11A2                     l238:
 10821  11A2  0008               	return
 10822  11A3                     __end_of_CheckKeypad:
 10823                           
 10824                           	psect	text36
 10825  1F18                     __ptext36:	
 10826 ;; *************** function _CheckAlarmButton *****************
 10827 ;; Defined at:
 10828 ;;		line 235 in file "main.c"
 10829 ;; Parameters:    Size  Location     Type
 10830 ;;		None
 10831 ;; Auto vars:     Size  Location     Type
 10832 ;;		None
 10833 ;; Return value:  Size  Location     Type
 10834 ;;                  1    wreg      void 
 10835 ;; Registers used:
 10836 ;;		wreg, fsr0l, fsr0h, status,2, status,0, pclath, cstack
 10837 ;; Tracked objects:
 10838 ;;		On entry : 0/0
 10839 ;;		On exit  : 0/0
 10840 ;;		Unchanged: 0/0
 10841 ;; Data sizes:     COMMON   BANK0   BANK1   BANK3   BANK2
 10842 ;;      Params:         0       0       0       0       0
 10843 ;;      Locals:         0       0       0       0       0
 10844 ;;      Temps:          0       2       0       0       0
 10845 ;;      Totals:         0       2       0       0       0
 10846 ;;Total ram usage:        2 bytes
 10847 ;; Hardware stack levels used: 1
 10848 ;; Hardware stack levels required when called: 3
 10849 ;; This function calls:
 10850 ;;		_PrepareBoolDataPacket
 10851 ;;		_UART_TxBoolDataPacket
 10852 ;; This function is called by:
 10853 ;;		_main
 10854 ;; This function uses a non-reentrant model
 10855 ;;
 10856                           
 10857                           
 10858                           ;psect for function _CheckAlarmButton
 10859  1F18                     _CheckAlarmButton:
 10860  1F18                     l4271:	
 10861                           ;incstack = 0
 10862                           ; Regs used in _CheckAlarmButton: [wreg-fsr0h+status,2+status,0+pclath+cstack]
 10863                           
 10864                           
 10865                           ;main.c: 237:     TRISB |= 0x04;
 10866  1F18  1683               	bsf	3,5	;RP0=1, select bank1
 10867  1F19  1303               	bcf	3,6	;RP1=0, select bank1
 10868  1F1A  1506               	bsf	6,2	;volatile
 10869                           
 10870                           ;main.c: 239:     if(!(PORTB & 0x04) && oldRB2)
 10871  1F1B  1283               	bcf	3,5	;RP0=0, select bank0
 10872  1F1C  1303               	bcf	3,6	;RP1=0, select bank0
 10873  1F1D  1906               	btfsc	6,2	;volatile
 10874  1F1E  2F20               	goto	u6261
 10875  1F1F  2F21               	goto	u6260
 10876  1F20                     u6261:
 10877  1F20  2F4C               	goto	l4287
 10878  1F21                     u6260:
 10879  1F21                     l4273:
 10880  1F21  1683               	bsf	3,5	;RP0=1, select bank1
 10881  1F22  1303               	bcf	3,6	;RP1=0, select bank1
 10882  1F23  085A               	movf	_oldRB2^(0+128),w
 10883  1F24  1903               	btfsc	3,2
 10884  1F25  2F27               	goto	u6271
 10885  1F26  2F28               	goto	u6270
 10886  1F27                     u6271:
 10887  1F27  2F4C               	goto	l4287
 10888  1F28                     u6270:
 10889  1F28                     l4275:
 10890                           
 10891                           ;main.c: 240:     {;main.c: 241:         oldRB2 = 0;
 10892  1F28  01DA               	clrf	_oldRB2^(0+128)
 10893  1F29                     l4277:
 10894                           
 10895                           ;main.c: 242:         if(flags & 0x04)
 10896  1F29  1D62               	btfss	_flags^(0+128),2
 10897  1F2A  2F2C               	goto	u6281
 10898  1F2B  2F2D               	goto	u6280
 10899  1F2C                     u6281:
 10900  1F2C  2F3D               	goto	l223
 10901  1F2D                     u6280:
 10902  1F2D                     l4279:
 10903                           
 10904                           ;main.c: 243:         {;main.c: 244:             flags &= ~0x04;
 10905  1F2D  30FB               	movlw	251
 10906  1F2E  1283               	bcf	3,5	;RP0=0, select bank0
 10907  1F2F  1303               	bcf	3,6	;RP1=0, select bank0
 10908  1F30  00A4               	movwf	??_CheckAlarmButton
 10909  1F31  0824               	movf	??_CheckAlarmButton,w
 10910  1F32  1683               	bsf	3,5	;RP0=1, select bank1
 10911  1F33  1303               	bcf	3,6	;RP1=0, select bank1
 10912  1F34  05E2               	andwf	_flags^(0+128),f
 10913  1F35                     l4281:
 10914                           
 10915                           ;main.c: 245:             PrepareBoolDataPacket(0x20, 0x00);
 10916  1F35  01F3               	clrf	PrepareBoolDataPacket@state
 10917  1F36  3020               	movlw	32
 10918  1F37  160A  158A  2275  160A  158A  	fcall	_PrepareBoolDataPacket
 10919                           
 10920                           ;main.c: 246:         }
 10921  1F3C  2F46               	goto	l4285
 10922  1F3D                     l223:	
 10923                           ;main.c: 247:         else
 10924                           
 10925                           
 10926                           ;main.c: 248:         {;main.c: 249:             flags |= 0x04;
 10927  1F3D  1562               	bsf	_flags^(0+128),2
 10928  1F3E                     l4283:
 10929                           
 10930                           ;main.c: 250:             PrepareBoolDataPacket(0x20, 0x01);
 10931  1F3E  01F3               	clrf	PrepareBoolDataPacket@state
 10932  1F3F  0AF3               	incf	PrepareBoolDataPacket@state,f
 10933  1F40  3020               	movlw	32
 10934  1F41  160A  158A  2275  160A  158A  	fcall	_PrepareBoolDataPacket
 10935  1F46                     l4285:
 10936                           
 10937                           ;main.c: 253:         UART_TxBoolDataPacket(boolDataPacketTx);
 10938  1F46  30B9               	movlw	(low (_boolDataPacketTx| (0+256)))& (0+255)
 10939  1F47  160A  158A  2588  160A  158A  	fcall	_UART_TxBoolDataPacket
 10940  1F4C                     l4287:
 10941                           
 10942                           ;main.c: 255:     if((PORTB & 0x04) && !oldRB2)
 10943  1F4C  1283               	bcf	3,5	;RP0=0, select bank0
 10944  1F4D  1303               	bcf	3,6	;RP1=0, select bank0
 10945  1F4E  1D06               	btfss	6,2	;volatile
 10946  1F4F  2F51               	goto	u6291
 10947  1F50  2F52               	goto	u6290
 10948  1F51                     u6291:
 10949  1F51  2F73               	goto	l225
 10950  1F52                     u6290:
 10951  1F52                     l4289:
 10952  1F52  1683               	bsf	3,5	;RP0=1, select bank1
 10953  1F53  1303               	bcf	3,6	;RP1=0, select bank1
 10954  1F54  085A               	movf	_oldRB2^(0+128),w
 10955  1F55  1D03               	btfss	3,2
 10956  1F56  2F58               	goto	u6301
 10957  1F57  2F59               	goto	u6300
 10958  1F58                     u6301:
 10959  1F58  2F73               	goto	l225
 10960  1F59                     u6300:
 10961  1F59                     l4291:
 10962                           
 10963                           ;main.c: 256:     {;main.c: 257:         _delay((unsigned long)((10)*(8000000/4000.0)));
 10964  1F59  301A               	movlw	26
 10965  1F5A  1283               	bcf	3,5	;RP0=0, select bank0
 10966  1F5B  1303               	bcf	3,6	;RP1=0, select bank0
 10967  1F5C  00A5               	movwf	??_CheckAlarmButton+1
 10968  1F5D  30F7               	movlw	247
 10969  1F5E  00A4               	movwf	??_CheckAlarmButton
 10970  1F5F                     u6687:
 10971  1F5F  0BA4               	decfsz	??_CheckAlarmButton,f
 10972  1F60  2F5F               	goto	u6687
 10973  1F61  0BA5               	decfsz	??_CheckAlarmButton+1,f
 10974  1F62  2F5F               	goto	u6687
 10975  1F63  2F64               	nop2
 10976  1F64                     l4293:
 10977                           
 10978                           ;main.c: 258:         if((PORTB & 0x04) && !oldRB2) oldRB2 = 1;
 10979  1F64  1283               	bcf	3,5	;RP0=0, select bank0
 10980  1F65  1303               	bcf	3,6	;RP1=0, select bank0
 10981  1F66  1D06               	btfss	6,2	;volatile
 10982  1F67  2F69               	goto	u6311
 10983  1F68  2F6A               	goto	u6310
 10984  1F69                     u6311:
 10985  1F69  2F73               	goto	l225
 10986  1F6A                     u6310:
 10987  1F6A                     l4295:
 10988  1F6A  1683               	bsf	3,5	;RP0=1, select bank1
 10989  1F6B  1303               	bcf	3,6	;RP1=0, select bank1
 10990  1F6C  085A               	movf	_oldRB2^(0+128),w
 10991  1F6D  1D03               	btfss	3,2
 10992  1F6E  2F70               	goto	u6321
 10993  1F6F  2F71               	goto	u6320
 10994  1F70                     u6321:
 10995  1F70  2F73               	goto	l225
 10996  1F71                     u6320:
 10997  1F71                     l4297:
 10998  1F71  01DA               	clrf	_oldRB2^(0+128)
 10999  1F72  0ADA               	incf	_oldRB2^(0+128),f
 11000  1F73                     l225:	
 11001                           ;main.c: 260:     }
 11002                           
 11003                           
 11004                           ;main.c: 261:     if(flags & 0x04) PORTC |= 0x02;
 11005  1F73  1683               	bsf	3,5	;RP0=1, select bank1
 11006  1F74  1303               	bcf	3,6	;RP1=0, select bank1
 11007  1F75  1D62               	btfss	_flags^(0+128),2
 11008  1F76  2F78               	goto	u6331
 11009  1F77  2F79               	goto	u6330
 11010  1F78                     u6331:
 11011  1F78  2F7D               	goto	l4301
 11012  1F79                     u6330:
 11013  1F79                     l4299:
 11014  1F79  1283               	bcf	3,5	;RP0=0, select bank0
 11015  1F7A  1303               	bcf	3,6	;RP1=0, select bank0
 11016  1F7B  1487               	bsf	7,1	;volatile
 11017  1F7C  2F83               	goto	l229
 11018  1F7D                     l4301:
 11019  1F7D  30FD               	movlw	253
 11020  1F7E  1283               	bcf	3,5	;RP0=0, select bank0
 11021  1F7F  1303               	bcf	3,6	;RP1=0, select bank0
 11022  1F80  00A4               	movwf	??_CheckAlarmButton
 11023  1F81  0824               	movf	??_CheckAlarmButton,w
 11024  1F82  0587               	andwf	7,f	;volatile
 11025  1F83                     l229:
 11026  1F83  0008               	return
 11027  1F84                     __end_of_CheckAlarmButton:
 11028                           
 11029                           	psect	text37
 11030  1D88                     __ptext37:	
 11031 ;; *************** function _UART_TxBoolDataPacket *****************
 11032 ;; Defined at:
 11033 ;;		line 652 in file "main.c"
 11034 ;; Parameters:    Size  Location     Type
 11035 ;;  dataPacket      1    wreg     PTR unsigned char 
 11036 ;;		 -> boolDataPacketTx(5), 
 11037 ;; Auto vars:     Size  Location     Type
 11038 ;;  dataPacket      1    7[COMMON] PTR unsigned char 
 11039 ;;		 -> boolDataPacketTx(5), 
 11040 ;; Return value:  Size  Location     Type
 11041 ;;                  1    wreg      void 
 11042 ;; Registers used:
 11043 ;;		wreg, fsr0l, fsr0h, status,2, status,0, pclath, cstack
 11044 ;; Tracked objects:
 11045 ;;		On entry : 0/0
 11046 ;;		On exit  : 0/0
 11047 ;;		Unchanged: 0/0
 11048 ;; Data sizes:     COMMON   BANK0   BANK1   BANK3   BANK2
 11049 ;;      Params:         0       0       0       0       0
 11050 ;;      Locals:         1       0       0       0       0
 11051 ;;      Temps:          0       2       0       0       0
 11052 ;;      Totals:         1       2       0       0       0
 11053 ;;Total ram usage:        3 bytes
 11054 ;; Hardware stack levels used: 1
 11055 ;; Hardware stack levels required when called: 2
 11056 ;; This function calls:
 11057 ;;		_UART_TxChar
 11058 ;;		___wmul
 11059 ;; This function is called by:
 11060 ;;		_CheckAlarmButton
 11061 ;;		_CheckOpenDoorButton
 11062 ;;		_HandleRequest
 11063 ;; This function uses a non-reentrant model
 11064 ;;
 11065                           
 11066                           
 11067                           ;psect for function _UART_TxBoolDataPacket
 11068  1D88                     _UART_TxBoolDataPacket:
 11069                           
 11070                           ;incstack = 0
 11071                           ; Regs used in _UART_TxBoolDataPacket: [wreg-fsr0h+status,2+status,0+pclath+cstack]
 11072                           ;UART_TxBoolDataPacket@dataPacket stored from wreg
 11073  1D88  00F7               	movwf	UART_TxBoolDataPacket@dataPacket
 11074  1D89                     l3919:
 11075                           
 11076                           ;main.c: 652: void UART_TxBoolDataPacket(unsigned char dataPacket[5]);main.c: 653: {;mai
      +                          n.c: 654:     txAttempts = 0;
 11077  1D89  01FA               	clrf	_txAttempts
 11078                           
 11079                           ;main.c: 655:     retransmissionCounter = 0;
 11080  1D8A  1683               	bsf	3,5	;RP0=1, select bank3
 11081  1D8B  1703               	bsf	3,6	;RP1=1, select bank3
 11082  1D8C  019B               	clrf	_retransmissionCounter^(0+384)
 11083  1D8D  019C               	clrf	(_retransmissionCounter+1)^(0+384)
 11084                           
 11085                           ;main.c: 659:     while(txAttempts<1)
 11086  1D8E  2DE6               	goto	l383
 11087  1D8F                     l384:
 11088                           
 11089                           ;main.c: 660:     {;main.c: 661:         flagsSerial |= 0x04;
 11090  1D8F  1683               	bsf	3,5	;RP0=1, select bank1
 11091  1D90  1303               	bcf	3,6	;RP1=0, select bank1
 11092  1D91  1563               	bsf	_flagsSerial^(0+128),2
 11093  1D92                     l3921:	
 11094                           ;main.c: 663:         while (retransmissionCounter < (txAttempts*1*300));
 11095                           
 11096  1D92  087A               	movf	_txAttempts,w
 11097  1D93  1283               	bcf	3,5	;RP0=0, select bank0
 11098  1D94  1303               	bcf	3,6	;RP1=0, select bank0
 11099  1D95  00A2               	movwf	??_UART_TxBoolDataPacket
 11100  1D96  01A3               	clrf	??_UART_TxBoolDataPacket+1
 11101  1D97  0822               	movf	??_UART_TxBoolDataPacket,w
 11102  1D98  00F3               	movwf	___wmul@multiplier
 11103  1D99  0823               	movf	??_UART_TxBoolDataPacket+1,w
 11104  1D9A  00F4               	movwf	___wmul@multiplier+1
 11105  1D9B  302C               	movlw	44
 11106  1D9C  00F5               	movwf	___wmul@multiplicand
 11107  1D9D  3001               	movlw	1
 11108  1D9E  00F6               	movwf	___wmul@multiplicand+1
 11109  1D9F  160A  158A  22DC  160A  158A  	fcall	___wmul
 11110  1DA4  0874               	movf	?___wmul+1,w
 11111  1DA5  1683               	bsf	3,5	;RP0=1, select bank3
 11112  1DA6  1703               	bsf	3,6	;RP1=1, select bank3
 11113  1DA7  021C               	subwf	(_retransmissionCounter+1)^(0+384),w
 11114  1DA8  1D03               	skipz
 11115  1DA9  2DAC               	goto	u5745
 11116  1DAA  0873               	movf	?___wmul,w
 11117  1DAB  021B               	subwf	_retransmissionCounter^(0+384),w
 11118  1DAC                     u5745:
 11119  1DAC  1C03               	skipc
 11120  1DAD  2DAF               	goto	u5741
 11121  1DAE  2DB0               	goto	u5740
 11122  1DAF                     u5741:
 11123  1DAF  2D92               	goto	l3921
 11124  1DB0                     u5740:
 11125  1DB0                     l3923:
 11126                           
 11127                           ;main.c: 664:         retransmissionCounter = 0;
 11128  1DB0  019B               	clrf	_retransmissionCounter^(0+384)
 11129  1DB1  019C               	clrf	(_retransmissionCounter+1)^(0+384)
 11130  1DB2                     l3925:
 11131                           
 11132                           ;main.c: 665:         flagsSerial &= ~0x04;
 11133  1DB2  30FB               	movlw	251
 11134  1DB3  1283               	bcf	3,5	;RP0=0, select bank0
 11135  1DB4  1303               	bcf	3,6	;RP1=0, select bank0
 11136  1DB5  00A2               	movwf	??_UART_TxBoolDataPacket
 11137  1DB6  0822               	movf	??_UART_TxBoolDataPacket,w
 11138  1DB7  1683               	bsf	3,5	;RP0=1, select bank1
 11139  1DB8  1303               	bcf	3,6	;RP1=0, select bank1
 11140  1DB9  05E3               	andwf	_flagsSerial^(0+128),f
 11141  1DBA                     l3927:
 11142                           
 11143                           ;main.c: 666:         txSuccess = 1;
 11144  1DBA  01E8               	clrf	_txSuccess^(0+128)
 11145  1DBB  0AE8               	incf	_txSuccess^(0+128),f
 11146  1DBC                     l3929:
 11147                           
 11148                           ;main.c: 667:         for(i=0;i<5;i++)
 11149  1DBC  01F8               	clrf	_i
 11150  1DBD                     l3931:
 11151  1DBD  3005               	movlw	5
 11152  1DBE  0278               	subwf	_i,w
 11153  1DBF  1C03               	skipc
 11154  1DC0  2DC2               	goto	u5751
 11155  1DC1  2DC3               	goto	u5750
 11156  1DC2                     u5751:
 11157  1DC2  2DC4               	goto	l3935
 11158  1DC3                     u5750:
 11159  1DC3  2DD8               	goto	l3941
 11160  1DC4                     l3935:
 11161                           
 11162                           ;main.c: 668:         {;main.c: 669:             UART_TxChar(dataPacket[i]);
 11163  1DC4  0878               	movf	_i,w
 11164  1DC5  0777               	addwf	UART_TxBoolDataPacket@dataPacket,w
 11165  1DC6  1283               	bcf	3,5	;RP0=0, select bank0
 11166  1DC7  00A2               	movwf	??_UART_TxBoolDataPacket
 11167  1DC8  0822               	movf	??_UART_TxBoolDataPacket,w
 11168  1DC9  0084               	movwf	4
 11169  1DCA  1783               	bsf	3,7	;select IRP bank2
 11170  1DCB  0800               	movf	0,w
 11171  1DCC  120A  118A  27CC  160A  158A  	fcall	_UART_TxChar
 11172  1DD1                     l3937:
 11173                           
 11174                           ;main.c: 670:         }
 11175  1DD1  3001               	movlw	1
 11176  1DD2  1283               	bcf	3,5	;RP0=0, select bank0
 11177  1DD3  1303               	bcf	3,6	;RP1=0, select bank0
 11178  1DD4  00A2               	movwf	??_UART_TxBoolDataPacket
 11179  1DD5  0822               	movf	??_UART_TxBoolDataPacket,w
 11180  1DD6  07F8               	addwf	_i,f
 11181  1DD7  2DBD               	goto	l3931
 11182  1DD8                     l3941:
 11183                           
 11184                           ;main.c: 671:         if(txSuccess) break;
 11185  1DD8  1683               	bsf	3,5	;RP0=1, select bank1
 11186  1DD9  1303               	bcf	3,6	;RP1=0, select bank1
 11187  1DDA  0868               	movf	_txSuccess^(0+128),w
 11188  1DDB  1903               	btfsc	3,2
 11189  1DDC  2DDE               	goto	u5761
 11190  1DDD  2DDF               	goto	u5760
 11191  1DDE                     u5761:
 11192  1DDE  2DE0               	goto	l3945
 11193  1DDF                     u5760:
 11194  1DDF  2DEB               	goto	l392
 11195  1DE0                     l3945:
 11196                           
 11197                           ;main.c: 672:         txAttempts++;
 11198  1DE0  3001               	movlw	1
 11199  1DE1  1283               	bcf	3,5	;RP0=0, select bank0
 11200  1DE2  1303               	bcf	3,6	;RP1=0, select bank0
 11201  1DE3  00A2               	movwf	??_UART_TxBoolDataPacket
 11202  1DE4  0822               	movf	??_UART_TxBoolDataPacket,w
 11203  1DE5  07FA               	addwf	_txAttempts,f
 11204  1DE6                     l383:	
 11205                           ;main.c: 673:     }
 11206                           
 11207                           
 11208                           ;main.c: 659:     while(txAttempts<1)
 11209  1DE6  087A               	movf	_txAttempts,w
 11210  1DE7  1903               	btfsc	3,2
 11211  1DE8  2DEA               	goto	u5771
 11212  1DE9  2DEB               	goto	u5770
 11213  1DEA                     u5771:
 11214  1DEA  2D8F               	goto	l384
 11215  1DEB                     u5770:
 11216  1DEB                     l392:
 11217  1DEB  0008               	return
 11218  1DEC                     __end_of_UART_TxBoolDataPacket:
 11219                           
 11220                           	psect	text38
 11221  1ADC                     __ptext38:	
 11222 ;; *************** function ___wmul *****************
 11223 ;; Defined at:
 11224 ;;		line 15 in file "C:\Program Files\Microchip\xc8\v2.32\pic\sources\c90\common\Umul16.c"
 11225 ;; Parameters:    Size  Location     Type
 11226 ;;  multiplier      2    3[COMMON] unsigned int 
 11227 ;;  multiplicand    2    5[COMMON] unsigned int 
 11228 ;; Auto vars:     Size  Location     Type
 11229 ;;  product         2    0[BANK0 ] unsigned int 
 11230 ;; Return value:  Size  Location     Type
 11231 ;;                  2    3[COMMON] unsigned int 
 11232 ;; Registers used:
 11233 ;;		wreg, status,2, status,0
 11234 ;; Tracked objects:
 11235 ;;		On entry : 0/0
 11236 ;;		On exit  : 0/0
 11237 ;;		Unchanged: 0/0
 11238 ;; Data sizes:     COMMON   BANK0   BANK1   BANK3   BANK2
 11239 ;;      Params:         4       0       0       0       0
 11240 ;;      Locals:         0       2       0       0       0
 11241 ;;      Temps:          0       0       0       0       0
 11242 ;;      Totals:         4       2       0       0       0
 11243 ;;Total ram usage:        6 bytes
 11244 ;; Hardware stack levels used: 1
 11245 ;; Hardware stack levels required when called: 1
 11246 ;; This function calls:
 11247 ;;		Nothing
 11248 ;; This function is called by:
 11249 ;;		_UpdateLCDViewWithNumber
 11250 ;;		_UART_TxTempHumDataPacket
 11251 ;;		_UART_TxDesiredTempDataPacket
 11252 ;;		_UART_TxBoolDataPacket
 11253 ;; This function uses a non-reentrant model
 11254 ;;
 11255                           
 11256                           
 11257                           ;psect for function ___wmul
 11258  1ADC                     ___wmul:
 11259  1ADC                     l3701:	
 11260                           ;incstack = 0
 11261                           ; Regs used in ___wmul: [wreg+status,2+status,0]
 11262                           
 11263  1ADC  1283               	bcf	3,5	;RP0=0, select bank0
 11264  1ADD  1303               	bcf	3,6	;RP1=0, select bank0
 11265  1ADE  01A0               	clrf	___wmul@product
 11266  1ADF  01A1               	clrf	___wmul@product+1
 11267  1AE0                     l3703:
 11268  1AE0  1C73               	btfss	___wmul@multiplier,0
 11269  1AE1  2AE3               	goto	u5241
 11270  1AE2  2AE4               	goto	u5240
 11271  1AE3                     u5241:
 11272  1AE3  2AEC               	goto	l513
 11273  1AE4                     u5240:
 11274  1AE4                     l3705:
 11275  1AE4  0875               	movf	___wmul@multiplicand,w
 11276  1AE5  1283               	bcf	3,5	;RP0=0, select bank0
 11277  1AE6  1303               	bcf	3,6	;RP1=0, select bank0
 11278  1AE7  07A0               	addwf	___wmul@product,f
 11279  1AE8  1803               	skipnc
 11280  1AE9  0AA1               	incf	___wmul@product+1,f
 11281  1AEA  0876               	movf	___wmul@multiplicand+1,w
 11282  1AEB  07A1               	addwf	___wmul@product+1,f
 11283  1AEC                     l513:
 11284  1AEC  3001               	movlw	1
 11285  1AED                     u5255:
 11286  1AED  1003               	clrc
 11287  1AEE  0DF5               	rlf	___wmul@multiplicand,f
 11288  1AEF  0DF6               	rlf	___wmul@multiplicand+1,f
 11289  1AF0  3EFF               	addlw	-1
 11290  1AF1  1D03               	skipz
 11291  1AF2  2AED               	goto	u5255
 11292  1AF3                     l3707:
 11293  1AF3  3001               	movlw	1
 11294  1AF4                     u5265:
 11295  1AF4  1003               	clrc
 11296  1AF5  0CF4               	rrf	___wmul@multiplier+1,f
 11297  1AF6  0CF3               	rrf	___wmul@multiplier,f
 11298  1AF7  3EFF               	addlw	-1
 11299  1AF8  1D03               	skipz
 11300  1AF9  2AF4               	goto	u5265
 11301  1AFA                     l3709:
 11302  1AFA  0873               	movf	___wmul@multiplier,w
 11303  1AFB  0474               	iorwf	___wmul@multiplier+1,w
 11304  1AFC  1D03               	btfss	3,2
 11305  1AFD  2AFF               	goto	u5271
 11306  1AFE  2B00               	goto	u5270
 11307  1AFF                     u5271:
 11308  1AFF  2AE0               	goto	l3703
 11309  1B00                     u5270:
 11310  1B00                     l3711:
 11311  1B00  1283               	bcf	3,5	;RP0=0, select bank0
 11312  1B01  1303               	bcf	3,6	;RP1=0, select bank0
 11313  1B02  0821               	movf	___wmul@product+1,w
 11314  1B03  00F4               	movwf	?___wmul+1
 11315  1B04  0820               	movf	___wmul@product,w
 11316  1B05  00F3               	movwf	?___wmul
 11317  1B06                     l515:
 11318  1B06  0008               	return
 11319  1B07                     __end_of___wmul:
 11320                           
 11321                           	psect	text39
 11322  07CC                     __ptext39:	
 11323 ;; *************** function _UART_TxChar *****************
 11324 ;; Defined at:
 11325 ;;		line 588 in file "main.c"
 11326 ;; Parameters:    Size  Location     Type
 11327 ;;  ch              1    wreg     unsigned char 
 11328 ;; Auto vars:     Size  Location     Type
 11329 ;;  ch              1    4[COMMON] unsigned char 
 11330 ;; Return value:  Size  Location     Type
 11331 ;;                  1    wreg      void 
 11332 ;; Registers used:
 11333 ;;		wreg, status,2, status,0
 11334 ;; Tracked objects:
 11335 ;;		On entry : 0/0
 11336 ;;		On exit  : 0/0
 11337 ;;		Unchanged: 0/0
 11338 ;; Data sizes:     COMMON   BANK0   BANK1   BANK3   BANK2
 11339 ;;      Params:         0       0       0       0       0
 11340 ;;      Locals:         1       0       0       0       0
 11341 ;;      Temps:          1       0       0       0       0
 11342 ;;      Totals:         2       0       0       0       0
 11343 ;;Total ram usage:        2 bytes
 11344 ;; Hardware stack levels used: 1
 11345 ;; Hardware stack levels required when called: 1
 11346 ;; This function calls:
 11347 ;;		Nothing
 11348 ;; This function is called by:
 11349 ;;		_UART_TxTempHumDataPacket
 11350 ;;		_UART_TxDesiredTempDataPacket
 11351 ;;		_UART_TxBoolDataPacket
 11352 ;; This function uses a non-reentrant model
 11353 ;;
 11354                           
 11355                           
 11356                           ;psect for function _UART_TxChar
 11357  07CC                     _UART_TxChar:
 11358                           
 11359                           ;incstack = 0
 11360                           ; Regs used in _UART_TxChar: [wreg+status,2+status,0]
 11361                           ;UART_TxChar@ch stored from wreg
 11362  07CC  00F4               	movwf	UART_TxChar@ch
 11363  07CD                     l3685:
 11364                           
 11365                           ;main.c: 588: void UART_TxChar(unsigned char ch);main.c: 589: {;main.c: 590:     transmi
      +                          ttingData = ch;
 11366  07CD  0874               	movf	UART_TxChar@ch,w
 11367  07CE  00F3               	movwf	??_UART_TxChar
 11368  07CF  0873               	movf	??_UART_TxChar,w
 11369  07D0  1683               	bsf	3,5	;RP0=1, select bank1
 11370  07D1  1303               	bcf	3,6	;RP1=0, select bank1
 11371  07D2  00D3               	movwf	_transmittingData^(0+128)
 11372  07D3                     l3687:
 11373                           
 11374                           ;main.c: 591:     transmissionCounter = 0;
 11375  07D3  1683               	bsf	3,5	;RP0=1, select bank3
 11376  07D4  1703               	bsf	3,6	;RP1=1, select bank3
 11377  07D5  019D               	clrf	_transmissionCounter^(0+384)
 11378  07D6  019E               	clrf	(_transmissionCounter+1)^(0+384)
 11379  07D7                     l3689:
 11380                           
 11381                           ;main.c: 592:     PORTE=0x01;
 11382  07D7  3001               	movlw	1
 11383  07D8  1283               	bcf	3,5	;RP0=0, select bank0
 11384  07D9  1303               	bcf	3,6	;RP1=0, select bank0
 11385  07DA  0089               	movwf	9	;volatile
 11386  07DB                     l350:	
 11387                           ;main.c: 593:     while(!TXIF);
 11388                           
 11389  07DB  1E0C               	btfss	12,4	;volatile
 11390  07DC  2FDE               	goto	u5221
 11391  07DD  2FDF               	goto	u5220
 11392  07DE                     u5221:
 11393  07DE  2FDB               	goto	l350
 11394  07DF                     u5220:
 11395  07DF                     l352:
 11396                           
 11397                           ;main.c: 594:     flagsSerial |= 0x02;
 11398  07DF  1683               	bsf	3,5	;RP0=1, select bank1
 11399  07E0  1303               	bcf	3,6	;RP1=0, select bank1
 11400  07E1  14E3               	bsf	_flagsSerial^(0+128),1
 11401  07E2                     l3691:
 11402                           
 11403                           ;main.c: 595:     TXREG=ch;
 11404  07E2  0874               	movf	UART_TxChar@ch,w
 11405  07E3  1283               	bcf	3,5	;RP0=0, select bank0
 11406  07E4  1303               	bcf	3,6	;RP1=0, select bank0
 11407  07E5  0099               	movwf	25	;volatile
 11408  07E6                     l3693:	
 11409                           ;main.c: 597:     while(transmissionCounter<7);
 11410                           
 11411  07E6  3000               	movlw	0
 11412  07E7  1683               	bsf	3,5	;RP0=1, select bank3
 11413  07E8  1703               	bsf	3,6	;RP1=1, select bank3
 11414  07E9  021E               	subwf	(_transmissionCounter+1)^(0+384),w
 11415  07EA  3007               	movlw	7
 11416  07EB  1903               	skipnz
 11417  07EC  021D               	subwf	_transmissionCounter^(0+384),w
 11418  07ED  1C03               	skipc
 11419  07EE  2FF0               	goto	u5231
 11420  07EF  2FF1               	goto	u5230
 11421  07F0                     u5231:
 11422  07F0  2FE6               	goto	l3693
 11423  07F1                     u5230:
 11424  07F1                     l3695:
 11425                           
 11426                           ;main.c: 598:     flagsSerial &= ~0x02;
 11427  07F1  30FD               	movlw	253
 11428  07F2  00F3               	movwf	??_UART_TxChar
 11429  07F3  0873               	movf	??_UART_TxChar,w
 11430  07F4  1683               	bsf	3,5	;RP0=1, select bank1
 11431  07F5  1303               	bcf	3,6	;RP1=0, select bank1
 11432  07F6  05E3               	andwf	_flagsSerial^(0+128),f
 11433  07F7                     l3697:
 11434                           
 11435                           ;main.c: 599:     transmissionCounter = 0;
 11436  07F7  1683               	bsf	3,5	;RP0=1, select bank3
 11437  07F8  1703               	bsf	3,6	;RP1=1, select bank3
 11438  07F9  019D               	clrf	_transmissionCounter^(0+384)
 11439  07FA  019E               	clrf	(_transmissionCounter+1)^(0+384)
 11440  07FB                     l3699:
 11441                           
 11442                           ;main.c: 600:     PORTE = 0x00;
 11443  07FB  1283               	bcf	3,5	;RP0=0, select bank0
 11444  07FC  1303               	bcf	3,6	;RP1=0, select bank0
 11445  07FD  0189               	clrf	9	;volatile
 11446  07FE                     l356:
 11447  07FE  0008               	return
 11448  07FF                     __end_of_UART_TxChar:
 11449                           
 11450                           	psect	text40
 11451  1A75                     __ptext40:	
 11452 ;; *************** function _PrepareBoolDataPacket *****************
 11453 ;; Defined at:
 11454 ;;		line 697 in file "main.c"
 11455 ;; Parameters:    Size  Location     Type
 11456 ;;  type            1    wreg     unsigned char 
 11457 ;;  state           1    3[COMMON] unsigned char 
 11458 ;; Auto vars:     Size  Location     Type
 11459 ;;  type            1    5[COMMON] unsigned char 
 11460 ;; Return value:  Size  Location     Type
 11461 ;;                  1    wreg      void 
 11462 ;; Registers used:
 11463 ;;		wreg
 11464 ;; Tracked objects:
 11465 ;;		On entry : 0/0
 11466 ;;		On exit  : 0/0
 11467 ;;		Unchanged: 0/0
 11468 ;; Data sizes:     COMMON   BANK0   BANK1   BANK3   BANK2
 11469 ;;      Params:         1       0       0       0       0
 11470 ;;      Locals:         1       0       0       0       0
 11471 ;;      Temps:          1       0       0       0       0
 11472 ;;      Totals:         3       0       0       0       0
 11473 ;;Total ram usage:        3 bytes
 11474 ;; Hardware stack levels used: 1
 11475 ;; Hardware stack levels required when called: 1
 11476 ;; This function calls:
 11477 ;;		Nothing
 11478 ;; This function is called by:
 11479 ;;		_CheckAlarmButton
 11480 ;;		_CheckOpenDoorButton
 11481 ;;		_HandleRequest
 11482 ;; This function uses a non-reentrant model
 11483 ;;
 11484                           
 11485                           
 11486                           ;psect for function _PrepareBoolDataPacket
 11487  1A75                     _PrepareBoolDataPacket:
 11488                           
 11489                           ;incstack = 0
 11490                           ; Regs used in _PrepareBoolDataPacket: [wreg]
 11491                           ;PrepareBoolDataPacket@type stored from wreg
 11492  1A75  00F5               	movwf	PrepareBoolDataPacket@type
 11493  1A76                     l2993:
 11494                           
 11495                           ;main.c: 697: void PrepareBoolDataPacket(char type, char state);main.c: 698: {;main.c: 6
      +                          99:     boolDataPacketTx[0] = 0xFF;
 11496  1A76  30FF               	movlw	255
 11497  1A77  00F4               	movwf	??_PrepareBoolDataPacket
 11498  1A78  0874               	movf	??_PrepareBoolDataPacket,w
 11499  1A79  1683               	bsf	3,5	;RP0=1, select bank3
 11500  1A7A  1703               	bsf	3,6	;RP1=1, select bank3
 11501  1A7B  00B9               	movwf	_boolDataPacketTx^(0+384)
 11502  1A7C                     l2995:
 11503                           
 11504                           ;main.c: 700:     boolDataPacketTx[1] = 1;
 11505  1A7C  01BA               	clrf	(_boolDataPacketTx^(0+384)+1)
 11506  1A7D  0ABA               	incf	(_boolDataPacketTx^(0+384)+1),f
 11507                           
 11508                           ;main.c: 701:     boolDataPacketTx[2] = type;
 11509  1A7E  0875               	movf	PrepareBoolDataPacket@type,w
 11510  1A7F  00F4               	movwf	??_PrepareBoolDataPacket
 11511  1A80  0874               	movf	??_PrepareBoolDataPacket,w
 11512  1A81  00BB               	movwf	(_boolDataPacketTx^(0+384)+2)
 11513                           
 11514                           ;main.c: 702:     boolDataPacketTx[3] = state;
 11515  1A82  0873               	movf	PrepareBoolDataPacket@state,w
 11516  1A83  00F4               	movwf	??_PrepareBoolDataPacket
 11517  1A84  0874               	movf	??_PrepareBoolDataPacket,w
 11518  1A85  00BC               	movwf	(_boolDataPacketTx^(0+384)+3)
 11519                           
 11520                           ;main.c: 703:     boolDataPacketTx[4] = 0xFE;
 11521  1A86  30FE               	movlw	254
 11522  1A87  00F4               	movwf	??_PrepareBoolDataPacket
 11523  1A88  0874               	movf	??_PrepareBoolDataPacket,w
 11524  1A89  00BD               	movwf	(_boolDataPacketTx^(0+384)+4)
 11525  1A8A                     l400:
 11526  1A8A  0008               	return
 11527  1A8B                     __end_of_PrepareBoolDataPacket:
 11528                           
 11529                           	psect	text41
 11530  1228                     __ptext41:	
 11531 ;; *************** function _ISR *****************
 11532 ;; Defined at:
 11533 ;;		line 203 in file "main.c"
 11534 ;; Parameters:    Size  Location     Type
 11535 ;;		None
 11536 ;; Auto vars:     Size  Location     Type
 11537 ;;		None
 11538 ;; Return value:  Size  Location     Type
 11539 ;;                  1    wreg      void 
 11540 ;; Registers used:
 11541 ;;		wreg, status,2, status,0
 11542 ;; Tracked objects:
 11543 ;;		On entry : 0/0
 11544 ;;		On exit  : 0/0
 11545 ;;		Unchanged: 0/0
 11546 ;; Data sizes:     COMMON   BANK0   BANK1   BANK3   BANK2
 11547 ;;      Params:         0       0       0       0       0
 11548 ;;      Locals:         0       0       0       0       0
 11549 ;;      Temps:          3       0       0       0       0
 11550 ;;      Totals:         3       0       0       0       0
 11551 ;;Total ram usage:        3 bytes
 11552 ;; Hardware stack levels used: 1
 11553 ;; This function calls:
 11554 ;;		Nothing
 11555 ;; This function is called by:
 11556 ;;		Interrupt level 1
 11557 ;; This function uses a non-reentrant model
 11558 ;;
 11559                           
 11560                           
 11561                           ;psect for function _ISR
 11562  1228                     _ISR:
 11563  1228                     i1l3617:
 11564                           
 11565                           ;main.c: 205:     if(RCIF && !(flagsSerial & 0x02))
 11566  1228  1283               	bcf	3,5	;RP0=0, select bank0
 11567  1229  1303               	bcf	3,6	;RP1=0, select bank0
 11568  122A  1E8C               	btfss	12,5	;volatile
 11569  122B  2A2D               	goto	u510_21
 11570  122C  2A2E               	goto	u510_20
 11571  122D                     u510_21:
 11572  122D  2A3D               	goto	i1l3625
 11573  122E                     u510_20:
 11574  122E                     i1l3619:
 11575  122E  1683               	bsf	3,5	;RP0=1, select bank1
 11576  122F  1303               	bcf	3,6	;RP1=0, select bank1
 11577  1230  18E3               	btfsc	_flagsSerial^(0+128),1
 11578  1231  2A33               	goto	u511_21
 11579  1232  2A34               	goto	u511_20
 11580  1233                     u511_21:
 11581  1233  2A3D               	goto	i1l3625
 11582  1234                     u511_20:
 11583  1234                     i1l3621:
 11584                           
 11585                           ;main.c: 206:     {;main.c: 207:         receivedData = RCREG;
 11586  1234  1283               	bcf	3,5	;RP0=0, select bank0
 11587  1235  1303               	bcf	3,6	;RP1=0, select bank0
 11588  1236  081A               	movf	26,w	;volatile
 11589  1237  00F0               	movwf	??_ISR
 11590  1238  0870               	movf	??_ISR,w
 11591  1239  1683               	bsf	3,5	;RP0=1, select bank1
 11592  123A  1303               	bcf	3,6	;RP1=0, select bank1
 11593  123B  00D5               	movwf	_receivedData^(0+128)
 11594  123C                     i1l3623:
 11595                           
 11596                           ;main.c: 208:         flagsSerial |= 1<<0x01;
 11597  123C  14E3               	bsf	_flagsSerial^(0+128),1
 11598  123D                     i1l3625:
 11599                           
 11600                           ;main.c: 210:     if(TXIF && transmissionCounter>5)
 11601  123D  1283               	bcf	3,5	;RP0=0, select bank0
 11602  123E  1E0C               	btfss	12,4	;volatile
 11603  123F  2A41               	goto	u512_21
 11604  1240  2A42               	goto	u512_20
 11605  1241                     u512_21:
 11606  1241  2A5C               	goto	i1l3633
 11607  1242                     u512_20:
 11608  1242                     i1l3627:
 11609  1242  3000               	movlw	0
 11610  1243  1683               	bsf	3,5	;RP0=1, select bank3
 11611  1244  1703               	bsf	3,6	;RP1=1, select bank3
 11612  1245  021E               	subwf	(_transmissionCounter+1)^(0+384),w
 11613  1246  3006               	movlw	6
 11614  1247  1903               	skipnz
 11615  1248  021D               	subwf	_transmissionCounter^(0+384),w
 11616  1249  1C03               	skipc
 11617  124A  2A4C               	goto	u513_21
 11618  124B  2A4D               	goto	u513_20
 11619  124C                     u513_21:
 11620  124C  2A5C               	goto	i1l3633
 11621  124D                     u513_20:
 11622  124D                     i1l3629:
 11623                           
 11624                           ;main.c: 211:     {;main.c: 212:         txReceivedData=RCREG;
 11625  124D  1283               	bcf	3,5	;RP0=0, select bank0
 11626  124E  1303               	bcf	3,6	;RP1=0, select bank0
 11627  124F  081A               	movf	26,w	;volatile
 11628  1250  00F0               	movwf	??_ISR
 11629  1251  0870               	movf	??_ISR,w
 11630  1252  1683               	bsf	3,5	;RP0=1, select bank1
 11631  1253  1303               	bcf	3,6	;RP1=0, select bank1
 11632  1254  00D4               	movwf	_txReceivedData^(0+128)
 11633                           
 11634                           ;main.c: 213:         if(txReceivedData != transmittingData) txSuccess=0;
 11635  1255  0854               	movf	_txReceivedData^(0+128),w
 11636  1256  0653               	xorwf	_transmittingData^(0+128),w
 11637  1257  1903               	skipnz
 11638  1258  2A5A               	goto	u514_21
 11639  1259  2A5B               	goto	u514_20
 11640  125A                     u514_21:
 11641  125A  2A5C               	goto	i1l3633
 11642  125B                     u514_20:
 11643  125B                     i1l3631:
 11644  125B  01E8               	clrf	_txSuccess^(0+128)
 11645  125C                     i1l3633:
 11646                           
 11647                           ;main.c: 215:     if(INTCON & 0x04)
 11648  125C  1D0B               	btfss	11,2	;volatile
 11649  125D  2A5F               	goto	u515_21
 11650  125E  2A60               	goto	u515_20
 11651  125F                     u515_21:
 11652  125F  2AB7               	goto	i1l219
 11653  1260                     u515_20:
 11654  1260                     i1l3635:
 11655                           
 11656                           ;main.c: 216:     {;main.c: 217:         if(flagsSerial & 0x02) transmissionCounter++;
 11657  1260  1683               	bsf	3,5	;RP0=1, select bank1
 11658  1261  1303               	bcf	3,6	;RP1=0, select bank1
 11659  1262  1CE3               	btfss	_flagsSerial^(0+128),1
 11660  1263  2A65               	goto	u516_21
 11661  1264  2A66               	goto	u516_20
 11662  1265                     u516_21:
 11663  1265  2A6E               	goto	i1l3639
 11664  1266                     u516_20:
 11665  1266                     i1l3637:
 11666  1266  3001               	movlw	1
 11667  1267  1683               	bsf	3,5	;RP0=1, select bank3
 11668  1268  1703               	bsf	3,6	;RP1=1, select bank3
 11669  1269  079D               	addwf	_transmissionCounter^(0+384),f
 11670  126A  1803               	skipnc
 11671  126B  0A9E               	incf	(_transmissionCounter+1)^(0+384),f
 11672  126C  3000               	movlw	0
 11673  126D  079E               	addwf	(_transmissionCounter+1)^(0+384),f
 11674  126E                     i1l3639:
 11675                           
 11676                           ;main.c: 218:         if(flagsSerial & 0x04) retransmissionCounter++;
 11677  126E  1303               	bcf	3,6	;RP1=0, select bank1
 11678  126F  1D63               	btfss	_flagsSerial^(0+128),2
 11679  1270  2A72               	goto	u517_21
 11680  1271  2A73               	goto	u517_20
 11681  1272                     u517_21:
 11682  1272  2A7B               	goto	i1l3643
 11683  1273                     u517_20:
 11684  1273                     i1l3641:
 11685  1273  3001               	movlw	1
 11686  1274  1683               	bsf	3,5	;RP0=1, select bank3
 11687  1275  1703               	bsf	3,6	;RP1=1, select bank3
 11688  1276  079B               	addwf	_retransmissionCounter^(0+384),f
 11689  1277  1803               	skipnc
 11690  1278  0A9C               	incf	(_retransmissionCounter+1)^(0+384),f
 11691  1279  3000               	movlw	0
 11692  127A  079C               	addwf	(_retransmissionCounter+1)^(0+384),f
 11693  127B                     i1l3643:
 11694                           
 11695                           ;main.c: 219:         if(flagsSerial & 0x08) addressTransmissionCounter++;
 11696  127B  1303               	bcf	3,6	;RP1=0, select bank1
 11697  127C  1DE3               	btfss	_flagsSerial^(0+128),3
 11698  127D  2A7F               	goto	u518_21
 11699  127E  2A80               	goto	u518_20
 11700  127F                     u518_21:
 11701  127F  2A88               	goto	i1l3647
 11702  1280                     u518_20:
 11703  1280                     i1l3645:
 11704  1280  3001               	movlw	1
 11705  1281  1683               	bsf	3,5	;RP0=1, select bank3
 11706  1282  1703               	bsf	3,6	;RP1=1, select bank3
 11707  1283  0799               	addwf	_addressTransmissionCounter^(0+384),f
 11708  1284  1803               	skipnc
 11709  1285  0A9A               	incf	(_addressTransmissionCounter+1)^(0+384),f
 11710  1286  3000               	movlw	0
 11711  1287  079A               	addwf	(_addressTransmissionCounter+1)^(0+384),f
 11712  1288                     i1l3647:
 11713                           
 11714                           ;main.c: 221:         if(flags & 0x02)
 11715  1288  1303               	bcf	3,6	;RP1=0, select bank1
 11716  1289  1CE2               	btfss	_flags^(0+128),1
 11717  128A  2A8C               	goto	u519_21
 11718  128B  2A8D               	goto	u519_20
 11719  128C                     u519_21:
 11720  128C  2A95               	goto	i1l3651
 11721  128D                     u519_20:
 11722  128D                     i1l3649:
 11723                           
 11724                           ;main.c: 222:             counterAntibouncing++;
 11725  128D  3001               	movlw	1
 11726  128E  1683               	bsf	3,5	;RP0=1, select bank3
 11727  128F  1703               	bsf	3,6	;RP1=1, select bank3
 11728  1290  07A9               	addwf	_counterAntibouncing^(0+384),f
 11729  1291  1803               	skipnc
 11730  1292  0AAA               	incf	(_counterAntibouncing+1)^(0+384),f
 11731  1293  3000               	movlw	0
 11732  1294  07AA               	addwf	(_counterAntibouncing+1)^(0+384),f
 11733  1295                     i1l3651:
 11734                           
 11735                           ;main.c: 224:         if(dutyCounter >= 255) dutyCounter = 0;
 11736  1295  1303               	bcf	3,6	;RP1=0, select bank1
 11737  1296  0A5C               	incf	_dutyCounter^(0+128),w
 11738  1297  1D03               	btfss	3,2
 11739  1298  2A9A               	goto	u520_21
 11740  1299  2A9B               	goto	u520_20
 11741  129A                     u520_21:
 11742  129A  2A9D               	goto	i1l3655
 11743  129B                     u520_20:
 11744  129B                     i1l3653:
 11745  129B  01DC               	clrf	_dutyCounter^(0+128)
 11746  129C  2AA1               	goto	i1l218
 11747  129D                     i1l3655:
 11748  129D  3001               	movlw	1
 11749  129E  00F0               	movwf	??_ISR
 11750  129F  0870               	movf	??_ISR,w
 11751  12A0  07DC               	addwf	_dutyCounter^(0+128),f
 11752  12A1                     i1l218:
 11753                           
 11754                           ;main.c: 227:         INTCON &= ~0x04;
 11755  12A1  30FB               	movlw	251
 11756  12A2  00F0               	movwf	??_ISR
 11757  12A3  0870               	movf	??_ISR,w
 11758  12A4  058B               	andwf	11,f	;volatile
 11759  12A5                     i1l3657:
 11760                           
 11761                           ;main.c: 228:         TMR0 = 178;
 11762  12A5  30B2               	movlw	178
 11763  12A6  1283               	bcf	3,5	;RP0=0, select bank0
 11764  12A7  1303               	bcf	3,6	;RP1=0, select bank0
 11765  12A8  0081               	movwf	1	;volatile
 11766  12A9                     i1l3659:
 11767                           
 11768                           ;main.c: 229:         postScalerTemp++;
 11769  12A9  3001               	movlw	1
 11770  12AA  1683               	bsf	3,5	;RP0=1, select bank3
 11771  12AB  1703               	bsf	3,6	;RP1=1, select bank3
 11772  12AC  07A1               	addwf	_postScalerTemp^(0+384),f
 11773  12AD  1803               	skipnc
 11774  12AE  0AA2               	incf	(_postScalerTemp+1)^(0+384),f
 11775  12AF  3000               	movlw	0
 11776  12B0  07A2               	addwf	(_postScalerTemp+1)^(0+384),f
 11777  12B1                     i1l3661:
 11778                           
 11779                           ;main.c: 230:         postScalerHum++;
 11780  12B1  3001               	movlw	1
 11781  12B2  079F               	addwf	_postScalerHum^(0+384),f
 11782  12B3  1803               	skipnc
 11783  12B4  0AA0               	incf	(_postScalerHum+1)^(0+384),f
 11784  12B5  3000               	movlw	0
 11785  12B6  07A0               	addwf	(_postScalerHum+1)^(0+384),f
 11786  12B7                     i1l219:
 11787  12B7  0872               	movf	??_ISR+2,w
 11788  12B8  008A               	movwf	10
 11789  12B9  0E71               	swapf	??_ISR+1,w
 11790  12BA  0083               	movwf	3
 11791  12BB  0EFE               	swapf	btemp,f
 11792  12BC  0E7E               	swapf	btemp,w
 11793  12BD  0009               	retfie
 11794  12BE                     __end_of_ISR:
 11795  007E                     btemp	set	126	;btemp
 11796  007E                     wtemp0	set	126
 11797                           
 11798                           	psect	intentry
 11799  0004                     __pintentry:	
 11800                           ;incstack = 0
 11801                           ; Regs used in _ISR: [wreg+status,2+status,0]
 11802                           
 11803  0004                     interrupt_function:
 11804  007E                     saved_w	set	btemp
 11805  0004  00FE               	movwf	btemp
 11806  0005  0E03               	swapf	3,w
 11807  0006  00F1               	movwf	??_ISR+1
 11808  0007  080A               	movf	10,w
 11809  0008  00F2               	movwf	??_ISR+2
 11810  0009  160A  118A  2A28   	ljmp	_ISR
 11811                           
 11812                           	psect	config
 11813                           
 11814                           ;Config register CONFIG @ 0x2007
 11815                           ;	Oscillator Selection bits
 11816                           ;	FOSC = HS, HS oscillator
 11817                           ;	Watchdog Timer Enable bit
 11818                           ;	WDTE = OFF, WDT disabled
 11819                           ;	Power-up Timer Enable bit
 11820                           ;	PWRTE = ON, PWRT enabled
 11821                           ;	Brown-out Reset Enable bit
 11822                           ;	BOREN = ON, BOR enabled
 11823                           ;	Low-Voltage (Single-Supply) In-Circuit Serial Programming Enable bit
 11824                           ;	LVP = ON, RB3/PGM pin has PGM function; low-voltage programming enabled
 11825                           ;	Data EEPROM Memory Code Protection bit
 11826                           ;	CPD = OFF, Data EEPROM code protection off
 11827                           ;	Flash Program Memory Write Enable bits
 11828                           ;	WRT = OFF, Write protection off; all program memory may be written to by EECON control
 11829                           ;	In-Circuit Debugger Mode bit
 11830                           ;	DEBUG = 0x1, unprogrammed default
 11831                           ;	Flash Program Memory Code Protection bit
 11832                           ;	CP = OFF, Code protection off
 11833  2007                     	org	8199
 11834  2007  3FF2               	dw	16370

Data Sizes:
    Strings     93
    Constant    29
    Data        21
    BSS         67
    Persistent  0
    Stack       0

Auto Spaces:
    Space          Size  Autos    Used
    COMMON           14      8      11
    BANK0            80     80      80
    BANK1            80     50      75
    BANK3            96      8      68
    BANK2            96      0       0

Pointer List with Targets:

    UART_TxBoolDataPacket@dataPacket	PTR unsigned char  size(1) Largest target is 5
		 -> boolDataPacketTx(BANK3[5]), 

    UART_TxDesiredTempDataPacket@dataPacket	PTR unsigned char  size(1) Largest target is 6
		 -> desiredTempPacketTx(BANK3[6]), 

    UART_TxTempHumDataPacket@dataPacket	PTR unsigned char  size(1) Largest target is 8
		 -> tempHumDataPacketTx(BANK3[8]), 

    SendLCDString@string	PTR const unsigned char  size(1) Largest target is 33
		 -> STR_5(CODE[17]), STR_4(CODE[33]), STR_3(CODE[28]), STR_2(CODE[1]), 
		 -> STR_1(CODE[15]), 

    displays	PTR const unsigned char [4] size(1) Largest target is 33
		 -> STR_5(CODE[17]), STR_4(CODE[33]), STR_3(CODE[28]), STR_2(CODE[1]), 

    startDisplay	PTR const unsigned char  size(1) Largest target is 15
		 -> STR_1(CODE[15]), 


Critical Paths under _main in COMMON

    _main->_SendLCDString
    _main->_UART_Init
    _UART_Init->___aldiv
    _ReadTemperature->_ReadADC
    _HandleRequest->_UART_TxBoolDataPacket
    _HandleRequest->_UART_TxTempHumDataPacket
    _UART_TxTempHumDataPacket->___wmul
    _ManageDisplays->_SendLCDString
    ___flmul->_ReadADC
    _SendLCDString->_SendLCD
    _HandleKeypadReading->_UART_TxDesiredTempDataPacket
    _UART_TxDesiredTempDataPacket->___wmul
    ___xxtofl->_ReadADC
    _InitLCD->_SendLCD
    _CheckOpenDoorButton->_UART_TxBoolDataPacket
    _MotorRotation->_DriveMotor
    _CheckAlarmButton->_UART_TxBoolDataPacket
    _UART_TxBoolDataPacket->___wmul

Critical Paths under _ISR in COMMON

    None.

Critical Paths under _main in BANK0

    _UART_Init->___aldiv
    _ReadTemperature->___flmul
    _ReadHumidity->___flge
    _ManageTemperature->___flge
    _UART_TxTempHumDataPacket->___wmul
    _PrepareTempHumDataPacket->___fldiv
    _ManageDisplays->_HandleKeypadReading
    _UpdateLCDViewWithNumber->___fldiv
    ___flmul->___xxtofl
    ___flge->___fladd
    _UART_TxDesiredTempDataPacket->___wmul
    _PrepareDesiredTempDataPacket->___fldiv
    ___xxtofl->___wmul
    ___fltol->___flmul
    ___flsub->___fladd
    ___fladd->___fltol
    ___fldiv->___fladd
    _CheckOpenDoorButton->_MotorRotation
    _CheckOpenDoorButton->_UART_TxBoolDataPacket
    _CheckAlarmButton->_UART_TxBoolDataPacket
    _UART_TxBoolDataPacket->___wmul

Critical Paths under _ISR in BANK0

    None.

Critical Paths under _main in BANK1

    _UpdateTempHumDisplay->_UpdateLCDViewWithNumber
    _ReadHumidity->___flge
    _ManageTemperature->___flge
    _HandleRequest->_PrepareTempHumDataPacket
    _PrepareTempHumDataPacket->___fldiv
    _ManageDisplays->_UpdateLCDViewWithNumber
    _UpdateLCDViewWithNumber->___fldiv
    _HandleKeypadReading->_PrepareDesiredTempDataPacket
    _PrepareDesiredTempDataPacket->___fldiv
    ___fldiv->___flsub

Critical Paths under _ISR in BANK1

    None.

Critical Paths under _main in BANK3

    _ManageReceivedPacket->_HandleRequest

Critical Paths under _ISR in BANK3

    None.

Critical Paths under _main in BANK2

    None.

Critical Paths under _ISR in BANK2

    None.

Call Graph Tables:

 ---------------------------------------------------------------------------------
 (Depth) Function   	        Calls       Base Space   Used Autos Params    Refs
 ---------------------------------------------------------------------------------
 (0) _main                                                 1     1      0  134184
                                             49 BANK1      1     1      0
                   _CheckAlarmButton
                        _CheckKeypad
                _CheckOpenDoorButton
                            _InitADC
                            _InitLCD
                            _InitPic
                       _ManageCooler
                     _ManageDisplays
                       _ManageHeater
               _ManageReceivedPacket
                  _ManageTemperature
                       _ReadHumidity
                    _ReadTemperature
                      _SendLCDString
                          _UART_Init
               _UpdateTempHumDisplay
 ---------------------------------------------------------------------------------
 (1) _UpdateTempHumDisplay                                 0     0      0   19175
            _UpdateLCDViewWithNumber
 ---------------------------------------------------------------------------------
 (1) _UART_Init                                            8     4      4     746
                                              4 COMMON     4     4      0
                                             14 BANK0      4     0      4
                            ___aldiv
 ---------------------------------------------------------------------------------
 (2) ___aldiv                                             15     7      8     625
                                              3 COMMON     1     1      0
                                              0 BANK0     14     6      8
 ---------------------------------------------------------------------------------
 (1) _ReadTemperature                                      0     0      0    4401
                            _ReadADC
                            ___flmul
                           ___xxtofl
 ---------------------------------------------------------------------------------
 (2) _ReadADC                                              5     3      2      22
                                              3 COMMON     5     3      2
 ---------------------------------------------------------------------------------
 (1) _ReadHumidity                                         0     0      0    4438
                            ___fladd
                             ___flge
 ---------------------------------------------------------------------------------
 (1) _ManageTemperature                                    1     1      0    4438
                                             77 BANK0      1     1      0
                            ___fladd
                             ___flge
 ---------------------------------------------------------------------------------
 (1) _ManageReceivedPacket                                 1     1      0   48246
                                             78 BANK0      1     1      0
                      _HandleRequest
 ---------------------------------------------------------------------------------
 (2) _HandleRequest                                        8     8      0   48246
                                              0 BANK3      8     8      0
              _PrepareBoolDataPacket
           _PrepareTempHumDataPacket
              _UART_TxBoolDataPacket
           _UART_TxTempHumDataPacket
            _UpdateLCDViewWithNumber
                            ___fladd
                            ___flmul
                           ___xxtofl
 ---------------------------------------------------------------------------------
 (3) _UART_TxTempHumDataPacket                             3     3      0    1275
                                              7 COMMON     1     1      0
                                              2 BANK0      2     2      0
                        _UART_TxChar
                             ___wmul
 ---------------------------------------------------------------------------------
 (3) _PrepareTempHumDataPacket                            20    12      8   18698
                                             29 BANK1     20    12      8
                            ___fladd
                            ___fldiv
                             ___flge
                            ___flmul
                            ___flsub
                            ___fltol
                           ___xxtofl
 ---------------------------------------------------------------------------------
 (1) _ManageHeater                                         2     2      0      22
                                              3 COMMON     2     2      0
 ---------------------------------------------------------------------------------
 (1) _ManageDisplays                                       1     1      0   44505
                                             42 BANK1      1     1      0
                _HandleKeypadReading
                            _SendLCD
                      _SendLCDString
            _UpdateLCDViewWithNumber
 ---------------------------------------------------------------------------------
 (2) _UpdateLCDViewWithNumber                             13     9      4   19175
                                             29 BANK1     13     9      4
                            _SendLCD
                            ___fldiv
                             ___flge
                            ___flmul
                            ___flsub
                            ___fltol
                             ___wmul
                           ___xxtofl
 ---------------------------------------------------------------------------------
 (3) ___flmul                                             26    18      8    3025
                                             16 BANK0     26    18      8
                            _ReadADC (ARG)
                          __Umul8_16
                           ___xxtofl (ARG)
 ---------------------------------------------------------------------------------
 (4) __Umul8_16                                            9     7      2     799
                                              3 COMMON     4     2      2
                                              0 BANK0      5     5      0
 ---------------------------------------------------------------------------------
 (1) _SendLCDString                                        3     3      0    2256
                                              7 COMMON     1     1      0
                                              0 BANK0      2     2      0
                            _SendLCD
 ---------------------------------------------------------------------------------
 (2) _HandleKeypadReading                                  2     2      0   21212
                                             78 BANK0      2     2      0
       _PrepareDesiredTempDataPacket
       _UART_TxDesiredTempDataPacket
                            ___fladd
                             ___flge
                            ___flsub
 ---------------------------------------------------------------------------------
 (3) ___flge                                              12     4      8    1526
                                             73 BANK0      4     4      0
                                              0 BANK1      8     0      8
                            ___fladd (ARG)
 ---------------------------------------------------------------------------------
 (3) _UART_TxDesiredTempDataPacket                         3     3      0    1311
                                              7 COMMON     1     1      0
                                              2 BANK0      2     2      0
                        _UART_TxChar
                             ___wmul
 ---------------------------------------------------------------------------------
 (3) _PrepareDesiredTempDataPacket                        12     8      4   10950
                                             29 BANK1     12     8      4
                            ___fldiv
                            ___flsub
                            ___fltol
                           ___xxtofl
 ---------------------------------------------------------------------------------
 (3) ___xxtofl                                            14    10      4    1354
                                              2 BANK0     14    10      4
                            _ReadADC (ARG)
                             ___wmul (ARG)
 ---------------------------------------------------------------------------------
 (3) ___fltol                                             11     7      4    1777
                                             42 BANK0     11     7      4
                            ___flmul (ARG)
                           ___xxtofl (ARG)
 ---------------------------------------------------------------------------------
 (3) ___flsub                                              8     0      8    4389
                                              0 BANK1      8     0      8
                            ___fladd
                            ___fltol (ARG)
                             ___wmul (ARG)
                           ___xxtofl (ARG)
 ---------------------------------------------------------------------------------
 (4) ___fladd                                             20    12      8    2912
                                             53 BANK0     20    12      8
                            ___flmul (ARG)
                            ___fltol (ARG)
                           ___xxtofl (ARG)
 ---------------------------------------------------------------------------------
 (3) ___fldiv                                             26    18      8    3123
                                             73 BANK0      5     5      0
                                              8 BANK1     21    13      8
                            ___fladd (ARG)
                            ___flmul (ARG)
                            ___flsub (ARG)
                            ___fltol (ARG)
                           ___xxtofl (ARG)
 ---------------------------------------------------------------------------------
 (1) _ManageCooler                                         2     2      0      22
                                              3 COMMON     2     2      0
 ---------------------------------------------------------------------------------
 (1) _InitPic                                              1     1      0       0
                                              3 COMMON     1     1      0
 ---------------------------------------------------------------------------------
 (1) _InitLCD                                              2     2      0    1862
                                              0 BANK0      2     2      0
                            _SendLCD
 ---------------------------------------------------------------------------------
 (3) _SendLCD                                              4     3      1    1862
                                              3 COMMON     4     3      1
 ---------------------------------------------------------------------------------
 (1) _InitADC                                              1     1      0       0
                                              3 COMMON     1     1      0
 ---------------------------------------------------------------------------------
 (1) _CheckOpenDoorButton                                  2     2      0    2266
                                              4 BANK0      2     2      0
                      _MotorRotation
              _PrepareBoolDataPacket
              _UART_TxBoolDataPacket
 ---------------------------------------------------------------------------------
 (2) _MotorRotation                                        4     3      1     459
                                              0 BANK0      4     3      1
                         _DriveMotor
 ---------------------------------------------------------------------------------
 (4) _DriveMotor                                           5     5      0     180
                                              3 COMMON     5     5      0
 ---------------------------------------------------------------------------------
 (2) _CheckKeypad                                          2     2      0       0
                                              3 COMMON     2     2      0
 ---------------------------------------------------------------------------------
 (1) _CheckAlarmButton                                     2     2      0    1807
                                              4 BANK0      2     2      0
              _PrepareBoolDataPacket
              _UART_TxBoolDataPacket
 ---------------------------------------------------------------------------------
 (3) _UART_TxBoolDataPacket                                3     3      0    1383
                                              7 COMMON     1     1      0
                                              2 BANK0      2     2      0
                        _UART_TxChar
                             ___wmul
 ---------------------------------------------------------------------------------
 (3) ___wmul                                               6     2      4    1146
                                              3 COMMON     4     0      4
                                              0 BANK0      2     2      0
 ---------------------------------------------------------------------------------
 (4) _UART_TxChar                                          2     2      0      62
                                              3 COMMON     2     2      0
 ---------------------------------------------------------------------------------
 (3) _PrepareBoolDataPacket                                3     2      1     424
                                              3 COMMON     3     2      1
 ---------------------------------------------------------------------------------
 Estimated maximum stack depth 4
 ---------------------------------------------------------------------------------
 (Depth) Function   	        Calls       Base Space   Used Autos Params    Refs
 ---------------------------------------------------------------------------------
 (6) _ISR                                                  3     3      0       0
                                              0 COMMON     3     3      0
 ---------------------------------------------------------------------------------
 Estimated maximum stack depth 6
 ---------------------------------------------------------------------------------

 Call Graph Graphs:

 _main (ROOT)
   _CheckAlarmButton
     _PrepareBoolDataPacket
     _UART_TxBoolDataPacket
       _UART_TxChar
       ___wmul
   _CheckKeypad
   _CheckOpenDoorButton
     _MotorRotation
       _DriveMotor
     _PrepareBoolDataPacket
     _UART_TxBoolDataPacket
   _InitADC
   _InitLCD
     _SendLCD
   _InitPic
   _ManageCooler
   _ManageDisplays
     _HandleKeypadReading
       _PrepareDesiredTempDataPacket
         ___fldiv
           ___fladd (ARG)
             ___flmul (ARG)
               _ReadADC (ARG)
               __Umul8_16 (ARG)
               ___xxtofl (ARG)
                 _ReadADC (ARG)
                 ___wmul (ARG)
             ___fltol (ARG)
               ___flmul (ARG)
               ___xxtofl (ARG)
             ___xxtofl (ARG)
           ___flmul (ARG)
           ___flsub (ARG)
             ___fladd
             ___fltol (ARG)
             ___wmul (ARG)
             ___xxtofl (ARG)
           ___fltol (ARG)
           ___xxtofl (ARG)
         ___flsub
         ___fltol
         ___xxtofl
       _UART_TxDesiredTempDataPacket
         _UART_TxChar
         ___wmul
       ___fladd
       ___flge
         ___fladd (ARG)
       ___flsub
     _SendLCD
     _SendLCDString
       _SendLCD
     _UpdateLCDViewWithNumber
       _SendLCD
       ___fldiv
       ___flge
       ___flmul
       ___flsub
       ___fltol
       ___wmul
       ___xxtofl
   _ManageHeater
   _ManageReceivedPacket
     _HandleRequest
       _PrepareBoolDataPacket
       _PrepareTempHumDataPacket
         ___fladd
         ___fldiv
         ___flge
         ___flmul
         ___flsub
         ___fltol
         ___xxtofl
       _UART_TxBoolDataPacket
       _UART_TxTempHumDataPacket
         _UART_TxChar
         ___wmul
       _UpdateLCDViewWithNumber
       ___fladd
       ___flmul
       ___xxtofl
   _ManageTemperature
     ___fladd
     ___flge
   _ReadHumidity
     ___fladd
     ___flge
   _ReadTemperature
     _ReadADC
     ___flmul
     ___xxtofl
   _SendLCDString
   _UART_Init
     ___aldiv
   _UpdateTempHumDisplay
     _UpdateLCDViewWithNumber

 _ISR (ROOT)

 Address spaces:
Name               Size   Autos  Total    Cost      Usage
BANK3               60      8      44       9       70.8%
BITBANK3            60      0       0       8        0.0%
SFR3                 0      0       0       4        0.0%
BITSFR3              0      0       0       4        0.0%
BANK2               60      0       0      11        0.0%
BITBANK2            60      0       0      10        0.0%
SFR2                 0      0       0       5        0.0%
BITSFR2              0      0       0       5        0.0%
BANK1               50     32      4B       7       93.8%
BITBANK1            50      0       0       6        0.0%
SFR1                 0      0       0       2        0.0%
BITSFR1              0      0       0       2        0.0%
BANK0               50     50      50       5      100.0%
BITBANK0            50      0       0       4        0.0%
SFR0                 0      0       0       1        0.0%
BITSFR0              0      0       0       1        0.0%
COMMON               E      8       B       1       78.6%
BITCOMMON            E      0       0       0        0.0%
CODE                 0      0       0       0        0.0%
DATA                 0      0      EA      12        0.0%
ABS                  0      0      EA       3        0.0%
NULL                 0      0       0       0        0.0%
STACK                0      0       0       2        0.0%
EEDATA             100      0       0       0        0.0%


Microchip Technology PIC Macro Assembler V2.32 build 20210201212658 
Symbol Table                                                                                   Fri Jul 08 14:30:59 2022

                          ___fldiv@aexp 00BC                            ___fldiv@bexp 00BB  
                                     _i 0078                                       pc 0002  
                          ___fldiv@sign 00B4           UpdateLCDViewWithNumber@number 00BD  
                                    fsr 0004                     ___wmul@multiplicand 0075  
                   __Umul8_16@word_mpld 0022                                     l223 1F3D  
                                   l311 1AB2                                     l400 1A8A  
                                   l320 1C3C                                     l225 1F73  
                                   l305 10A4                                     l242 081F  
                                   l403 15DE                                     l260 16FC  
                                   l412 07CB                                     l308 1AA8  
                                   l229 1F83                                     l325 1B37  
                                   l261 1704                                     l341 0D77  
                                   l317 1227                                     l350 07DB  
                                   l238 11A2                                     l271 1A25  
                                   l335 1D87                                     l352 07DF  
                                   l248 088F                                     l360 1EBB  
                                   l344 1BB0                                     l513 1AEC  
                                   l257 1C86                                     l274 1E4F  
                                   l282 1B73                                     l515 1B06  
                                   l371 1EAE                                     l427 1D29  
                                   l347 1BF3                                     l356 07FE  
                                   l380 1EB3                                     l372 1E57  
                                   l268 17FF                                     l292 1A74  
                                   l277 1A4C                                     l383 1DE6  
                                   l287 1A60                                     l359 1F12  
                                   l392 1DEB                                     l384 1D8F  
                                   l368 1F17                                     l810 0E82  
                                   l706 1FEA                                     l299 14EF  
                                   l812 0E59                                     l709 1FFF  
                                   l397 067C                                     l806 0DDB  
                                   l902 03A4                                     l831 0F71  
                                   l840 0FD1                                     l921 1AC9  
                  _UpdateTempHumDisplay 1B74                                     l690 16D5  
                                   l914 0398                                     l578 12D2  
                                   l827 0F4D                                     l819 0FFF  
                                   l691 16EE                                     l923 1ADB  
                                   l852 1CD6                                     l908 0310  
                                   l588 135A                                     l837 0F93  
                                   l862 08FC                                     l687 160D  
                                   l864 0AF2                                     l848 0FF3  
                                   l960 13EC                                     l952 13C4  
                                   l849 0FFF                                     l946 137F  
                                   l699 1FFF                                     l884 0AC6  
                                   l948 1416                                     l886 0ADE  
                                   l878 0A36                                     l959 13E0  
                                   _ISR 1228                  ?_UART_TxBoolDataPacket 0070  
                          _startDisplay 01CA                                     fsr0 0004  
                                   indf 0000                             DriveMotor@i 0076  
                          ___flmul@aexp 0042                            ___flmul@bexp 0043  
                        ??_ManageHeater 0073                            ___flmul@sign 003D  
                          ___flmul@temp 0048                            ___flmul@prod 0044  
                        ??_ManageCooler 0073                                    ?_ISR 0070  
                          ___fltol@exp1 0054                                    l3033 1C44  
                                  l3041 1C62                                    l3025 1C3E  
                                  l2401 0DF1                                    l4001 0BFB  
                                  l3051 1C73                                    l3043 1C67  
                                  l3035 1C4F                                    l3027 1C43  
                                  l2411 0E05                                    l2403 0DF5  
                                  l4011 0CD8                                    l4003 0C35  
                                  l3053 1C7C                                    l3037 1C58  
                                  l2501 0F7F                                    l2421 0E19  
                                  l2413 0E09                                    l2405 0DF9  
                                  l4101 16F8                                    l4013 0D2A  
                                  l4005 0C3A                                    l4021 1EDE  
                                  l3055 1C80                                    l3039 1C5C  
                                  l2511 0F90                                    l2503 0F81  
                                  l2431 0E3D                                    l2423 0E1D  
                                  l2415 0E0D                                    l2407 0DFD  
                                  l2351 0D7F                                    l4111 1760  
                                  l4103 1702                                    l4007 0C43  
                                  l4031 1EF0                                    l4023 1EE6  
                                  l4015 1EB5                                    l3401 112C  
                                  l3049 1C68                                    l2521 0FAF  
                                  l2505 0F85                                    l2441 0E6D  
                                  l2433 0E5D                                    l2425 0E21  
                                  l2417 0E11                                    l2409 0E01  
                                  l2361 0D94                                    l2353 0D85  
                                  l4121 17A8                                    l4113 1768  
                                  l4105 170A                                    l4009 0C95  
                                  l4041 1F0C                                    l4033 1EFD  
                                  l4025 1EE8                                    l4017 1EBE  
                                  l4201 1305                                    l3403 1132  
                                  l2531 0FE8                                    l2523 0FCD  
                                  l2515 0F98                                    l2507 0F86  
                                  l2443 0E76                                    l2435 0E66  
                                  l2419 0E15                                    l2427 0E25  
                                  l2371 0DAC                                    l2363 0D9C  
                                  l2355 0D89                                    l4131 17DA  
                                  l4123 17AA                                    l4115 176E  
                                  l4107 1710                                    l4051 03CC  
                                  l4043 03A5                                    l4027 1EE9  
                                  l4019 1EDC                                    l3251 1AAC  
                                  l4211 1333                                    l4203 1309  
                                  l4301 1F7D                                    l3421 117D  
                                  l3413 1149                                    l3405 1141  
                                  l2541 0FFE                                    l2533 0FE9  
                                  l2525 0FD6                                    l2517 0F9D  
                                  l2509 0F8A                                    l2461 0EBC  
                                  l2453 0E94                                    l2437 0E68  
                                  l2445 0E7A                                    l2429 0E26  
                                  l2381 0DBE                                    l2373 0DB2  
                                  l2365 0D9D                                    l2357 0D8A  
                                  l2349 0D78                                    l4133 17F5  
                                  l4125 17AF                                    l4117 179C  
                                  l4109 175A                                    l4061 05A0  
                                  l4053 04A6                                    l4045 03AD  
                                  l4037 1F04                                    l4141 068E  
                                  l3245 1A8C                                    l4213 133C  
                                  l4205 1312                                    l3431 1194  
                                  l3423 1181                                    l3415 1158  
                                  l3407 1146                                    l4311 081D  
                                  l4303 0807                                    l4231 1E0A  
                                  l4223 1DEC                                    l3343 1A39  
                                  l2535 0FED                                    l2527 0FDB  
                                  l2519 0FAB                                    l2463 0EBE  
                                  l2455 0EAB                                    l2447 0E86  
                                  l2471 0ED1                                    l2439 0E6C  
                                  l2383 0DC3                                    l2391 0DD3  
                                  l2375 0DB3                                    l2359 0D8F  
                                  l2367 0D9F                                    l4127 17B5  
                                  l4119 17A2                                    l4071 1D35  
                                  l2551 1AD2                                    l2543 1AB6  
                                  l4063 05C7                                    l4055 04CC  
                                  l4047 03AF                                    l4143 0699  
                                  l4151 06AF                                    l4135 067D  
                                  l3247 1AA0                                    l4207 1324  
                                  l4215 1342                                    l3433 119A  
                                  l3417 115B                                    l3425 1184  
                                  l4321 0840                                    l4313 0821  
                                  l4305 0810                                    l4241 1E3A  
                                  l4233 1E1B                                    l4225 1DF4  
                                  l3345 1A40                                    l2537 0FEF  
                                  l2529 0FE3                                    l2473 0EE7  
                                  l2481 0F3F                                    l2465 0EC2  
                                  l2457 0EAF                                    l2449 0E8B  
                                  l2393 0DE1                                    l2385 0DC8  
                                  l2377 0DB9                                    l2369 0DA7  
                                  l4129 17D0                                    l4073 1D44  
                                  l2553 1AD7                                    l2545 1AB8  
                                  l4065 0674                                    l4057 04F3  
                                  l4049 03B1                                    l4161 06EF  
                                  l4145 069B                                    l4137 0685  
                                  l3249 1AA5                                    l4217 1347  
                                  l4209 1332                                    l4401 10A5  
                                  l3427 118A                                    l3419 116A  
                                  l4091 108E                                    l4331 0861  
                                  l4323 084B                                    l4315 082D  
                                  l4307 0817                                    l4243 1E41  
                                  l4235 1E25                                    l4227 1DFE  
                                  l3347 1A44                                    l2539 0FFA  
                                  l2491 0F6C                                    l2483 0F55  
                                  l2475 0F25                                    l2467 0EC3  
                                  l2459 0EB3                                    l2395 0DE5  
                                  l2387 0DD0                                    l2379 0DBD  
                                  l4083 1D6A                                    l4075 1D4B  
                                  l4067 1D2D                                    l2547 1ABF  
                                  l2811 004B                                    l4059 057B  
                                  l4171 0715                                    l4163 06F5  
                                  l4147 06A1                                    l4139 068B  
                                  l4219 1352                                    l4251 1BE2  
                                  l4411 10EC                                    l4403 10C3  
                                  l3701 1ADC                                    l3429 1190  
                                  l4093 1092                                    l4341 0880  
                                  l4333 0866                                    l4325 0851  
                                  l4309 0818                                    l4317 0833  
                                  l4245 1E48                                    l4237 1E2C  
                                  l4229 1E03                                    l3349 1A48  
                                  l2493 0F70                                    l2485 0F5A  
                                  l2477 0F2B                                    l2469 0ECC  
                                  l2397 0DE9                                    l2389 0DD1  
                                  l4077 1D51                                    l4069 1D2F  
                                  l2549 1AC3                                    l2901 02E1  
                                  l2821 0060                                    l2813 0051  
                                  l3541 1A6E                                    l4181 07C5  
                                  l4173 071D                                    l4165 06FD  
                                  l4157 06B7                                    l4149 06A9  
                                  l4261 11A3                                    l4253 1BE4  
                                  l4421 110C                                    l4413 10F4  
                                  l4405 10C9                                    l3711 1B00  
                                  l3703 1AE0                                    l4271 1F18  
                                  l4095 1098                                    l4343 088C  
                                  l4335 0872                                    l4327 0858  
                                  l4319 0839                                    l3375 1A16  
                                  l4239 1E33                                    l3543 1A4E  
                                  l2495 0F75                                    l2479 0F30  
                                  l2399 0DED                                    l4079 1D58  
                                  l4087 1D7A                                    l2911 02F9  
                                  l2903 02EA                                    l2831 007D  
                                  l2823 0068                                    l2815 0055  
                                  l4175 07A9                                    l4167 0703  
                                  l4159 06BC                                    l4351 1481  
                                  l4263 11B2                                    l3447 1BF4  
                                  l4191 12E1                                    l4183 12BE  
                                  l4255 1BE8                                    l4247 1BB1  
                                  l4423 1112                                    l4415 10FC  
                                  l4407 10DD                                    l3705 1AE4  
                                  l4281 1F35                                    l4273 1F21  
                                  l3393 1121                                    l4097 109E  
                                  l4089 1088                                    l4337 0876  
                                  l4329 085A                                    l3377 1A19  
                                  l3545 1A56                                    l3801 08DA  
                                  l2497 0F78                                    l2489 0F63  
                                  l3721 163B                                    l2921 0328  
                                  l2913 030D                                    l2905 02F0  
                                  l2841 0094                                    l2833 0081  
                                  l2825 006A                                    l2817 0056  
                                  l2809 0044                                    l3537 1A62  
                                  l4177 07AF                                    l4169 070F  
                                  l4361 1CDE                                    l4353 14E1  
                                  l4345 1417                                    l4265 11DB  
                                  l4193 12E5                                    l4185 12C1  
                                  l4257 1BEC                                    l4249 1BE0  
                                  l4425 1117                                    l4417 1101  
                                  l4409 10E2                                    l3707 1AF3  
                                  l4291 1F59                                    l4283 1F3E  
                                  l4275 1F28                                    l3395 112B  
                                  l4339 087B                                    l3547 1A5A  
                                  l3811 08F1                                    l3803 08DE  
                                  l2499 0F7A                                    l3731 16ED  
                                  l3723 1641                                    l3715 15DF  
                                  l4099 16F2                                    l2931 0363  
                                  l2923 032C                                    l2907 02F4  
                                  l2843 0096                                    l2835 0082  
                                  l2827 0072                                    l2819 005B  
                                  l3539 1A6A                                    l4179 07BD  
                                  l4371 1CF4                                    l4363 1CDF  
                                  l4355 14E9                                    l4347 1477  
                                  l4267 11E6                                    l4195 12ED  
                                  l4187 12C5                                    l4259 1BF2  
                                  l4419 1107                                    l3709 1AFA  
                                  l4293 1F64                                    l4285 1F46  
                                  l4277 1F29                                    l3901 0AAA  
                                  l3821 0918                                    l3813 08F2  
                                  l3805 08DF                                    l3741 1F9A  
                                  l3725 1689                                    l3717 1603  
                                  l2941 0390                                    l2933 0372  
                                  l2925 0345                                    l2917 0315  
                                  l2909 02F5                                    l2861 0107  
                                  l2853 00B1                                    l2845 009E  
                                  l2837 0087                                    l2829 0077  
                                  l4381 1D15                                    l4373 1D01  
                                  l4365 1CE3                                    l4357 14EB  
                                  l4349 147F                                    l4269 1225  
                                  l4197 12F5                                    l4189 12D6  
                                  l4295 1F6A                                    l4279 1F2D  
                                  l4287 1F4C                                    l3671 1B0F  
                                  l3911 0AD4                                    l3903 0AB9  
                                  l3831 092F                                    l3807 08E4  
                                  l3815 08F4                                    l3751 1FBE  
                                  l3743 1FAF                                    l3735 1F84  
                                  l2951 1363                                    l3727 168D  
                                  l3719 1631                                    l2943 0391  
                                  l2935 037C                                    l2919 031A  
                                  l2927 034B                                    l2871 0184  
                                  l2863 0133                                    l2855 00C1  
                                  l2847 00A3                                    l2839 008C  
                                  l4391 1B48                                    l4383 1D23  
                                  l4375 1D02                                    l4367 1CEA  
                                  l4359 1CD7                                    l4199 12F8  
                                  l3921 1D92                                    l4297 1F71  
                                  l4289 1F52                                    l3681 1B25  
                                  l3673 1B11                                    l3913 0AD6  
                                  l3905 0ABD                                    l3841 0967  
                                  l3833 094D                                    l3817 0904  
                                  l3825 0921                                    l3809 08E9  
                                  l3745 1FB0                                    l3737 1F91  
                                  l2961 1390                                    l2953 1367  
                                  l3729 16EB                                    l2945 039C  
                                  l2937 037E                                    l2929 0358  
                                  l2881 0204                                    l2873 01A1  
                                  l2865 014F                                    l2857 00CE  
                                  l2849 00A8                                    l4393 1B4F  
                                  l4377 1D08                                    l4369 1CEE  
                                  l4385 1B74                                    l3691 07E2  
                                  l3931 1DBD                                    l3923 1DB0  
                                  l4299 1F79                                    l3683 1B34  
                                  l3675 1B16                                    l3667 1B08  
                                  l3907 0AC5                                    l3843 096C  
                                  l3851 099E                                    l3835 0955  
                                  l3827 0926                                    l3819 0910  
                                  l3771 1C87                                    l3747 1FB8  
                                  l2971 13BB                                    l2963 1395  
                                  l2955 1377                                    l2939 038C  
                                  l2891 02BC                                    l2883 0231  
                                  l2875 01B1                                    l2867 016B  
                                  l2859 00EB                                    l4395 1B59  
                                  l4387 1B38                                    l4379 1D0D  
                                  l3693 07E6                                    l3685 07CD  
                                  l3941 1DD8                                    l3925 1DB2  
                                  l3677 1B18                                    l3669 1B0C  
                                  l3909 0AD0                                    l3861 09CF  
                                  l3853 09B2                                    l3845 0988  
                                  l3837 095D                                    l3781 08A5  
                                  l3773 1C8B                                    l3765 1FDF  
                                  l3757 1FC6                                    l3749 1FBA  
                                  l2981 13EE                                    l2973 13CB  
                                  l2965 13A2                                    l2957 1387  
                                  l2949 135E                                    l2893 02C5  
                                  l2885 0241                                    l2877 01CE  
                                  l2869 0174                                    l4397 1B5F  
                                  l4389 1B40                                    l3695 07F1  
                                  l3687 07D3                                    l3935 1DC4  
                                  l3927 1DBA                                    l3919 1D89  
                                  l3679 1B1C                                    l3871 09EF  
                                  l3863 09D7                                    l3855 09B3  
                                  l3847 098E                                    l3839 0965  
                                  l3791 08BC                                    l3783 08A9  
                                  l3767 1FEF                                    l3759 1FD8  
                                  l2983 1404                                    l2975 13D6  
                                  l2967 13A9                                    l3951 1502  
                                  l2895 02D3                                    l2887 026E  
                                  l2879 01E7                                    l4399 1B65  
                                  l2993 1A76                                    l3697 07F7  
                                  l3689 07D7                                    l3945 1DE0  
                                  l3937 1DD1                                    l3929 1DBC  
                                  l3881 0A0F                                    l3873 09FE  
                                  l3865 09D9                                    l3857 09C1  
                                  l3849 098F                                    l3793 08BD  
                                  l3785 08AA                                    l3777 0890  
                                  l3769 1FF4                                    l2985 1409  
                                  l2977 13DA                                    l2969 13AD  
                                  l3953 1529                                    l3961 1E5A  
                                  l2897 02DC                                    l2889 0294  
                                  l2995 1A7C                                    l3699 07FB  
                                  l3891 0A50                                    l3883 0A31  
                                  l3867 09E8                                    l3875 0A06  
                                  l3859 09C9                                    l3787 08AF  
                                  l3795 08BF                                    l3779 089B  
                                  l2987 140D                                    l2979 13E4  
                                  l3955 15B1                                    l3947 14F0  
                                  l3971 1E85                                    l3963 1E78  
                                  l2899 02E0                                    l3893 0A54  
                                  l3877 0A0A                                    l3869 09EE  
                                  l3797 08C7                                    l3789 08B4  
                                  l2989 140E                                    l3957 15D6  
                                  l3949 14F8                                    l3981 1EA0  
                                  l3965 1E7A                                    l3895 0A89  
                                  l3887 0A3D                                    l3879 0A0B  
                                  l3799 08D0                                    l3975 1E8C  
                                  l3967 1E82                                    l3959 1E51  
                                  l3991 0B20                                    l3889 0A42  
                                  l3897 0A8F                                    l3985 1EA8  
                                  l3977 1E99                                    l3969 1E84  
                                  l3993 0B5F                                    l3899 0A9C  
                                  l3995 0B9B                                    l3987 0AF6  
                                  l3997 0BA0                                    l3989 0B18  
                                  l3999 0BA9                                    STR_1 1071  
                                  STR_2 1043                                    STR_3 1044  
                                  STR_4 1023                                    STR_5 1060  
                                  u3000 0FBE                                    u3010 0FCD  
                                  u3011 0FCC                                    u3020 0FD6  
                                  u3021 0FD5                                    u3005 0FB9  
                                  u3030 0FDB                                    u3031 0FDA  
                                  u3040 0FE8                                    u4000 1363  
                                  u3041 0FE7                                    u4001 1362  
                                  u3050 0FED                                    u4010 1367  
                                  u3051 0FEC                                    u4011 1366  
                                  u3060 0FFE                                    u4100 13E4  
                                  u4020 1387                                    u3061 0FFD  
                                  u4101 13E3                                    u4021 1386  
                                  u4110 13F9                                    u3070 1AC3  
                                  u3071 1AC2                                    u4200 1C67  
                                  u4120 1409                                    u4040 13A8  
                                  u4201 1C66                                    u4121 1408  
                                  u4041 13A7                                    u4210 1C86  
                                  u2610 0D89                                    u4130 140D  
                                  u3090 1AD7                                    u4211 1C85  
                                  u2611 0D88                                    u4131 140C  
                                  u4115 13F4                                    u4035 139A  
                                  u3091 1AD6                                    u2700 0E3D  
                                  u2620 0D8F                                    u4060 13CA  
                                  u2701 0E3C                                    u2621 0D8E  
                                  u4061 13C9                                    u3085 1ACA  
                                  u2710 0E48                                    u2630 0D94  
                                  u2711 0E46                                    u2631 0D93  
                                  u4055 13BC                                    _PIE1 008C  
                                  u2800 0EAF                                    u2720 0E49  
                                  u2640 0DB2                                    u4080 13DA  
                                  u6000 17A8                                    u2801 0EAE  
                                  u2705 0E39                                    u2641 0DB1  
                                  u4081 13D9                                    u6001 17A7  
                                  u5210 1B16                                    u2810 0EB3  
                                  u2730 0E5D                                    u2650 0DBD  
                                  u4090 13E0                                    u6010 17AF  
                                  u5211 1B15                                    u2811 0EB2  
                                  u2731 0E5C                                    u2651 0DBC  
                                  u4091 13DF                                    u4075 13CF  
                                  u6011 17AE                                    u5220 07DF  
                                  u4180 1C43                                    u2820 0EC2  
                                  u2740 0E6C                                    u2660 0DC3  
                                  u5300 1641                                    u6020 17D0  
                                  u3700 00A8                                    u6100 071D  
                                  u5221 07DE                                    u4181 1C42  
                                  u2821 0EC1                                    u2741 0E6B  
                                  u2661 0DC2                                    u5301 1640  
                                  u6021 17CF                                    u3701 00A7  
                                  u6101 071C                                    u5230 07F1  
                                  u4190 1C62                                    u2910 0F70  
                                  u2670 0DC8                                    u6030 17F5  
                                  u3630 0055                                    u6110 07AF  
                                  u5231 07F0                                    u4191 1C61  
                                  u2911 0F6F                                    u2671 0DC7  
                                  u5311 1658                                    u6031 17F4  
                                  u3711 00F9                                    u3631 0054  
                                  u6111 07AE                                    u5240 1AE4  
                                  u2920 0F75                                    u2840 0EE7  
                                  u2760 0E82                                    u2680 0DE1  
                                  u5400 1FD7                                    u5320 168D  
                                  u5312 165B                                    u3712 0100  
                                  u3640 005B                                    u6120 07C5  
                                  u6040 0685                                    u5241 1AE3  
                                  u2921 0F74                                    u2905 0F65  
                                  u2841 0EE6                                    u2761 0E81  
                                  u2681 0DE0                                    u5401 1FD6  
                                  u5321 168C                                    u5313 1662  
                                  u3801 0223                                    u3721 0115  
                                  u3713 0107                                    u3641 005A  
                                  u6121 07C4                                    u6041 0684  
                                  u2930 0F7F                                    u2770 0E86  
                                  u2690 0DE5                                    u5410 1FDE  
                                  u5314 1665                                    u3802 022A  
                                  u3722 011C                                    u3650 0060  
                                  u6050 068B                                    u6210 1342  
                                  u6130 12C5                                    u2931 0F7E  
                                  u2851 0EFE                                    u2843 0EE3  
                                  u2835 0EC5                                    u2771 0E85  
                                  u2755 0E6F                                    u2691 0DE4  
                                  u5411 1FDD                                    u5331 16A4  
                                  u5315 166C                                    u3811 0250  
                                  u3803 0231                                    u3731 0141  
                                  u3723 0123                                    u3651 005F  
                                  u6051 068A                                    u6211 1341  
                                  u6131 12C4                                    u6300 1F59  
                                  u4700 1158                                    u5500 08E9  
                                  u2940 0F85                                    u2860 0F12  
                                  u2852 0EFF                                    u2780 0E8B  
                                  u5340 16EB                                    u5332 16A7  
                                  u5316 166F                                    u3900 02F4  
                                  u3820 027A                                    u3812 0257  
                                  u3732 0148                                    u3660 0081  
                                  u6060 0699                                    u6220 1347  
                                  u6140 12D6                                    u6301 1F58  
                                  u4701 1157                                    u5501 08E8  
                                  u2941 0F84                                    u2861 0F13  
                                  u2853 0F04                                    u2781 0E8A  
                                  u5341 16EA                                    u5333 16AE  
                                  u3901 02F3                                    u3813 025E  
                                  u3741 015D                                    u3733 014F  
                                  u3661 0080                                    u6061 0698  
                                  u6221 1346                                    u6205 1334  
                                  u6141 12D5                                    u5270 1B00  
                                  u6310 1F6A                                    u4710 116A  
                                  u5510 0904                                    u2950 0F8A  
                                  u2870 0F30                                    u2862 0F18  
                                  u2854 0F05                                    u5430 1FEF  
                                  u5350 1F91                                    u5334 16B1  
                                  u3910 02F9                                    u3742 0164  
                                  u3670 0087                                    u6070 06B6  
                                  u6150 12F5                                    u6230 1BC1  
                                  u5271 1AFF                                    u5255 1AED  
                                  u6311 1F69                                    u4711 1169  
                                  u5511 0903                                    u2951 0F89  
                                  u2871 0F2F                                    u2863 0F19  
                                  u2855 0F0A                                    u2791 0E9D  
                                  u5431 1FEE                                    u5351 1F90  
                                  u5335 16B8                                    u3911 02F8  
                                  u3831 0286                                    u3743 016B  
                                  u3671 0086                                    u6071 06B5  
                                  u6151 12F4                                    u6320 1F71  
                                  u6400 0858                                    u5600 09D7  
                                  u5520 0926                                    u2960 0F90  
                                  u2880 0F55                                    u2856 0F0B  
                                  u2792 0EA4                                    u5440 1FF4  
                                  u5360 1FA8                                    u5336 16BB  
                                  u5280 1603                                    u3920 030D  
                                  u3840 02A2                                    u3832 028D  
                                  u3680 008C                                    u6080 06BC  
                                  u6240 11B2                                    u5265 1AF4  
                                  u6321 1F70                                    u6401 0857  
                                  u5601 09D6                                    u5521 0925  
                                  u2961 0F8F                                    u2881 0F54  
                                  u2793 0EAB                                    u5441 1FF3  
                                  u5425 1FE1                                    u5345 16E7  
                                  u5281 1602                                    u3921 030C  
                                  u3833 0294                                    u3825 0275  
                                  u3761 0193                                    u3681 008B  
                                  u6081 06BB                                    u6241 11B1  
                                  u6330 1F79                                    u4730 1190  
                                  u6410 0861                                    u5530 096C  
                                  u5450 08A9                                    u2970 0F97  
                                  u2890 0F5A                                    u5370 1FBE  
                                  u5290 1631                                    u3930 0314  
                                  u3762 019A                                    u3690 00A3  
                                  u6090 06FD                                    u6250 11DB  
                                  u4490 1AAC                                    u6170 1309  
                                  u6331 1F78                                    u4731 118F  
                                  u4715 1166                                    u6411 0860  
                                  u5531 096B                                    u5451 08A8  
                                  u2971 0F96                                    u2891 0F59  
                                  u5371 1FBD                                    u5291 1630  
                                  u3931 0313                                    u3851 02AE  
                                  u3771 01C0                                    u3763 01A1  
                                  u3755 016D                                    u3691 00A2  
                                  u6091 06FC                                    u6251 11DA  
                                  u4491 1AAB                                    u6171 1308  
                                  u6235 1BBC                                    u6260 1F21  
                                  u4740 119A                                    u6420 0866  
                                  u6340 0810                                    u5700 0A71  
                                  u5620 09EE                                    u5460 08AF  
                                  u2980 0F9D                                    u5380 1FC5  
                                  u3940 031A                                    u3852 02B5  
                                  u3772 01C7                                    u6500 1D01  
                                  _RCIF 0065                                    u6261 1F20  
                                  u4741 1199                                    u4725 116F  
                                  u6421 0865                                    u6341 080F  
                                  u5621 09ED                                    u5461 08AE  
                                  u2981 0F9C                                    u5381 1FC4  
                                  u5365 1FA3                                    u3941 0319  
                                  u3853 02BC                                    u3845 029D  
                                  u3773 01CE                                    u6501 1D00  
                                  u6245 11AE                                    u4485 1A96  
                                  u6165 12FA                                    u6270 1F28  
                                  u6430 087B                                    u6350 0817  
                                  u5710 0A9C                                    u5470 08B4  
                                  u2990 0FAF                                    u3950 032C  
                                  u6510 1D08                                    u6190 1324  
                                  u6271 1F27                                    u6431 087A  
                                  u6351 0816                                    u5711 0A9B  
                                  u5615 09DD                                    u5471 08B3  
                                  u2991 0FAE                                    u3951 032B  
                                  u3791 01F6                                    u6511 1D07  
                                  u6191 1323                                    u6280 1F2D  
                                  u6440 0880                                    u6360 081D  
                                  u5720 0AB9                                    u5640 0A0A  
                                  u5560 098E                                    u5480 08DE  
                                  u5800 1EA7                                    u3960 033B  
                                  u3880 02E0                                    u3792 01FD  
                                  u6520 1D15                                    u6281 1F2C  
                                  u6441 087F                                    u6361 081C  
                                  u5721 0AB8                                    u5705 0A6C  
                                  u5641 0A09                                    u5561 098D  
                                  u5545 0970                                    u5481 08DD  
                                  u5801 1EA6                                    u3881 02DF  
                                  u3865 02BE                                    u3793 0204  
                                  u3785 01D0                                    u6521 1D14  
                                  u6185 130B                                    u6290 1F52  
                                  u6370 0839                                    u5730 0AD4  
                                  u5650 0A0F                                    u5490 08E4  
                                  u5810 1EB3                                    u3970 0358  
                                  u6530 1B48                                    u6450 1477  
                                  u6291 1F51                                    u6371 0838  
                                  u5731 0AD3                                    u5715 0A98  
                                  u5651 0A0E                                    u5635 09F3  
                                  u5555 097D                                    u5491 08E3  
                                  u5395 1FC7                                    u5811 1EB2  
                                  u3971 0357                                    u3875 02D5  
                                  u6531 1B47                                    u6451 1476  
                                  u6195 1320                                    u5740 1DB0  
                                  u6380 0840                                    u5660 0A31  
                                  u5580 09B2                                    u5900 1D35  
                                  u3980 0372                                    u5820 0B18  
                                  u6540 1B65                                    u6460 14E1  
                                  u5741 1DAF                                    u6381 083F  
                                  u5725 0AB5                                    u5661 0A30  
                                  u5581 09B1                                    u5901 1D34  
                                  u3981 0371                                    u3965 0336  
                                  u5821 0B17                                    u6541 1B64  
                                  u6461 14E0                                    u5750 1DC3  
                                  u6390 0851                                    u5670 0A3C  
                                  u5590 09CF                                    u5910 1D51  
                                  u3990 0390                                    u5830 0BA0  
                                  u6470 1CDE                                    u6550 1107  
                                  u5751 1DC2                                    u6391 0850  
                                  u6607 1E21                                    u5671 0A3B  
                                  u5591 09CE                                    u5575 0993  
                                  u5911 1D50                                    u3991 038F  
                                  u3975 0354                                    u3895 02E3  
                                  u5831 0B9F                                    u6471 1CDD  
                                  u6551 1106                                    u5760 1DDF  
                                  u5680 0A42                                    u5920 1D87  
                                  u5840 0C3A                                    u6480 1CEA  
                                  u6560 1112                                    u5761 1DDE  
                                  u5745 1DAC                                    u6617 1B20  
                                  u5681 0A41                                    u5585 09AE  
                                  u5921 1D86                                    u3985 036E  
                                  u5841 0C39                                    u6481 1CE9  
                                  u6561 1111                                    u5770 1DEB  
                                  u5930 10A4                                    u5690 0A54  
                                  u5850 1EDC                                    u6490 1CF4  
                                  u5771 1DEA                                    u5931 10A3  
                                  u6627 1B2F                                    u5691 0A53  
                                  u5851 1EDB                                    u6491 1CF3  
                                  u5780 1E78                                    u5940 16F8  
                                  u4980 1A6A                                    u5860 1EEF  
                                  u6637 1A23                                    u5781 1E77  
                                  u5941 16F7                                    u4981 1A69  
                                  u5861 1EEE                                    u4990 1A56  
                                  u5790 1E8B                                    u5950 1702  
                                  u5870 1F0B                                    u6647 0846  
                                  u4991 1A55                                    u5791 1E8A  
                                  u5951 1701                                    u5871 1F0A  
                                  u5855 1ED8                                    u5960 170A  
                                  u5880 1F17                                    u6657 1C53  
                                  u5785 1E74                                    u5961 1709  
                                  u5881 1F16                                    u6577 1AA2  
                                  u5970 1710                                    u5890 03CC  
                                  u6667 1C77                                    u6587 1DFA  
                                  u5971 170F                                    u5891 03CB  
                                  u5980 1768                                    u6677 1143  
                                  u6597 1E10                                    u5981 1767  
                                  u5990 176E                                    u6687 1F5F  
                                  u5991 176D                                    _TMR0 0001  
                                  _TXIF 0064                                    _main 10A5  
                                  btemp 007E                          MotorRotation@i 0023  
            _addressTransmissionCounter 0199                                    start 000C  
         ?_UART_TxDesiredTempDataPacket 0070         PrepareTempHumDataPacket@decimal 00C9  
           UpdateLCDViewWithNumber@tens 00C9               __size_of_CheckAlarmButton 006C  
           UpdateLCDViewWithNumber@unit 00C7        __end_of_PrepareTempHumDataPacket 067D  
                       ___fldiv@new_exp 00B5                         __end_of_InitADC 1A26  
                       __end_of_ReadADC 1AB3                         __end_of_InitLCD 1E50  
                       __end_of_InitPic 1A4D                                   ??_ISR 0070  
                       __end_of_SendLCD 1B38                     _tempHumDataPacketTx 01AB  
                           _CheckKeypad 1121                           ?_ReadHumidity 0070  
                         ___fltol@sign1 0053                         __end_of___aldiv 135B  
                 ?_UpdateTempHumDisplay 0070                         __end_of___fladd 1000  
                                 ?_main 0070                         __end_of___fldiv 0AF3  
                       __end_of___flmul 03A5                         __end_of___flsub 1CD7  
                       __end_of___fltol 2000                                   i1l218 12A1  
                                 i1l219 12B7                                   _RCREG 001A  
                                 _RCSTA 0018                                   _SPBRG 0099  
                                 _PORTB 0006                                   _PORTC 0007  
                                 _PORTD 0008                                   _PORTE 0009  
  __end_of_PrepareDesiredTempDataPacket 15DF   __size_of_PrepareDesiredTempDataPacket 00EF  
          _PrepareDesiredTempDataPacket 14F0                                   _TRISA 0085  
                                 _TRISB 0086                                   _TRISC 0087  
                                 _TRISD 0088                                   _TRISE 0089  
                                 _TXREG 0019                                   _TXSTA 0098  
                       __end_of_colMask 1023                      __size_of_UART_Init 0043  
              __size_of_ReadTemperature 0049         __end_of_UpdateLCDViewWithNumber 0D78  
                                 _flags 00E2                                   pclath 000A  
                   _HandleKeypadReading 16EF                         __end_of_rowMask 1020  
                            _DriveMotor 1C3D                                   status 0003  
                                 wtemp0 007E                     _CheckOpenDoorButton 0807  
                      _boolDataPacketTx 01B9                   __end_of_HandleRequest 07CC  
                       __initialization 000F                            __end_of_main 1121  
                      ??_ManageDisplays 00CA                          ??_ReadHumidity 0078  
                  ?_HandleKeypadReading 0070                          ReadADC@channel 0077  
      _PrepareDesiredTempDataPacket$909 00C5                                  ??_main 00D1  
                __size_of_SendLCDString 005E                    ?_CheckOpenDoorButton 0070  
                 __end_of_MotorRotation 10A5                       _temperatureBuffer 01C6  
         ?_PrepareDesiredTempDataPacket 00BD                                  _ADCON0 001F  
                                _ADCON1 009F              ??_UART_TxTempHumDataPacket 0022  
                                _ADRESH 001E                                  _ADRESL 009E  
                                i1l3621 1234                                  i1l3631 125B  
                                i1l3623 123C                                  i1l3641 1273  
                                i1l3633 125C                                  i1l3625 123D  
                                i1l3617 1228                                  i1l3651 1295  
                                i1l3643 127B                                  i1l3635 1260  
                                i1l3627 1242                                  i1l3619 122E  
                                i1l3661 12B1                                  i1l3653 129B  
                                i1l3645 1280                                  i1l3637 1266  
                                i1l3629 124D                                  i1l3655 129D  
                                i1l3647 1288                                  i1l3639 126E  
                                i1l3657 12A5                                  i1l3649 128D  
                                i1l3659 12A9                                  _INTCON 000B  
                 _PrepareBoolDataPacket 1A75                                  u510_20 122E  
                                u510_21 122D                                  u511_20 1234  
                                u511_21 1233                                  u520_20 129B  
                                u512_20 1242                                  u520_21 129A  
                                u512_21 1241                                  u513_20 124D  
                                u513_21 124C                                  u514_20 125B  
                                u514_21 125A                                  u515_20 1260  
                                u515_21 125F                                  u516_20 1266  
                                u516_21 1265                                  u517_20 1273  
                                u517_21 1272                                  u518_20 1280  
                                u518_21 127F                                  u519_20 128D  
                                u519_21 128C                             SendLCD@data 0076  
                      __end_of___xxtofl 1417                               ??_InitADC 0073  
                           SendLCD@type 0073                               ??_ReadADC 0075  
                             ??_InitLCD 0020                               ??_InitPic 0073  
          PrepareTempHumDataPacket@temp 00BD                               ??_SendLCD 0074  
                          ?_UART_TxChar 0070         UART_TxBoolDataPacket@dataPacket 0077  
                     __end_of_UART_Init 1BF4                                  ___flge 15DF  
                  __end_of_ManageHeater 1A75                               ??___aldiv 0073  
                  __end_of_ManageCooler 1A61                               ??___fladd 005D  
                                ___wmul 1ADC                               ??___fldiv 0069  
        ??_UART_TxDesiredTempDataPacket 0022                               ??___flmul 0038  
                             ??___flsub 0078                               ??___fltol 004E  
              _PrepareTempHumDataPacket 03A5                   ??_HandleKeypadReading 006E  
                                _oldRB2 00DA                                  _oldRB3 00D9  
                                _keypad 1006                  ??_UpdateTempHumDisplay 0078  
                 ??_CheckOpenDoorButton 0024                        ManageHeater@duty 0074  
                    __size_of__Umul8_16 0029                                  saved_w 007E  
                          _dataPacketRx 0190                        _counterClockWise 1012  
                            ___flge@ff1 00A0                              ___flge@ff2 00A4  
                          ___xxtofl@arg 002C                            ___xxtofl@exp 002B  
                          ___xxtofl@val 0022                             ?_DriveMotor 0070  
               __end_of__initialization 0040                           _SendLCDString 1D2A  
                     ??_ReadTemperature 0078              PrepareBoolDataPacket@state 0073  
                            ___fltol@f1 004A                        _CheckAlarmButton 1F18  
                   DriveMotor@direction 0075                        ManageCooler@duty 0074  
                        __pcstackCOMMON 0070                            __pidataBANK1 0800  
                          __pidataBANK3 1A08        __size_of_UpdateLCDViewWithNumber 0285  
               ??_UART_TxBoolDataPacket 0022             PrepareTempHumDataPacket@hum 00C1  
                ?_PrepareBoolDataPacket 0073                              __pbssBANK1 00D2  
                            __pbssBANK3 0190          ??_PrepareDesiredTempDataPacket 00C1  
                        ?_SendLCDString 0070                    __end_of_ReadHumidity 1228  
                     _ManageTemperature 1417        PrepareDesiredTempDataPacket@temp 00BD  
         __size_of_ManageReceivedPacket 0053                      ?_ManageTemperature 0070  
                     __end_of__Umul8_16 1ADC                              __pmaintext 10A5  
                               ?___flge 00A0                                 ?___wmul 0073  
                         _keypadReading 00DD                              __pintentry 0004  
                          ?_CheckKeypad 0070                     ??_ManageTemperature 006D  
                   __size_of_DriveMotor 004A                     _transmissionCounter 019D  
                             ?___xxtofl 0022                              __stringtab 1000  
               _counterAntibouncingDoor 01A5               __end_of_ManageTemperature 14F0  
                               _InitADC 1A16                                 _ReadADC 1A8B  
                               _InitLCD 1DEC                   __size_of_ManageHeater 0014  
                               _InitPic 1A39                   __size_of_ManageCooler 0014  
                            _maxSetTemp 01CB                                 _SendLCD 1B07  
                     __end_of_clockWise 101C                              _oldDisplay 00DB  
                  __size_of_UART_TxChar 0033                              _minSetTemp 00E9  
                               ___aldiv 12BE                         __size_of___flge 0110  
                               ___fladd 0D78                                 ___fldiv 0890  
                               ___flmul 0044                                 ___flsub 1C87  
                               ___fltol 1F84                         __size_of___wmul 002B  
                               _alarmOn 00D6                              _dutyHeater 00DF  
                            _dutyCooler 00DE                                 _colMask 1020  
                               _colScan 00E1                                 __ptext1 1B74  
                               __ptext2 1BB1                                 __ptext3 12BE  
                               __ptext4 1BF4                                 __ptext5 1A8B  
                               __ptext6 11A3                                 __ptext7 1417  
                               __ptext8 1CD7                                 __ptext9 067D  
                          __size_of_ISR 0096                              ??___xxtofl 0026  
                      ___aldiv@dividend 0024                                 _setTemp 00E4  
                               _rowMask 101C                                 _rowScan 00E0  
                          _ManageHeater 1A61                         ??_SendLCDString 0077  
                               clrloop0 1A01                            _ManageCooler 1A4D  
                  end_of_initialization 0040              ??_PrepareTempHumDataPacket 00C5  
                      ___aldiv@quotient 002A                     SendLCDString@string 0020  
               _UpdateLCDViewWithNumber 0AF3                HandleKeypadReading@value 006F  
              __end_of_counterClockWise 1017                              _txAttempts 007A  
                             _UART_Init 1BB1                             ___fladd@grs 0068  
              __end_of_CheckAlarmButton 1F84                           ___xxtofl@sign 002A  
                       _ReadTemperature 1BF4                   __size_of_ReadHumidity 0085  
                           ___fldiv@grs 00B7                             ___fldiv@rem 00B0  
                __size_of_HandleRequest 014F                         DriveMotor@i_229 0077  
            __size_of_ManageTemperature 00D9                            ??_DriveMotor 0073  
                           ___flmul@grs 003E             __end_of_HandleKeypadReading 1800  
                __size_of_MotorRotation 0020       __size_of_UART_TxTempHumDataPacket 0064  
             ?_UART_TxTempHumDataPacket 0070             __end_of_CheckOpenDoorButton 0890  
                        __end_of___flge 16EF                          SendLCDString@i 0021  
                        __end_of___wmul 1B07                              ?_UART_Init 002E  
                          _ReadHumidity 11A3          __size_of_UART_TxBoolDataPacket 0064  
                  __size_of_CheckKeypad 0082           __end_of_UART_TxBoolDataPacket 1DEC  
                        __end_of_keypad 1012           __size_of_UpdateTempHumDisplay 003D  
                    __end_of_DriveMotor 1C87                     start_initialization 000F  
               ??_PrepareBoolDataPacket 0074                             __end_of_ISR 12BE  
               __size_of_ManageDisplays 003C                  MotorRotation@amplitude 0020  
                MotorRotation@direction 0022               ??_UpdateLCDViewWithNumber 00C1  
        UpdateLCDViewWithNumber@decimal 00C6                          _currentDisplay 0079  
                         _HandleRequest 067D                                ??___flge 0069  
                              ??___wmul 0077                              init_fetch0 1A26  
                             __Umul8_16 1AB3                             __pdataBANK1 00E4  
                           __pdataBANK3 01BE                 __end_of_ReadTemperature 1C3D  
                             ___fladd@a 0059                               ___fladd@b 0055  
          __end_of_ManageReceivedPacket 1D2A                               ___fldiv@a 00A8  
                             ___fldiv@b 00AC                               ___flmul@a 0034  
                             ___flmul@b 0030               PrepareBoolDataPacket@type 0075  
                           __pbssCOMMON 0078                           _MotorRotation 1085  
                             ___flsub@a 00A0                               ___flsub@b 00A4  
                             ___latbits 0002  UART_TxDesiredTempDataPacket@dataPacket 0077  
                         __pcstackBANK0 0020                           __pcstackBANK1 00A0  
                         __pcstackBANK3 01CC                       __size_of___xxtofl 00BC  
                              ?_InitADC 0070                                ?_ReadADC 0073  
                              ?_InitLCD 0070                                ?_InitPic 0070  
                              ?_SendLCD 0073                     _desiredTempPacketTx 01B3  
                        ?_HandleRequest 0070                                ?___aldiv 0020  
                              ?___fladd 0055                                ?___fldiv 00A8  
                              ?___flmul 0030                                ?___flsub 00A0  
                              ?___fltol 004A                               _clockWise 1017  
                            ?__Umul8_16 0073                             ??_UART_Init 0074  
                             __pstrings 1000                          ?_MotorRotation 0020  
                         UART_TxChar@ch 0074                             _flagsSerial 00E3  
                          _receivedData 00D5                         ___aldiv@divisor 0020  
                     interrupt_function 0004                         ___aldiv@counter 0028  
                        ___wmul@product 0020                               clear_ram0 1A00  
                         ??_UART_TxChar 0073                       UART_Init@baudRate 002E  
                      ?_ReadTemperature 0070                               _txSuccess 00E8  
                           __stringbase 1005                       ___wmul@multiplier 0073  
              _counterAntibouncingAlarm 01A7                          _ManageDisplays 1B38  
                        _txReceivedData 00D4                       ?_CheckAlarmButton 0070  
                    ??_CheckAlarmButton 0024        __end_of_UART_TxTempHumDataPacket 1F18  
                            _ADCReading 01A3                   __end_of_SendLCDString 1D88  
    UART_TxTempHumDataPacket@dataPacket 0077                         ??_HandleRequest 01CC  
                      __size_of_InitADC 0010                        __size_of_ReadADC 0028  
                      __size_of_InitLCD 0064                    _ManageReceivedPacket 1CD7  
                      __size_of_InitPic 0014                        _transmittingData 00D3  
                      __size_of_SendLCD 0031                             _oldDoorOpen 00D7  
                           ??__Umul8_16 0075                        __size_of___aldiv 009D  
                      __size_of___fladd 0288                        __size_of___fldiv 0263  
                   __end_of_UART_TxChar 07FF                        __size_of___flmul 0361  
                      __size_of___flsub 0050                        __size_of___fltol 007C  
       UpdateLCDViewWithNumber@hundreds 00C8                         ??_MotorRotation 0021  
                    __end_of__stringtab 1006                          _postScalerTemp 01A1  
     __size_of_PrepareTempHumDataPacket 02D8               ?_PrepareTempHumDataPacket 00BD  
                __end_of_ManageDisplays 1B74            _PrepareTempHumDataPacket$908 00CD  
                              ___xxtofl 135B         UpdateLCDViewWithNumber@position 00C5  
                           _dutyCounter 00DC                                __ptext10 1EB4  
                              __ptext11 03A5                                __ptext20 1E50  
                              __ptext12 1A61          __size_of_PrepareBoolDataPacket 0016  
                              __ptext21 14F0                                __ptext13 1B38  
                              __ptext30 1B07                                __ptext22 135B  
                              __ptext14 0AF3                                __ptext31 1A16  
                              __ptext23 1F84                                __ptext15 0044  
                              __ptext40 1A75                                __ptext32 0807  
                              __ptext24 1C87                                __ptext16 1AB3  
                              __ptext41 1228                                __ptext33 1085  
                              __ptext25 0D78                                __ptext17 1D2A  
                              __ptext34 1C3D                                __ptext26 0890  
                              __ptext18 16EF                                __ptext35 1121  
                              __ptext27 1A4D                                __ptext19 15DF  
                              __ptext36 1F18                                __ptext28 1A39  
                              __ptext37 1D88                                __ptext29 1DEC  
                              __ptext38 1ADC                                __ptext39 07CC  
         __end_of_PrepareBoolDataPacket 1A8B                                _displays 01BE  
                 _retransmissionCounter 019B                                _doorOpen 00D8  
                              _keyValue 00EA                             _partCounter 00D2  
          __end_of_UpdateTempHumDisplay 1BB1                           __size_of_main 007C  
                              _humidity 01C2                   ?_ManageReceivedPacket 0070  
                         ??_CheckKeypad 0073            __size_of_HandleKeypadReading 0111  
                       ?_ManageDisplays 0070            __size_of_CheckOpenDoorButton 0089  
                 _UART_TxBoolDataPacket 1D88                                init_ram0 1A2A  
                         _postScalerHum 019F                                intlevel1 0000  
              _UART_TxTempHumDataPacket 1EB4                               stringcode 1000  
                           _UART_TxChar 07CC                  __Umul8_16@multiplicand 0073  
                            _OPTION_REG 0081                             _temperature 0195  
                   __end_of_CheckKeypad 11A3                     _counterAntibouncing 01A9  
                              stringdir 1000                                stringtab 1000  
                          ___aldiv@sign 0029                           ?_ManageHeater 0070  
                         ?_ManageCooler 0070                           ___fladd@signs 0065  
              ?_UpdateLCDViewWithNumber 00BD                            ___fladd@aexp 0066  
                          ___fladd@bexp 0067    __end_of_UART_TxDesiredTempDataPacket 1EB4  
 __size_of_UART_TxDesiredTempDataPacket 0064            _UART_TxDesiredTempDataPacket 1E50  
                ??_ManageReceivedPacket 006E                    __Umul8_16@multiplier 0024  
                     __Umul8_16@product 0020  
