

Microchip MPLAB XC8 Assembler V2.32 build 20210201212658 
                                                                                               Sun Jul 03 11:58:08 2022

Microchip MPLAB XC8 C Compiler v2.32 (Free license) build 20210201212658 Og1 
     1                           	processor	16F877A
     2                           	pagewidth 120
     3                           	opt	flic
     4                           	psect	idataBANK0,global,class=CODE,delta=2,noexec
     5                           	psect	idataBANK1,global,class=CODE,delta=2,noexec
     6                           	psect	strings,global,class=STRING,delta=2,noexec
     7                           	psect	cinit,global,class=CODE,merge=1,delta=2
     8                           	psect	bssCOMMON,global,class=COMMON,space=1,delta=1,noexec
     9                           	psect	bssBANK0,global,class=BANK0,space=1,delta=1,noexec
    10                           	psect	dataBANK0,global,class=BANK0,space=1,delta=1,noexec
    11                           	psect	bssBANK1,global,class=BANK1,space=1,delta=1,noexec
    12                           	psect	dataBANK1,global,class=BANK1,space=1,delta=1,noexec
    13                           	psect	inittext,global,class=CODE,delta=2
    14                           	psect	clrtext,global,class=CODE,delta=2
    15                           	psect	cstackBANK1,global,class=BANK1,space=1,delta=1,noexec
    16                           	psect	cstackCOMMON,global,class=COMMON,space=1,delta=1,noexec
    17                           	psect	cstackBANK0,global,class=BANK0,space=1,delta=1,noexec
    18                           	psect	maintext,global,class=CODE,split=1,delta=2
    19                           	psect	text1,local,class=CODE,merge=1,delta=2
    20                           	psect	text2,local,class=CODE,merge=1,delta=2
    21                           	psect	text3,local,class=CODE,merge=1,delta=2
    22                           	psect	text4,local,class=CODE,merge=1,delta=2
    23                           	psect	text5,local,class=CODE,merge=1,delta=2
    24                           	psect	text6,local,class=CODE,merge=1,delta=2
    25                           	psect	text7,local,class=CODE,merge=1,delta=2
    26                           	psect	text8,local,class=CODE,merge=1,delta=2,group=1
    27                           	psect	text9,local,class=CODE,merge=1,delta=2,group=1
    28                           	psect	text10,local,class=CODE,merge=1,delta=2,group=1
    29                           	psect	text11,local,class=CODE,merge=1,delta=2,group=1
    30                           	psect	text12,local,class=CODE,merge=1,delta=2,group=1
    31                           	psect	text13,local,class=CODE,merge=1,delta=2,group=1
    32                           	psect	text14,local,class=CODE,merge=1,delta=2
    33                           	psect	text15,local,class=CODE,merge=1,delta=2
    34                           	psect	text16,local,class=CODE,merge=1,delta=2,group=1
    35                           	psect	text17,local,class=CODE,merge=1,delta=2,group=1
    36                           	psect	text18,local,class=CODE,merge=1,delta=2,group=1
    37                           	psect	text19,local,class=CODE,merge=1,delta=2
    38                           	psect	text20,local,class=CODE,merge=1,delta=2
    39                           	psect	text21,local,class=CODE,merge=1,delta=2
    40                           	psect	text22,local,class=CODE,merge=1,delta=2
    41                           	psect	text23,local,class=CODE,merge=1,delta=2
    42                           	psect	text24,local,class=CODE,merge=1,delta=2
    43                           	psect	text25,local,class=CODE,merge=1,delta=2
    44                           	psect	text26,local,class=CODE,merge=1,delta=2
    45                           	psect	text27,local,class=CODE,merge=1,delta=2
    46                           	psect	text28,local,class=CODE,merge=1,delta=2
    47                           	psect	text29,local,class=CODE,merge=1,delta=2
    48                           	psect	intentry,global,class=CODE,delta=2
    49                           	psect	config,global,abs,ovrld,class=CONFIG,space=4,delta=2,noexec
    50                           	dabs	1,0x7E,2
    51  0000                     
    52                           ; Version 2.20
    53                           ; Generated 12/02/2020 GMT
    54                           ; 
    55                           ; Copyright © 2020, Microchip Technology Inc. and its subsidiaries ("Microchip")
    56                           ; All rights reserved.
    57                           ; 
    58                           ; This software is developed by Microchip Technology Inc. and its subsidiaries ("Microch
      +                          ip").
    59                           ; 
    60                           ; Redistribution and use in source and binary forms, with or without modification, are
    61                           ; permitted provided that the following conditions are met:
    62                           ; 
    63                           ;     1. Redistributions of source code must retain the above copyright notice, this lis
      +                          t of
    64                           ;        conditions and the following disclaimer.
    65                           ; 
    66                           ;     2. Redistributions in binary form must reproduce the above copyright notice, this 
      +                          list
    67                           ;        of conditions and the following disclaimer in the documentation and/or other
    68                           ;        materials provided with the distribution.
    69                           ; 
    70                           ;     3. Microchip's name may not be used to endorse or promote products derived from th
      +                          is
    71                           ;        software without specific prior written permission.
    72                           ; 
    73                           ; THIS SOFTWARE IS PROVIDED BY MICROCHIP "AS IS" AND ANY EXPRESS OR IMPLIED WARRANTIES,
    74                           ; INCLUDING, BUT NOT LIMITED TO, THE IMPLIED WARRANTIES OF MERCHANTABILITY AND FITNESS F
      +                          OR
    75                           ; PURPOSE ARE DISCLAIMED.  IN NO EVENT SHALL MICROCHIP BE LIABLE FOR ANY DIRECT, INDIREC
      +                          T,
    76                           ; INCIDENTAL, SPECIAL, EXEMPLARY, OR CONSEQUENTIAL DAMAGES (INCLUDING BUT NOT LIMITED TO
    77                           ; PROCUREMENT OF SUBSTITUTE GOODS OR SERVICES; LOSS OF USE, DATA OR PROFITS; OR BUSINESS
    78                           ; INTERRUPTION) HOWSOEVER CAUSED AND ON ANY THEORY OF LIABILITY, WHETHER IN CONTRACT, ST
      +                          RICT
    79                           ; LIABILITY, OR TORT (INCLUDING NEGLIGENCE OR OTHERWISE) ARISING IN ANY WAY OUT OF THE U
      +                          SE OF
    80                           ; THIS SOFTWARE, EVEN IF ADVISED OF THE POSSIBILITY OF SUCH DAMAGE.
    81                           ; 
    82                           ; 
    83                           ; Code-generator required, PIC16F877A Definitions
    84                           ; 
    85                           ; SFR Addresses
    86  0000                     	;# 
    87  0001                     	;# 
    88  0002                     	;# 
    89  0003                     	;# 
    90  0004                     	;# 
    91  0005                     	;# 
    92  0006                     	;# 
    93  0007                     	;# 
    94  0008                     	;# 
    95  0009                     	;# 
    96  000A                     	;# 
    97  000B                     	;# 
    98  000C                     	;# 
    99  000D                     	;# 
   100  000E                     	;# 
   101  000E                     	;# 
   102  000F                     	;# 
   103  0010                     	;# 
   104  0011                     	;# 
   105  0012                     	;# 
   106  0013                     	;# 
   107  0014                     	;# 
   108  0015                     	;# 
   109  0015                     	;# 
   110  0016                     	;# 
   111  0017                     	;# 
   112  0018                     	;# 
   113  0019                     	;# 
   114  001A                     	;# 
   115  001B                     	;# 
   116  001B                     	;# 
   117  001C                     	;# 
   118  001D                     	;# 
   119  001E                     	;# 
   120  001F                     	;# 
   121  0081                     	;# 
   122  0085                     	;# 
   123  0086                     	;# 
   124  0087                     	;# 
   125  0088                     	;# 
   126  0089                     	;# 
   127  008C                     	;# 
   128  008D                     	;# 
   129  008E                     	;# 
   130  0091                     	;# 
   131  0092                     	;# 
   132  0093                     	;# 
   133  0094                     	;# 
   134  0098                     	;# 
   135  0099                     	;# 
   136  009C                     	;# 
   137  009D                     	;# 
   138  009E                     	;# 
   139  009F                     	;# 
   140  010C                     	;# 
   141  010D                     	;# 
   142  010E                     	;# 
   143  010F                     	;# 
   144  018C                     	;# 
   145  018D                     	;# 
   146  0000                     	;# 
   147  0001                     	;# 
   148  0002                     	;# 
   149  0003                     	;# 
   150  0004                     	;# 
   151  0005                     	;# 
   152  0006                     	;# 
   153  0007                     	;# 
   154  0008                     	;# 
   155  0009                     	;# 
   156  000A                     	;# 
   157  000B                     	;# 
   158  000C                     	;# 
   159  000D                     	;# 
   160  000E                     	;# 
   161  000E                     	;# 
   162  000F                     	;# 
   163  0010                     	;# 
   164  0011                     	;# 
   165  0012                     	;# 
   166  0013                     	;# 
   167  0014                     	;# 
   168  0015                     	;# 
   169  0015                     	;# 
   170  0016                     	;# 
   171  0017                     	;# 
   172  0018                     	;# 
   173  0019                     	;# 
   174  001A                     	;# 
   175  001B                     	;# 
   176  001B                     	;# 
   177  001C                     	;# 
   178  001D                     	;# 
   179  001E                     	;# 
   180  001F                     	;# 
   181  0081                     	;# 
   182  0085                     	;# 
   183  0086                     	;# 
   184  0087                     	;# 
   185  0088                     	;# 
   186  0089                     	;# 
   187  008C                     	;# 
   188  008D                     	;# 
   189  008E                     	;# 
   190  0091                     	;# 
   191  0092                     	;# 
   192  0093                     	;# 
   193  0094                     	;# 
   194  0098                     	;# 
   195  0099                     	;# 
   196  009C                     	;# 
   197  009D                     	;# 
   198  009E                     	;# 
   199  009F                     	;# 
   200  010C                     	;# 
   201  010D                     	;# 
   202  010E                     	;# 
   203  010F                     	;# 
   204  018C                     	;# 
   205  018D                     	;# 
   206                           
   207                           	psect	idataBANK0
   208  151D                     __pidataBANK0:
   209                           
   210                           ;initializer for _setTemp
   211  151D  3400               	retlw	0
   212  151E  3400               	retlw	0
   213  151F  34B0               	retlw	176
   214  1520  3441               	retlw	65
   215                           
   216                           ;initializer for _startDisplay
   217  1521  346C               	retlw	low ((STR_1-__stringbase)| (0+32768))
   218                           
   219                           ;initializer for _maxSetTemp
   220  1522  3423               	retlw	35
   221                           
   222                           ;initializer for _minSetTemp
   223  1523  340C               	retlw	12
   224                           
   225                           ;initializer for _keyValue
   226  1524  3463               	retlw	99
   227                           
   228                           	psect	idataBANK1
   229  1525                     __pidataBANK1:
   230                           
   231                           ;initializer for _displays
   232  1525  343E               	retlw	low (((STR_4+32)-__stringbase)| (0+32768))
   233  1526  343F               	retlw	low ((STR_3-__stringbase)| (0+32768))
   234  1527  341E               	retlw	low ((STR_4-__stringbase)| (0+32768))
   235  1528  345B               	retlw	low ((STR_5-__stringbase)| (0+32768))
   236                           
   237                           ;initializer for _humidity
   238  1529  3400               	retlw	0
   239  152A  3400               	retlw	0
   240  152B  3448               	retlw	72
   241  152C  3442               	retlw	66
   242                           
   243                           ;initializer for _temperatureBuffer
   244  152D  3400               	retlw	0
   245  152E  3400               	retlw	0
   246  152F  3400               	retlw	0
   247  1530  343F               	retlw	63
   248                           
   249                           	psect	strings
   250  0800                     __pstrings:
   251  0800                     stringtab:
   252  0800                     __stringtab:
   253  0800                     stringcode:	
   254                           ;	String table - string pointers are 1 byte each
   255                           
   256  0800                     stringdir:
   257  0800  3008               	movlw	high stringdir
   258  0801  008A               	movwf	10
   259  0802  0804               	movf	4,w
   260  0803  0A84               	incf	4,f
   261  0804  0782               	addwf	2,f
   262  0805                     __stringbase:
   263  0805  3400               	retlw	0
   264  0806                     __end_of__stringtab:
   265  0806                     _keypad:
   266  0806  3401               	retlw	1
   267  0807  3404               	retlw	4
   268  0808  3407               	retlw	7
   269  0809  342A               	retlw	42
   270  080A  3402               	retlw	2
   271  080B  3405               	retlw	5
   272  080C  3408               	retlw	8
   273  080D  3400               	retlw	0
   274  080E  3403               	retlw	3
   275  080F  3406               	retlw	6
   276  0810  3409               	retlw	9
   277  0811  3423               	retlw	35
   278  0812                     __end_of_keypad:
   279  0812                     _counterClockWise:
   280  0812  3490               	retlw	144
   281  0813  34C0               	retlw	192
   282  0814  3460               	retlw	96
   283  0815  3430               	retlw	48
   284  0816  3490               	retlw	144
   285  0817                     __end_of_counterClockWise:
   286  0817                     _clockWise:
   287  0817  3430               	retlw	48
   288  0818  3460               	retlw	96
   289  0819  34C0               	retlw	192
   290  081A  3490               	retlw	144
   291  081B  3430               	retlw	48
   292  081C                     __end_of_clockWise:
   293  081C                     _rowMask:
   294  081C  3408               	retlw	8
   295  081D  3404               	retlw	4
   296  081E  3402               	retlw	2
   297  081F  3401               	retlw	1
   298  0820                     __end_of_rowMask:
   299  0820                     _colMask:
   300  0820  34FE               	retlw	254
   301  0821  34FD               	retlw	253
   302  0822  34FB               	retlw	251
   303  0823                     __end_of_colMask:
   304  001E                     _ADRESH	set	30
   305  0009                     _PORTE	set	9
   306  001F                     _ADCON0	set	31
   307  0008                     _PORTD	set	8
   308  0007                     _PORTC	set	7
   309  0006                     _PORTB	set	6
   310  0001                     _TMR0	set	1
   311  000B                     _INTCON	set	11
   312  009E                     _ADRESL	set	158
   313  0081                     _OPTION_REG	set	129
   314  0089                     _TRISE	set	137
   315  009F                     _ADCON1	set	159
   316  0085                     _TRISA	set	133
   317  0088                     _TRISD	set	136
   318  0087                     _TRISC	set	135
   319  0086                     _TRISB	set	134
   320  0823                     STR_4:
   321  0823  3454               	retlw	84	;'T'
   322  0824  3465               	retlw	101	;'e'
   323  0825  346D               	retlw	109	;'m'
   324  0826  3470               	retlw	112	;'p'
   325  0827  3420               	retlw	32	;' '
   326  0828  3420               	retlw	32	;' '
   327  0829  3420               	retlw	32	;' '
   328  082A  3420               	retlw	32	;' '
   329  082B  343A               	retlw	58	;':'
   330  082C  3420               	retlw	32	;' '
   331  082D  3420               	retlw	32	;' '
   332  082E  3420               	retlw	32	;' '
   333  082F  3420               	retlw	32	;' '
   334  0830  3420               	retlw	32	;' '
   335  0831  3420               	retlw	32	;' '
   336  0832  3420               	retlw	32	;' '
   337  0833  3448               	retlw	72	;'H'
   338  0834  3475               	retlw	117	;'u'
   339  0835  346D               	retlw	109	;'m'
   340  0836  3469               	retlw	105	;'i'
   341  0837  3464               	retlw	100	;'d'
   342  0838  3469               	retlw	105	;'i'
   343  0839  3474               	retlw	116	;'t'
   344  083A  3479               	retlw	121	;'y'
   345  083B  343A               	retlw	58	;':'
   346  083C  3420               	retlw	32	;' '
   347  083D  3420               	retlw	32	;' '
   348  083E  3420               	retlw	32	;' '
   349  083F  3420               	retlw	32	;' '
   350  0840  3420               	retlw	32	;' '
   351  0841  3420               	retlw	32	;' '
   352  0842  3425               	retlw	37	;'%'
   353  0843  3400               	retlw	0
   354  0844                     STR_3:
   355  0844  3420               	retlw	32	;' '
   356  0845  3420               	retlw	32	;' '
   357  0846  3457               	retlw	87	;'W'
   358  0847  3465               	retlw	101	;'e'
   359  0848  346C               	retlw	108	;'l'
   360  0849  3463               	retlw	99	;'c'
   361  084A  346F               	retlw	111	;'o'
   362  084B  346D               	retlw	109	;'m'
   363  084C  3465               	retlw	101	;'e'
   364  084D  3420               	retlw	32	;' '
   365  084E  3454               	retlw	84	;'T'
   366  084F  346F               	retlw	111	;'o'
   367  0850  3420               	retlw	32	;' '
   368  0851  3420               	retlw	32	;' '
   369  0852  3420               	retlw	32	;' '
   370  0853  3420               	retlw	32	;' '
   371  0854  3420               	retlw	32	;' '
   372  0855  3420               	retlw	32	;' '
   373  0856  3420               	retlw	32	;' '
   374  0857  3420               	retlw	32	;' '
   375  0858  3443               	retlw	67	;'C'
   376  0859  346F               	retlw	111	;'o'
   377  085A  3461               	retlw	97	;'a'
   378  085B  3463               	retlw	99	;'c'
   379  085C  3468               	retlw	104	;'h'
   380  085D  3420               	retlw	32	;' '
   381  085E  3431               	retlw	49	;'1'
   382  085F  3400               	retlw	0
   383  0860                     STR_5:
   384  0860  3453               	retlw	83	;'S'
   385  0861  3465               	retlw	101	;'e'
   386  0862  3474               	retlw	116	;'t'
   387  0863  3420               	retlw	32	;' '
   388  0864  3454               	retlw	84	;'T'
   389  0865  3465               	retlw	101	;'e'
   390  0866  346D               	retlw	109	;'m'
   391  0867  3470               	retlw	112	;'p'
   392  0868  3465               	retlw	101	;'e'
   393  0869  3472               	retlw	114	;'r'
   394  086A  3461               	retlw	97	;'a'
   395  086B  3474               	retlw	116	;'t'
   396  086C  3475               	retlw	117	;'u'
   397  086D  3472               	retlw	114	;'r'
   398  086E  3465               	retlw	101	;'e'
   399  086F  343A               	retlw	58	;':'
   400  0870  3400               	retlw	0
   401  0871                     STR_1:
   402  0871  3453               	retlw	83	;'S'
   403  0872  3479               	retlw	121	;'y'
   404  0873  3473               	retlw	115	;'s'
   405  0874  3474               	retlw	116	;'t'
   406  0875  3465               	retlw	101	;'e'
   407  0876  346D               	retlw	109	;'m'
   408  0877  3420               	retlw	32	;' '
   409  0878  3453               	retlw	83	;'S'
   410  0879  3474               	retlw	116	;'t'
   411  087A  3461               	retlw	97	;'a'
   412  087B  3472               	retlw	114	;'r'
   413  087C  3474               	retlw	116	;'t'
   414  087D  3465               	retlw	101	;'e'
   415  087E  3464               	retlw	100	;'d'
   416  087F  3400               	retlw	0
   417  0843                     
   418                           	psect	cinit
   419  000F                     start_initialization:	
   420                           ; #config settings
   421                           
   422  000F                     __initialization:
   423                           
   424                           ; Initialize objects allocated to BANK1
   425  000F  1383               	bcf	3,7	;select IRP bank0
   426  0010  30AC               	movlw	low (__pdataBANK1+12)
   427  0011  00FD               	movwf	btemp+-1
   428  0012  3015               	movlw	high __pidataBANK1
   429  0013  00FE               	movwf	btemp
   430  0014  3025               	movlw	low __pidataBANK1
   431  0015  00FF               	movwf	btemp+1
   432  0016  30A0               	movlw	low __pdataBANK1
   433  0017  0084               	movwf	4
   434  0018  120A  158A  2084  120A  118A  	fcall	init_ram0
   435                           
   436                           ; Initialize objects allocated to BANK0
   437  001D  3070               	movlw	low (__pdataBANK0+8)
   438  001E  00FD               	movwf	btemp+-1
   439  001F  3015               	movlw	high __pidataBANK0
   440  0020  00FE               	movwf	btemp
   441  0021  301D               	movlw	low __pidataBANK0
   442  0022  00FF               	movwf	btemp+1
   443  0023  3068               	movlw	low __pdataBANK0
   444  0024  0084               	movwf	4
   445  0025  120A  158A  2084  120A  118A  	fcall	init_ram0
   446                           
   447                           ; Clear objects allocated to BANK1
   448  002A  30AC               	movlw	low __pbssBANK1
   449  002B  0084               	movwf	4
   450  002C  30B6               	movlw	low (__pbssBANK1+10)
   451  002D  160A  118A  2515  120A  118A  	fcall	clear_ram0
   452                           
   453                           ; Clear objects allocated to BANK0
   454  0032  3057               	movlw	low __pbssBANK0
   455  0033  0084               	movwf	4
   456  0034  3068               	movlw	low (__pbssBANK0+17)
   457  0035  160A  118A  2515  120A  118A  	fcall	clear_ram0
   458                           
   459                           ; Clear objects allocated to COMMON
   460  003A  01F8               	clrf	__pbssCOMMON& (0+127)
   461  003B  01F9               	clrf	(__pbssCOMMON+1)& (0+127)
   462  003C  01FA               	clrf	(__pbssCOMMON+2)& (0+127)
   463  003D                     end_of_initialization:	
   464                           ;End of C runtime variable initialization code
   465                           
   466  003D                     __end_of__initialization:
   467  003D  0183               	clrf	3
   468  003E  120A  118A  2E32   	ljmp	_main	;jump to C main() function
   469                           
   470                           	psect	bssCOMMON
   471  0078                     __pbssCOMMON:
   472  0078                     _currentDisplay:
   473  0078                     	ds	1
   474  0079                     _colScan:
   475  0079                     	ds	1
   476  007A                     _flags:
   477  007A                     	ds	1
   478                           
   479                           	psect	bssBANK0
   480  0057                     __pbssBANK0:
   481  0057                     _temperature:
   482  0057                     	ds	4
   483  005B                     _counterAntibouncing:
   484  005B                     	ds	2
   485  005D                     _oldDoorOpen:
   486  005D                     	ds	1
   487  005E                     _doorOpen:
   488  005E                     	ds	1
   489  005F                     _oldRB3:
   490  005F                     	ds	1
   491  0060                     _oldRB2:
   492  0060                     	ds	1
   493  0061                     _alarmOn:
   494  0061                     	ds	1
   495  0062                     _oldDisplay:
   496  0062                     	ds	1
   497  0063                     _dutyCounter:
   498  0063                     	ds	1
   499  0064                     _keypadReading:
   500  0064                     	ds	1
   501  0065                     _dutyCooler:
   502  0065                     	ds	1
   503  0066                     _dutyHeater:
   504  0066                     	ds	1
   505  0067                     _rowScan:
   506  0067                     	ds	1
   507                           
   508                           	psect	dataBANK0
   509  0068                     __pdataBANK0:
   510  0068                     _setTemp:
   511  0068                     	ds	4
   512  006C                     _startDisplay:
   513  006C                     	ds	1
   514  006D                     _maxSetTemp:
   515  006D                     	ds	1
   516  006E                     _minSetTemp:
   517  006E                     	ds	1
   518  006F                     _keyValue:
   519  006F                     	ds	1
   520                           
   521                           	psect	bssBANK1
   522  00AC                     __pbssBANK1:
   523  00AC                     _postScalerHum:
   524  00AC                     	ds	2
   525  00AE                     _postScalerTemp:
   526  00AE                     	ds	2
   527  00B0                     _ADCReading:
   528  00B0                     	ds	2
   529  00B2                     _counterAntibouncingDoor:
   530  00B2                     	ds	2
   531  00B4                     _counterAntibouncingAlarm:
   532  00B4                     	ds	2
   533                           
   534                           	psect	dataBANK1
   535  00A0                     __pdataBANK1:
   536  00A0                     _displays:
   537  00A0                     	ds	4
   538  00A4                     _humidity:
   539  00A4                     	ds	4
   540  00A8                     _temperatureBuffer:
   541  00A8                     	ds	4
   542                           
   543                           	psect	inittext
   544  0880                     init_fetch0:	
   545                           ;	Called with low address in FSR and high address in W
   546                           
   547  0880  087E               	movf	btemp,w
   548  0881  008A               	movwf	10
   549  0882  087F               	movf	btemp+1,w
   550  0883  0082               	movwf	2
   551  0884                     init_ram0:	
   552                           ;Called with:
   553                           ;	high address of idata address in btemp 
   554                           ;	low address of idata address in btemp+1 
   555                           ;	low address of data in FSR
   556                           ;	high address + 1 of data in btemp-1
   557                           
   558  0884  120A  158A  2080  120A  158A  	fcall	init_fetch0
   559  0889  0080               	movwf	0
   560  088A  0A84               	incf	4,f
   561  088B  0804               	movf	4,w
   562  088C  067D               	xorwf	btemp+-1,w
   563  088D  1903               	btfsc	3,2
   564  088E  3400               	retlw	0
   565  088F  0AFF               	incf	btemp+1,f
   566  0890  1903               	btfsc	3,2
   567  0891  0AFE               	incf	btemp,f
   568  0892  2884               	goto	init_ram0
   569                           
   570                           	psect	clrtext
   571  1515                     clear_ram0:	
   572                           ;	Called with FSR containing the base address, and
   573                           ;	W with the last address+1
   574                           
   575  1515  0064               	clrwdt	;clear the watchdog before getting into this loop
   576  1516                     clrloop0:
   577  1516  0180               	clrf	0	;clear RAM location pointed to by FSR
   578  1517  0A84               	incf	4,f	;increment pointer
   579  1518  0604               	xorwf	4,w	;XOR with final address
   580  1519  1903               	btfsc	3,2	;have we reached the end yet?
   581  151A  3400               	retlw	0	;all done for this memory range, return
   582  151B  0604               	xorwf	4,w	;XOR again to restore value
   583  151C  2D16               	goto	clrloop0	;do the next byte
   584                           
   585                           	psect	cstackBANK1
   586  00B6                     __pcstackBANK1:
   587  00B6                     ??_ManageDisplays:
   588                           
   589                           ; 1 bytes @ 0x0
   590  00B6                     	ds	1
   591  00B7                     ??_main:
   592                           
   593                           ; 1 bytes @ 0x1
   594  00B7                     	ds	1
   595                           
   596                           	psect	cstackCOMMON
   597  0070                     __pcstackCOMMON:
   598  0070                     ?_InitPic:
   599  0070                     ?_InitLCD:	
   600                           ; 1 bytes @ 0x0
   601                           
   602  0070                     ?_InitADC:	
   603                           ; 1 bytes @ 0x0
   604                           
   605  0070                     ?_SendLCDString:	
   606                           ; 1 bytes @ 0x0
   607                           
   608  0070                     ?_CheckKeypad:	
   609                           ; 1 bytes @ 0x0
   610                           
   611  0070                     ?_ReadHumidity:	
   612                           ; 1 bytes @ 0x0
   613                           
   614  0070                     ?_ReadTemperature:	
   615                           ; 1 bytes @ 0x0
   616                           
   617  0070                     ?_CheckAlarmButton:	
   618                           ; 1 bytes @ 0x0
   619                           
   620  0070                     ?_CheckOpenDoorButton:	
   621                           ; 1 bytes @ 0x0
   622                           
   623  0070                     ?_ManageHeater:	
   624                           ; 1 bytes @ 0x0
   625                           
   626  0070                     ?_ManageCooler:	
   627                           ; 1 bytes @ 0x0
   628                           
   629  0070                     ?_UpdateTempHumDisplay:	
   630                           ; 1 bytes @ 0x0
   631                           
   632  0070                     ?_ManageDisplays:	
   633                           ; 1 bytes @ 0x0
   634                           
   635  0070                     ?_ISR:	
   636                           ; 1 bytes @ 0x0
   637                           
   638  0070                     ??_ISR:	
   639                           ; 1 bytes @ 0x0
   640                           
   641  0070                     ?_DriveMotor:	
   642                           ; 1 bytes @ 0x0
   643                           
   644  0070                     ?_HandleKeypadReading:	
   645                           ; 1 bytes @ 0x0
   646                           
   647  0070                     ?_main:	
   648                           ; 1 bytes @ 0x0
   649                           
   650                           
   651                           ; 2 bytes @ 0x0
   652  0070                     	ds	3
   653  0073                     ??_InitPic:
   654  0073                     ??_InitADC:	
   655                           ; 1 bytes @ 0x3
   656                           
   657  0073                     ??_CheckKeypad:	
   658                           ; 1 bytes @ 0x3
   659                           
   660  0073                     ??_CheckAlarmButton:	
   661                           ; 1 bytes @ 0x3
   662                           
   663  0073                     ??_ManageHeater:	
   664                           ; 1 bytes @ 0x3
   665                           
   666  0073                     ??_ManageCooler:	
   667                           ; 1 bytes @ 0x3
   668                           
   669  0073                     ?_SendLCD:	
   670                           ; 1 bytes @ 0x3
   671                           
   672  0073                     ??_DriveMotor:	
   673                           ; 1 bytes @ 0x3
   674                           
   675  0073                     ??___fldiv:	
   676                           ; 1 bytes @ 0x3
   677                           
   678  0073                     ?__Umul8_16:	
   679                           ; 1 bytes @ 0x3
   680                           
   681  0073                     ?_ReadADC:	
   682                           ; 2 bytes @ 0x3
   683                           
   684  0073                     ?___wmul:	
   685                           ; 2 bytes @ 0x3
   686                           
   687  0073                     SendLCD@type:	
   688                           ; 2 bytes @ 0x3
   689                           
   690  0073                     ___fladd@signs:	
   691                           ; 1 bytes @ 0x3
   692                           
   693  0073                     __Umul8_16@multiplicand:	
   694                           ; 1 bytes @ 0x3
   695                           
   696  0073                     ___wmul@multiplier:	
   697                           ; 1 bytes @ 0x3
   698                           
   699                           
   700                           ; 2 bytes @ 0x3
   701  0073                     	ds	1
   702  0074                     ??_SendLCD:
   703  0074                     ManageCooler@duty:	
   704                           ; 1 bytes @ 0x4
   705                           
   706  0074                     ManageHeater@duty:	
   707                           ; 1 bytes @ 0x4
   708                           
   709  0074                     ___fladd@aexp:	
   710                           ; 1 bytes @ 0x4
   711                           
   712                           
   713                           ; 1 bytes @ 0x4
   714  0074                     	ds	1
   715  0075                     ??__Umul8_16:
   716  0075                     ??_ReadADC:	
   717                           ; 1 bytes @ 0x5
   718                           
   719  0075                     DriveMotor@direction:	
   720                           ; 1 bytes @ 0x5
   721                           
   722  0075                     ___fladd@bexp:	
   723                           ; 1 bytes @ 0x5
   724                           
   725  0075                     ___wmul@multiplicand:	
   726                           ; 1 bytes @ 0x5
   727                           
   728                           
   729                           ; 2 bytes @ 0x5
   730  0075                     	ds	1
   731  0076                     DriveMotor@i:
   732  0076                     SendLCD@data:	
   733                           ; 1 bytes @ 0x6
   734                           
   735  0076                     ___fladd@grs:	
   736                           ; 1 bytes @ 0x6
   737                           
   738                           
   739                           ; 1 bytes @ 0x6
   740  0076                     	ds	1
   741  0077                     ??_SendLCDString:
   742  0077                     ??_ReadHumidity:	
   743                           ; 1 bytes @ 0x7
   744                           
   745  0077                     ??___wmul:	
   746                           ; 1 bytes @ 0x7
   747                           
   748  0077                     DriveMotor@i_172:	
   749                           ; 1 bytes @ 0x7
   750                           
   751  0077                     ReadADC@channel:	
   752                           ; 1 bytes @ 0x7
   753                           
   754                           
   755                           ; 1 bytes @ 0x7
   756  0077                     	ds	1
   757  0078                     ??_ReadTemperature:
   758  0078                     ??_UpdateTempHumDisplay:	
   759                           ; 1 bytes @ 0x8
   760                           
   761  0078                     ??___flsub:	
   762                           ; 1 bytes @ 0x8
   763                           
   764                           
   765                           	psect	cstackBANK0
   766  0020                     __pcstackBANK0:	
   767                           ; 1 bytes @ 0x8
   768                           
   769  0020                     ??_InitLCD:
   770  0020                     ?_MotorRotation:	
   771                           ; 1 bytes @ 0x0
   772                           
   773  0020                     ?___fladd:	
   774                           ; 1 bytes @ 0x0
   775                           
   776  0020                     ?___fldiv:	
   777                           ; 4 bytes @ 0x0
   778                           
   779  0020                     MotorRotation@amplitude:	
   780                           ; 4 bytes @ 0x0
   781                           
   782  0020                     SendLCDString@string:	
   783                           ; 1 bytes @ 0x0
   784                           
   785  0020                     ___wmul@product:	
   786                           ; 1 bytes @ 0x0
   787                           
   788  0020                     __Umul8_16@product:	
   789                           ; 2 bytes @ 0x0
   790                           
   791  0020                     ___fladd@b:	
   792                           ; 2 bytes @ 0x0
   793                           
   794  0020                     ___fldiv@a:	
   795                           ; 4 bytes @ 0x0
   796                           
   797                           
   798                           ; 4 bytes @ 0x0
   799  0020                     	ds	1
   800  0021                     ??_MotorRotation:
   801  0021                     SendLCDString@i:	
   802                           ; 1 bytes @ 0x1
   803                           
   804                           
   805                           ; 1 bytes @ 0x1
   806  0021                     	ds	1
   807  0022                     ?___xxtofl:
   808  0022                     MotorRotation@direction:	
   809                           ; 4 bytes @ 0x2
   810                           
   811  0022                     __Umul8_16@word_mpld:	
   812                           ; 1 bytes @ 0x2
   813                           
   814  0022                     ___xxtofl@val:	
   815                           ; 2 bytes @ 0x2
   816                           
   817                           
   818                           ; 4 bytes @ 0x2
   819  0022                     	ds	1
   820  0023                     MotorRotation@i:
   821                           
   822                           ; 1 bytes @ 0x3
   823  0023                     	ds	1
   824  0024                     ??_CheckOpenDoorButton:
   825  0024                     __Umul8_16@multiplier:	
   826                           ; 1 bytes @ 0x4
   827                           
   828  0024                     ___fladd@a:	
   829                           ; 1 bytes @ 0x4
   830                           
   831  0024                     ___fldiv@b:	
   832                           ; 4 bytes @ 0x4
   833                           
   834                           
   835                           ; 4 bytes @ 0x4
   836  0024                     	ds	2
   837  0026                     ??___xxtofl:
   838                           
   839                           ; 1 bytes @ 0x6
   840  0026                     	ds	2
   841  0028                     ??___fladd:
   842  0028                     ___fldiv@rem:	
   843                           ; 1 bytes @ 0x8
   844                           
   845                           
   846                           ; 4 bytes @ 0x8
   847  0028                     	ds	2
   848  002A                     ___xxtofl@sign:
   849                           
   850                           ; 1 bytes @ 0xA
   851  002A                     	ds	1
   852  002B                     ___xxtofl@exp:
   853                           
   854                           ; 1 bytes @ 0xB
   855  002B                     	ds	1
   856  002C                     ___fldiv@sign:
   857  002C                     ___xxtofl@arg:	
   858                           ; 1 bytes @ 0xC
   859                           
   860                           
   861                           ; 4 bytes @ 0xC
   862  002C                     	ds	1
   863  002D                     ___fldiv@new_exp:
   864                           
   865                           ; 2 bytes @ 0xD
   866  002D                     	ds	2
   867  002F                     ___fldiv@grs:
   868                           
   869                           ; 4 bytes @ 0xF
   870  002F                     	ds	1
   871  0030                     ?___flge:
   872  0030                     ?___flsub:	
   873                           ; 1 bit 
   874                           
   875  0030                     ?___flmul:	
   876                           ; 4 bytes @ 0x10
   877                           
   878  0030                     ___flge@ff1:	
   879                           ; 4 bytes @ 0x10
   880                           
   881  0030                     ___flsub@a:	
   882                           ; 4 bytes @ 0x10
   883                           
   884  0030                     ___flmul@b:	
   885                           ; 4 bytes @ 0x10
   886                           
   887                           
   888                           ; 4 bytes @ 0x10
   889  0030                     	ds	3
   890  0033                     ___fldiv@bexp:
   891                           
   892                           ; 1 bytes @ 0x13
   893  0033                     	ds	1
   894  0034                     ___fldiv@aexp:
   895  0034                     ___flge@ff2:	
   896                           ; 1 bytes @ 0x14
   897                           
   898  0034                     ___flsub@b:	
   899                           ; 4 bytes @ 0x14
   900                           
   901  0034                     ___flmul@a:	
   902                           ; 4 bytes @ 0x14
   903                           
   904                           
   905                           ; 4 bytes @ 0x14
   906  0034                     	ds	1
   907  0035                     ?___fltol:
   908  0035                     ___fltol@f1:	
   909                           ; 4 bytes @ 0x15
   910                           
   911                           
   912                           ; 4 bytes @ 0x15
   913  0035                     	ds	3
   914  0038                     ??___flge:
   915  0038                     ??___flmul:	
   916                           ; 1 bytes @ 0x18
   917                           
   918                           
   919                           ; 1 bytes @ 0x18
   920  0038                     	ds	1
   921  0039                     ??___fltol:
   922                           
   923                           ; 1 bytes @ 0x19
   924  0039                     	ds	3
   925  003C                     ??_HandleKeypadReading:
   926                           
   927                           ; 1 bytes @ 0x1C
   928  003C                     	ds	1
   929  003D                     HandleKeypadReading@value:
   930  003D                     ___flmul@sign:	
   931                           ; 1 bytes @ 0x1D
   932                           
   933                           
   934                           ; 1 bytes @ 0x1D
   935  003D                     	ds	1
   936  003E                     ___fltol@sign1:
   937  003E                     ___flmul@grs:	
   938                           ; 1 bytes @ 0x1E
   939                           
   940                           
   941                           ; 4 bytes @ 0x1E
   942  003E                     	ds	1
   943  003F                     ___fltol@exp1:
   944                           
   945                           ; 1 bytes @ 0x1F
   946  003F                     	ds	3
   947  0042                     ___flmul@aexp:
   948                           
   949                           ; 1 bytes @ 0x22
   950  0042                     	ds	1
   951  0043                     ___flmul@bexp:
   952                           
   953                           ; 1 bytes @ 0x23
   954  0043                     	ds	1
   955  0044                     ___flmul@prod:
   956                           
   957                           ; 4 bytes @ 0x24
   958  0044                     	ds	4
   959  0048                     ___flmul@temp:
   960                           
   961                           ; 2 bytes @ 0x28
   962  0048                     	ds	2
   963  004A                     ?_UpdateLCDViewWithNumber:
   964  004A                     UpdateLCDViewWithNumber@number:	
   965                           ; 1 bytes @ 0x2A
   966                           
   967                           
   968                           ; 4 bytes @ 0x2A
   969  004A                     	ds	4
   970  004E                     ??_UpdateLCDViewWithNumber:
   971                           
   972                           ; 1 bytes @ 0x2E
   973  004E                     	ds	4
   974  0052                     UpdateLCDViewWithNumber@position:
   975                           
   976                           ; 1 bytes @ 0x32
   977  0052                     	ds	1
   978  0053                     UpdateLCDViewWithNumber@decimal:
   979                           
   980                           ; 1 bytes @ 0x33
   981  0053                     	ds	1
   982  0054                     UpdateLCDViewWithNumber@unit:
   983                           
   984                           ; 1 bytes @ 0x34
   985  0054                     	ds	1
   986  0055                     UpdateLCDViewWithNumber@hundreds:
   987                           
   988                           ; 1 bytes @ 0x35
   989  0055                     	ds	1
   990  0056                     UpdateLCDViewWithNumber@tens:
   991                           
   992                           ; 1 bytes @ 0x36
   993  0056                     	ds	1
   994                           
   995                           	psect	maintext
   996  0632                     __pmaintext:	
   997 ;;
   998 ;;Main: autosize = 0, tempsize = 1, incstack = 0, save=0
   999 ;;
  1000 ;; *************** function _main *****************
  1001 ;; Defined at:
  1002 ;;		line 125 in file "main.c"
  1003 ;; Parameters:    Size  Location     Type
  1004 ;;		None
  1005 ;; Auto vars:     Size  Location     Type
  1006 ;;		None
  1007 ;; Return value:  Size  Location     Type
  1008 ;;                  2  138[None  ] int 
  1009 ;; Registers used:
  1010 ;;		wreg, fsr0l, fsr0h, status,2, status,0, btemp+1, pclath, cstack
  1011 ;; Tracked objects:
  1012 ;;		On entry : B00/0
  1013 ;;		On exit  : 0/0
  1014 ;;		Unchanged: 0/0
  1015 ;; Data sizes:     COMMON   BANK0   BANK1   BANK3   BANK2
  1016 ;;      Params:         0       0       0       0       0
  1017 ;;      Locals:         0       0       0       0       0
  1018 ;;      Temps:          0       0       1       0       0
  1019 ;;      Totals:         0       0       1       0       0
  1020 ;;Total ram usage:        1 bytes
  1021 ;; Hardware stack levels required when called: 5
  1022 ;; This function calls:
  1023 ;;		_CheckAlarmButton
  1024 ;;		_CheckKeypad
  1025 ;;		_CheckOpenDoorButton
  1026 ;;		_InitADC
  1027 ;;		_InitLCD
  1028 ;;		_InitPic
  1029 ;;		_ManageCooler
  1030 ;;		_ManageDisplays
  1031 ;;		_ManageHeater
  1032 ;;		_ReadHumidity
  1033 ;;		_ReadTemperature
  1034 ;;		_SendLCDString
  1035 ;;		_UpdateTempHumDisplay
  1036 ;;		___fladd
  1037 ;;		___flge
  1038 ;; This function is called by:
  1039 ;;		Startup code after reset
  1040 ;; This function uses a non-reentrant model
  1041 ;;
  1042                           
  1043                           
  1044                           ;psect for function _main
  1045  0632                     _main:
  1046  0632                     l3439:	
  1047                           ;incstack = 0
  1048                           ; Regs used in _main: [wreg-fsr0h+status,2+status,0+btemp+1+pclath+cstack]
  1049                           
  1050                           
  1051                           ;main.c: 127:     InitPic();
  1052  0632  160A  118A  2531  120A  118A  	fcall	_InitPic
  1053                           
  1054                           ;main.c: 128:     InitLCD();
  1055  0637  120A  158A  2093  120A  118A  	fcall	_InitLCD
  1056                           
  1057                           ;main.c: 129:     InitADC();
  1058  063C  160A  118A  253E  120A  118A  	fcall	_InitADC
  1059  0641                     l3441:
  1060                           
  1061                           ;main.c: 130:     SendLCDString(startDisplay);
  1062  0641  306C               	movlw	(low ((STR_1-__stringbase)| (0+32768)))& (0+255)
  1063  0642  160A  118A  27A2  120A  118A  	fcall	_SendLCDString
  1064  0647                     l3443:
  1065                           
  1066                           ;main.c: 132:     {;main.c: 133:         keypadReading = CheckKeypad();
  1067  0647  120A  158A  2160  120A  118A  	fcall	_CheckKeypad
  1068  064C  1683               	bsf	3,5	;RP0=1, select bank1
  1069  064D  1303               	bcf	3,6	;RP1=0, select bank1
  1070  064E  00B7               	movwf	??_main^(0+128)
  1071  064F  0837               	movf	??_main^(0+128),w
  1072  0650  1283               	bcf	3,5	;RP0=0, select bank0
  1073  0651  1303               	bcf	3,6	;RP1=0, select bank0
  1074  0652  00E4               	movwf	_keypadReading
  1075                           
  1076                           ;main.c: 134:         ReadHumidity();
  1077  0653  120A  158A  224F  120A  118A  	fcall	_ReadHumidity
  1078                           
  1079                           ;main.c: 135:         ReadTemperature();
  1080  0658  160A  118A  269B  120A  118A  	fcall	_ReadTemperature
  1081  065D                     l3445:
  1082                           
  1083                           ;main.c: 136:         CheckAlarmButton();
  1084  065D  160A  118A  2714  120A  118A  	fcall	_CheckAlarmButton
  1085  0662                     l3447:
  1086                           
  1087                           ;main.c: 137:         CheckOpenDoorButton();
  1088  0662  120A  158A  20F7  120A  118A  	fcall	_CheckOpenDoorButton
  1089  0667                     l3449:
  1090                           
  1091                           ;main.c: 138:         if(temperature < (setTemp-temperatureBuffer))
  1092  0667  1283               	bcf	3,5	;RP0=0, select bank0
  1093  0668  1303               	bcf	3,6	;RP1=0, select bank0
  1094  0669  085A               	movf	_temperature+3,w
  1095  066A  00B3               	movwf	___flge@ff1+3
  1096  066B  0859               	movf	_temperature+2,w
  1097  066C  00B2               	movwf	___flge@ff1+2
  1098  066D  0858               	movf	_temperature+1,w
  1099  066E  00B1               	movwf	___flge@ff1+1
  1100  066F  0857               	movf	_temperature,w
  1101  0670  00B0               	movwf	___flge@ff1
  1102  0671  30BF               	movlw	191
  1103  0672  00A3               	movwf	___fladd@b+3
  1104  0673  3000               	movlw	0
  1105  0674  00A2               	movwf	___fladd@b+2
  1106  0675  3000               	movlw	0
  1107  0676  00A1               	movwf	___fladd@b+1
  1108  0677  3000               	movlw	0
  1109  0678  00A0               	movwf	___fladd@b
  1110  0679  086B               	movf	_setTemp+3,w
  1111  067A  00A7               	movwf	___fladd@a+3
  1112  067B  086A               	movf	_setTemp+2,w
  1113  067C  00A6               	movwf	___fladd@a+2
  1114  067D  0869               	movf	_setTemp+1,w
  1115  067E  00A5               	movwf	___fladd@a+1
  1116  067F  0868               	movf	_setTemp,w
  1117  0680  00A4               	movwf	___fladd@a
  1118  0681  120A  118A  23A2  120A  118A  	fcall	___fladd
  1119  0686  1283               	bcf	3,5	;RP0=0, select bank0
  1120  0687  1303               	bcf	3,6	;RP1=0, select bank0
  1121  0688  0823               	movf	?___fladd+3,w
  1122  0689  00B7               	movwf	___flge@ff2+3
  1123  068A  0822               	movf	?___fladd+2,w
  1124  068B  00B6               	movwf	___flge@ff2+2
  1125  068C  0821               	movf	?___fladd+1,w
  1126  068D  00B5               	movwf	___flge@ff2+1
  1127  068E  0820               	movf	?___fladd,w
  1128  068F  00B4               	movwf	___flge@ff2
  1129  0690  120A  158A  22D4  120A  118A  	fcall	___flge
  1130  0695  1803               	btfsc	3,0
  1131  0696  2E98               	goto	u5371
  1132  0697  2E99               	goto	u5370
  1133  0698                     u5371:
  1134  0698  2EA3               	goto	l3455
  1135  0699                     u5370:
  1136  0699                     l3451:
  1137                           
  1138                           ;main.c: 139:         {;main.c: 140:             dutyHeater = 200;
  1139  0699  30C8               	movlw	200
  1140  069A  1683               	bsf	3,5	;RP0=1, select bank1
  1141  069B  1303               	bcf	3,6	;RP1=0, select bank1
  1142  069C  00B7               	movwf	??_main^(0+128)
  1143  069D  0837               	movf	??_main^(0+128),w
  1144  069E  1283               	bcf	3,5	;RP0=0, select bank0
  1145  069F  1303               	bcf	3,6	;RP1=0, select bank0
  1146  06A0  00E6               	movwf	_dutyHeater
  1147  06A1                     l3453:
  1148                           
  1149                           ;main.c: 141:             dutyCooler = 0;
  1150  06A1  01E5               	clrf	_dutyCooler
  1151                           
  1152                           ;main.c: 142:         }
  1153  06A2  2EE3               	goto	l3463
  1154  06A3                     l3455:
  1155  06A3  303F               	movlw	63
  1156  06A4  1283               	bcf	3,5	;RP0=0, select bank0
  1157  06A5  1303               	bcf	3,6	;RP1=0, select bank0
  1158  06A6  00A3               	movwf	___fladd@b+3
  1159  06A7  3000               	movlw	0
  1160  06A8  00A2               	movwf	___fladd@b+2
  1161  06A9  3000               	movlw	0
  1162  06AA  00A1               	movwf	___fladd@b+1
  1163  06AB  3000               	movlw	0
  1164  06AC  00A0               	movwf	___fladd@b
  1165  06AD  086B               	movf	_setTemp+3,w
  1166  06AE  00A7               	movwf	___fladd@a+3
  1167  06AF  086A               	movf	_setTemp+2,w
  1168  06B0  00A6               	movwf	___fladd@a+2
  1169  06B1  0869               	movf	_setTemp+1,w
  1170  06B2  00A5               	movwf	___fladd@a+1
  1171  06B3  0868               	movf	_setTemp,w
  1172  06B4  00A4               	movwf	___fladd@a
  1173  06B5  120A  118A  23A2  120A  118A  	fcall	___fladd
  1174  06BA  1283               	bcf	3,5	;RP0=0, select bank0
  1175  06BB  1303               	bcf	3,6	;RP1=0, select bank0
  1176  06BC  0823               	movf	?___fladd+3,w
  1177  06BD  00B3               	movwf	___flge@ff1+3
  1178  06BE  0822               	movf	?___fladd+2,w
  1179  06BF  00B2               	movwf	___flge@ff1+2
  1180  06C0  0821               	movf	?___fladd+1,w
  1181  06C1  00B1               	movwf	___flge@ff1+1
  1182  06C2  0820               	movf	?___fladd,w
  1183  06C3  00B0               	movwf	___flge@ff1
  1184  06C4  085A               	movf	_temperature+3,w
  1185  06C5  00B7               	movwf	___flge@ff2+3
  1186  06C6  0859               	movf	_temperature+2,w
  1187  06C7  00B6               	movwf	___flge@ff2+2
  1188  06C8  0858               	movf	_temperature+1,w
  1189  06C9  00B5               	movwf	___flge@ff2+1
  1190  06CA  0857               	movf	_temperature,w
  1191  06CB  00B4               	movwf	___flge@ff2
  1192  06CC  120A  158A  22D4  120A  118A  	fcall	___flge
  1193  06D1  1803               	btfsc	3,0
  1194  06D2  2ED4               	goto	u5381
  1195  06D3  2ED5               	goto	u5380
  1196  06D4                     u5381:
  1197  06D4  2EDF               	goto	l3461
  1198  06D5                     u5380:
  1199  06D5                     l3457:
  1200                           
  1201                           ;main.c: 144:         {;main.c: 145:             dutyCooler = 200;
  1202  06D5  30C8               	movlw	200
  1203  06D6  1683               	bsf	3,5	;RP0=1, select bank1
  1204  06D7  1303               	bcf	3,6	;RP1=0, select bank1
  1205  06D8  00B7               	movwf	??_main^(0+128)
  1206  06D9  0837               	movf	??_main^(0+128),w
  1207  06DA  1283               	bcf	3,5	;RP0=0, select bank0
  1208  06DB  1303               	bcf	3,6	;RP1=0, select bank0
  1209  06DC  00E5               	movwf	_dutyCooler
  1210  06DD                     l3459:
  1211                           
  1212                           ;main.c: 146:             dutyHeater = 0;
  1213  06DD  01E6               	clrf	_dutyHeater
  1214                           
  1215                           ;main.c: 147:         }
  1216  06DE  2EE3               	goto	l3463
  1217  06DF                     l3461:
  1218                           
  1219                           ;main.c: 149:         {;main.c: 150:             dutyHeater = 0;
  1220  06DF  1283               	bcf	3,5	;RP0=0, select bank0
  1221  06E0  1303               	bcf	3,6	;RP1=0, select bank0
  1222  06E1  01E6               	clrf	_dutyHeater
  1223                           
  1224                           ;main.c: 151:             dutyCooler = 0;
  1225  06E2  01E5               	clrf	_dutyCooler
  1226  06E3                     l3463:
  1227                           
  1228                           ;main.c: 153:         ManageHeater(dutyHeater);
  1229  06E3  0866               	movf	_dutyHeater,w
  1230  06E4  160A  118A  255E  120A  118A  	fcall	_ManageHeater
  1231  06E9                     l3465:
  1232                           
  1233                           ;main.c: 154:         ManageCooler(dutyCooler);
  1234  06E9  1283               	bcf	3,5	;RP0=0, select bank0
  1235  06EA  1303               	bcf	3,6	;RP1=0, select bank0
  1236  06EB  0865               	movf	_dutyCooler,w
  1237  06EC  160A  118A  254E  120A  118A  	fcall	_ManageCooler
  1238  06F1                     l3467:
  1239                           
  1240                           ;main.c: 155:         if(currentDisplay == 2) UpdateTempHumDisplay();
  1241  06F1  3002               	movlw	2
  1242  06F2  0678               	xorwf	_currentDisplay,w
  1243  06F3  1D03               	btfss	3,2
  1244  06F4  2EF6               	goto	u5391
  1245  06F5  2EF7               	goto	u5390
  1246  06F6                     u5391:
  1247  06F6  2EFC               	goto	l3471
  1248  06F7                     u5390:
  1249  06F7                     l3469:
  1250  06F7  160A  118A  2603  120A  118A  	fcall	_UpdateTempHumDisplay
  1251  06FC                     l3471:
  1252                           
  1253                           ;main.c: 156:         if(flags & 0x01)
  1254  06FC  1C7A               	btfss	_flags,0
  1255  06FD  2EFF               	goto	u5401
  1256  06FE  2F00               	goto	u5400
  1257  06FF                     u5401:
  1258  06FF  2E47               	goto	l3443
  1259  0700                     u5400:
  1260  0700                     l3473:
  1261                           
  1262                           ;main.c: 157:         {;main.c: 158:             ManageDisplays();
  1263  0700  160A  118A  26D6  120A  118A  	fcall	_ManageDisplays
  1264  0705                     l3475:
  1265                           
  1266                           ;main.c: 159:             flags &= ~0x01;
  1267  0705  30FE               	movlw	254
  1268  0706  1683               	bsf	3,5	;RP0=1, select bank1
  1269  0707  1303               	bcf	3,6	;RP1=0, select bank1
  1270  0708  00B7               	movwf	??_main^(0+128)
  1271  0709  0837               	movf	??_main^(0+128),w
  1272  070A  05FA               	andwf	_flags,f
  1273  070B  2E47               	goto	l3443
  1274  070C  120A  118A  280C   	ljmp	start
  1275  070F                     __end_of_main:
  1276                           
  1277                           	psect	text1
  1278  1603                     __ptext1:	
  1279 ;; *************** function _UpdateTempHumDisplay *****************
  1280 ;; Defined at:
  1281 ;;		line 478 in file "main.c"
  1282 ;; Parameters:    Size  Location     Type
  1283 ;;		None
  1284 ;; Auto vars:     Size  Location     Type
  1285 ;;		None
  1286 ;; Return value:  Size  Location     Type
  1287 ;;                  1    wreg      void 
  1288 ;; Registers used:
  1289 ;;		wreg, status,2, status,0, btemp+1, pclath, cstack
  1290 ;; Tracked objects:
  1291 ;;		On entry : 0/0
  1292 ;;		On exit  : 0/0
  1293 ;;		Unchanged: 0/0
  1294 ;; Data sizes:     COMMON   BANK0   BANK1   BANK3   BANK2
  1295 ;;      Params:         0       0       0       0       0
  1296 ;;      Locals:         0       0       0       0       0
  1297 ;;      Temps:          0       0       0       0       0
  1298 ;;      Totals:         0       0       0       0       0
  1299 ;;Total ram usage:        0 bytes
  1300 ;; Hardware stack levels used: 1
  1301 ;; Hardware stack levels required when called: 4
  1302 ;; This function calls:
  1303 ;;		_UpdateLCDViewWithNumber
  1304 ;; This function is called by:
  1305 ;;		_main
  1306 ;; This function uses a non-reentrant model
  1307 ;;
  1308                           
  1309                           
  1310                           ;psect for function _UpdateTempHumDisplay
  1311  1603                     _UpdateTempHumDisplay:
  1312  1603                     l3423:	
  1313                           ;incstack = 0
  1314                           ; Regs used in _UpdateTempHumDisplay: [wreg+status,2+status,0+btemp+1+pclath+cstack]
  1315                           
  1316                           
  1317                           ;main.c: 480:         UpdateLCDViewWithNumber(0xCA, humidity);
  1318  1603  1683               	bsf	3,5	;RP0=1, select bank1
  1319  1604  1303               	bcf	3,6	;RP1=0, select bank1
  1320  1605  0827               	movf	(_humidity+3)^(0+128),w
  1321  1606  1283               	bcf	3,5	;RP0=0, select bank0
  1322  1607  1303               	bcf	3,6	;RP1=0, select bank0
  1323  1608  00CD               	movwf	UpdateLCDViewWithNumber@number+3
  1324  1609  1683               	bsf	3,5	;RP0=1, select bank1
  1325  160A  1303               	bcf	3,6	;RP1=0, select bank1
  1326  160B  0826               	movf	(_humidity+2)^(0+128),w
  1327  160C  1283               	bcf	3,5	;RP0=0, select bank0
  1328  160D  1303               	bcf	3,6	;RP1=0, select bank0
  1329  160E  00CC               	movwf	UpdateLCDViewWithNumber@number+2
  1330  160F  1683               	bsf	3,5	;RP0=1, select bank1
  1331  1610  1303               	bcf	3,6	;RP1=0, select bank1
  1332  1611  0825               	movf	(_humidity+1)^(0+128),w
  1333  1612  1283               	bcf	3,5	;RP0=0, select bank0
  1334  1613  1303               	bcf	3,6	;RP1=0, select bank0
  1335  1614  00CB               	movwf	UpdateLCDViewWithNumber@number+1
  1336  1615  1683               	bsf	3,5	;RP0=1, select bank1
  1337  1616  1303               	bcf	3,6	;RP1=0, select bank1
  1338  1617  0824               	movf	_humidity^(0+128),w
  1339  1618  1283               	bcf	3,5	;RP0=0, select bank0
  1340  1619  1303               	bcf	3,6	;RP1=0, select bank0
  1341  161A  00CA               	movwf	UpdateLCDViewWithNumber@number
  1342  161B  30CA               	movlw	202
  1343  161C  120A  158A  2611  160A  118A  	fcall	_UpdateLCDViewWithNumber
  1344                           
  1345                           ;main.c: 481:         UpdateLCDViewWithNumber(0x8A, temperature);
  1346  1621  1283               	bcf	3,5	;RP0=0, select bank0
  1347  1622  1303               	bcf	3,6	;RP1=0, select bank0
  1348  1623  085A               	movf	_temperature+3,w
  1349  1624  00CD               	movwf	UpdateLCDViewWithNumber@number+3
  1350  1625  0859               	movf	_temperature+2,w
  1351  1626  00CC               	movwf	UpdateLCDViewWithNumber@number+2
  1352  1627  0858               	movf	_temperature+1,w
  1353  1628  00CB               	movwf	UpdateLCDViewWithNumber@number+1
  1354  1629  0857               	movf	_temperature,w
  1355  162A  00CA               	movwf	UpdateLCDViewWithNumber@number
  1356  162B  308A               	movlw	138
  1357  162C  120A  158A  2611  160A  118A  	fcall	_UpdateLCDViewWithNumber
  1358  1631                     l275:
  1359  1631  0008               	return
  1360  1632                     __end_of_UpdateTempHumDisplay:
  1361                           
  1362                           	psect	text2
  1363  169B                     __ptext2:	
  1364 ;; *************** function _ReadTemperature *****************
  1365 ;; Defined at:
  1366 ;;		line 411 in file "main.c"
  1367 ;; Parameters:    Size  Location     Type
  1368 ;;		None
  1369 ;; Auto vars:     Size  Location     Type
  1370 ;;		None
  1371 ;; Return value:  Size  Location     Type
  1372 ;;                  1    wreg      void 
  1373 ;; Registers used:
  1374 ;;		wreg, status,2, status,0, btemp+1, pclath, cstack
  1375 ;; Tracked objects:
  1376 ;;		On entry : 0/0
  1377 ;;		On exit  : 0/0
  1378 ;;		Unchanged: 0/0
  1379 ;; Data sizes:     COMMON   BANK0   BANK1   BANK3   BANK2
  1380 ;;      Params:         0       0       0       0       0
  1381 ;;      Locals:         0       0       0       0       0
  1382 ;;      Temps:          0       0       0       0       0
  1383 ;;      Totals:         0       0       0       0       0
  1384 ;;Total ram usage:        0 bytes
  1385 ;; Hardware stack levels used: 1
  1386 ;; Hardware stack levels required when called: 3
  1387 ;; This function calls:
  1388 ;;		_ReadADC
  1389 ;;		___flmul
  1390 ;;		___xxtofl
  1391 ;; This function is called by:
  1392 ;;		_main
  1393 ;; This function uses a non-reentrant model
  1394 ;;
  1395                           
  1396                           
  1397                           ;psect for function _ReadTemperature
  1398  169B                     _ReadTemperature:
  1399  169B                     l2737:	
  1400                           ;incstack = 0
  1401                           ; Regs used in _ReadTemperature: [wreg+status,2+status,0+btemp+1+pclath+cstack]
  1402                           
  1403                           
  1404                           ;main.c: 413:     temperature = (float)(ReadADC(0x02) * 0.489);
  1405  169B  303E               	movlw	62
  1406  169C  1283               	bcf	3,5	;RP0=0, select bank0
  1407  169D  1303               	bcf	3,6	;RP1=0, select bank0
  1408  169E  00B3               	movwf	___flmul@b+3
  1409  169F  30FA               	movlw	250
  1410  16A0  00B2               	movwf	___flmul@b+2
  1411  16A1  305E               	movlw	94
  1412  16A2  00B1               	movwf	___flmul@b+1
  1413  16A3  3035               	movlw	53
  1414  16A4  00B0               	movwf	___flmul@b
  1415  16A5  3002               	movlw	2
  1416  16A6  160A  118A  25B2  160A  118A  	fcall	_ReadADC
  1417  16AB  0873               	movf	?_ReadADC,w
  1418  16AC  1283               	bcf	3,5	;RP0=0, select bank0
  1419  16AD  1303               	bcf	3,6	;RP1=0, select bank0
  1420  16AE  00A2               	movwf	___xxtofl@val
  1421  16AF  0874               	movf	?_ReadADC+1,w
  1422  16B0  00A3               	movwf	___xxtofl@val+1
  1423  16B1  3000               	movlw	0
  1424  16B2  1BA3               	btfsc	___xxtofl@val+1,7
  1425  16B3  30FF               	movlw	255
  1426  16B4  00A4               	movwf	___xxtofl@val+2
  1427  16B5  00A5               	movwf	___xxtofl@val+3
  1428  16B6  3001               	movlw	1
  1429  16B7  120A  158A  2378  160A  118A  	fcall	___xxtofl
  1430  16BC  1283               	bcf	3,5	;RP0=0, select bank0
  1431  16BD  1303               	bcf	3,6	;RP1=0, select bank0
  1432  16BE  0825               	movf	?___xxtofl+3,w
  1433  16BF  00B7               	movwf	___flmul@a+3
  1434  16C0  0824               	movf	?___xxtofl+2,w
  1435  16C1  00B6               	movwf	___flmul@a+2
  1436  16C2  0823               	movf	?___xxtofl+1,w
  1437  16C3  00B5               	movwf	___flmul@a+1
  1438  16C4  0822               	movf	?___xxtofl,w
  1439  16C5  00B4               	movwf	___flmul@a
  1440  16C6  120A  118A  2041  160A  118A  	fcall	___flmul
  1441  16CB  1283               	bcf	3,5	;RP0=0, select bank0
  1442  16CC  1303               	bcf	3,6	;RP1=0, select bank0
  1443  16CD  0833               	movf	?___flmul+3,w
  1444  16CE  00DA               	movwf	_temperature+3
  1445  16CF  0832               	movf	?___flmul+2,w
  1446  16D0  00D9               	movwf	_temperature+2
  1447  16D1  0831               	movf	?___flmul+1,w
  1448  16D2  00D8               	movwf	_temperature+1
  1449  16D3  0830               	movf	?___flmul,w
  1450  16D4  00D7               	movwf	_temperature
  1451  16D5                     l251:
  1452  16D5  0008               	return
  1453  16D6                     __end_of_ReadTemperature:
  1454                           
  1455                           	psect	text3
  1456  15B2                     __ptext3:	
  1457 ;; *************** function _ReadADC *****************
  1458 ;; Defined at:
  1459 ;;		line 391 in file "main.c"
  1460 ;; Parameters:    Size  Location     Type
  1461 ;;  channel         1    wreg     unsigned char 
  1462 ;; Auto vars:     Size  Location     Type
  1463 ;;  channel         1    7[COMMON] unsigned char 
  1464 ;; Return value:  Size  Location     Type
  1465 ;;                  2    3[COMMON] int 
  1466 ;; Registers used:
  1467 ;;		wreg, status,2, status,0
  1468 ;; Tracked objects:
  1469 ;;		On entry : 0/0
  1470 ;;		On exit  : 0/0
  1471 ;;		Unchanged: 0/0
  1472 ;; Data sizes:     COMMON   BANK0   BANK1   BANK3   BANK2
  1473 ;;      Params:         2       0       0       0       0
  1474 ;;      Locals:         1       0       0       0       0
  1475 ;;      Temps:          2       0       0       0       0
  1476 ;;      Totals:         5       0       0       0       0
  1477 ;;Total ram usage:        5 bytes
  1478 ;; Hardware stack levels used: 1
  1479 ;; Hardware stack levels required when called: 1
  1480 ;; This function calls:
  1481 ;;		Nothing
  1482 ;; This function is called by:
  1483 ;;		_ReadTemperature
  1484 ;; This function uses a non-reentrant model
  1485 ;;
  1486                           
  1487                           
  1488                           ;psect for function _ReadADC
  1489  15B2                     _ReadADC:
  1490                           
  1491                           ;incstack = 0
  1492                           ; Regs used in _ReadADC: [wreg+status,2+status,0]
  1493                           ;ReadADC@channel stored from wreg
  1494  15B2  00F7               	movwf	ReadADC@channel
  1495  15B3                     l2637:
  1496                           
  1497                           ;main.c: 391: int ReadADC(char channel);main.c: 392: {;main.c: 393:     ADCON0 &= 0xC7;
  1498  15B3  30C7               	movlw	199
  1499  15B4  00F5               	movwf	??_ReadADC
  1500  15B5  0875               	movf	??_ReadADC,w
  1501  15B6  1283               	bcf	3,5	;RP0=0, select bank0
  1502  15B7  1303               	bcf	3,6	;RP1=0, select bank0
  1503  15B8  059F               	andwf	31,f	;volatile
  1504                           
  1505                           ;main.c: 394:     ADCON0 |= ((channel & 0x07)<<3);
  1506  15B9  0877               	movf	ReadADC@channel,w
  1507  15BA  3907               	andlw	7
  1508  15BB  00F5               	movwf	??_ReadADC
  1509  15BC  3002               	movlw	2
  1510  15BD                     u3865:
  1511  15BD  1003               	clrc
  1512  15BE  0DF5               	rlf	??_ReadADC,f
  1513  15BF  3EFF               	addlw	-1
  1514  15C0  1D03               	skipz
  1515  15C1  2DBD               	goto	u3865
  1516  15C2  1003               	clrc
  1517  15C3  0D75               	rlf	??_ReadADC,w
  1518  15C4  00F6               	movwf	??_ReadADC+1
  1519  15C5  0876               	movf	??_ReadADC+1,w
  1520  15C6  049F               	iorwf	31,f	;volatile
  1521  15C7                     l2639:
  1522                           
  1523                           ;main.c: 395:     _delay((unsigned long)((10)*(8000000/4000000.0)));
  1524  15C7  3006               	movlw	6
  1525  15C8  00F5               	movwf	??_ReadADC
  1526  15C9                     u5417:
  1527  15C9  0BF5               	decfsz	??_ReadADC,f
  1528  15CA  2DC9               	goto	u5417
  1529  15CB  0000               	nop
  1530  15CC                     l2641:
  1531                           
  1532                           ;main.c: 396:     ADCON0 |= 0x04;
  1533  15CC  1283               	bcf	3,5	;RP0=0, select bank0
  1534  15CD  1303               	bcf	3,6	;RP1=0, select bank0
  1535  15CE  151F               	bsf	31,2	;volatile
  1536  15CF                     l239:	
  1537                           ;main.c: 397:     while(ADCON0 & 0x04);
  1538                           
  1539  15CF  191F               	btfsc	31,2	;volatile
  1540  15D0  2DD2               	goto	u3871
  1541  15D1  2DD3               	goto	u3870
  1542  15D2                     u3871:
  1543  15D2  2DCF               	goto	l239
  1544  15D3                     u3870:
  1545  15D3                     l2643:
  1546                           
  1547                           ;main.c: 398:     return ADRESL | (ADRESH << 8);
  1548  15D3  081E               	movf	30,w	;volatile
  1549  15D4  00F4               	movwf	?_ReadADC+1
  1550  15D5  1683               	bsf	3,5	;RP0=1, select bank1
  1551  15D6  1303               	bcf	3,6	;RP1=0, select bank1
  1552  15D7  081E               	movf	30,w	;volatile
  1553  15D8  00F3               	movwf	?_ReadADC
  1554  15D9                     l242:
  1555  15D9  0008               	return
  1556  15DA                     __end_of_ReadADC:
  1557                           
  1558                           	psect	text4
  1559  0A4F                     __ptext4:	
  1560 ;; *************** function _ReadHumidity *****************
  1561 ;; Defined at:
  1562 ;;		line 401 in file "main.c"
  1563 ;; Parameters:    Size  Location     Type
  1564 ;;		None
  1565 ;; Auto vars:     Size  Location     Type
  1566 ;;		None
  1567 ;; Return value:  Size  Location     Type
  1568 ;;                  1    wreg      void 
  1569 ;; Registers used:
  1570 ;;		wreg, status,2, status,0, btemp+1, pclath, cstack
  1571 ;; Tracked objects:
  1572 ;;		On entry : 0/0
  1573 ;;		On exit  : 0/0
  1574 ;;		Unchanged: 0/0
  1575 ;; Data sizes:     COMMON   BANK0   BANK1   BANK3   BANK2
  1576 ;;      Params:         0       0       0       0       0
  1577 ;;      Locals:         0       0       0       0       0
  1578 ;;      Temps:          0       0       0       0       0
  1579 ;;      Totals:         0       0       0       0       0
  1580 ;;Total ram usage:        0 bytes
  1581 ;; Hardware stack levels used: 1
  1582 ;; Hardware stack levels required when called: 2
  1583 ;; This function calls:
  1584 ;;		___fladd
  1585 ;;		___flge
  1586 ;; This function is called by:
  1587 ;;		_main
  1588 ;; This function uses a non-reentrant model
  1589 ;;
  1590                           
  1591                           
  1592                           ;psect for function _ReadHumidity
  1593  0A4F                     _ReadHumidity:
  1594  0A4F                     l3377:	
  1595                           ;incstack = 0
  1596                           ; Regs used in _ReadHumidity: [wreg+status,2+status,0+btemp+1+pclath+cstack]
  1597                           
  1598                           
  1599                           ;main.c: 403:     if(postScalerHum > 100)
  1600  0A4F  1683               	bsf	3,5	;RP0=1, select bank1
  1601  0A50  1303               	bcf	3,6	;RP1=0, select bank1
  1602  0A51  082D               	movf	(_postScalerHum+1)^(0+128),w
  1603  0A52  3A80               	xorlw	128
  1604  0A53  00FF               	movwf	btemp+1
  1605  0A54  3080               	movlw	128
  1606  0A55  027F               	subwf	btemp+1,w
  1607  0A56  1D03               	skipz
  1608  0A57  2A5A               	goto	u5225
  1609  0A58  3065               	movlw	101
  1610  0A59  022C               	subwf	_postScalerHum^(0+128),w
  1611  0A5A                     u5225:
  1612  0A5A  1C03               	skipc
  1613  0A5B  2A5D               	goto	u5221
  1614  0A5C  2A5E               	goto	u5220
  1615  0A5D                     u5221:
  1616  0A5D  2AD3               	goto	l248
  1617  0A5E                     u5220:
  1618  0A5E                     l3379:
  1619                           
  1620                           ;main.c: 404:     {;main.c: 405:         if(humidity >= 100) humidity = 0;
  1621  0A5E  1683               	bsf	3,5	;RP0=1, select bank1
  1622  0A5F  1303               	bcf	3,6	;RP1=0, select bank1
  1623  0A60  0827               	movf	(_humidity+3)^(0+128),w
  1624  0A61  1283               	bcf	3,5	;RP0=0, select bank0
  1625  0A62  1303               	bcf	3,6	;RP1=0, select bank0
  1626  0A63  00B3               	movwf	___flge@ff1+3
  1627  0A64  1683               	bsf	3,5	;RP0=1, select bank1
  1628  0A65  1303               	bcf	3,6	;RP1=0, select bank1
  1629  0A66  0826               	movf	(_humidity+2)^(0+128),w
  1630  0A67  1283               	bcf	3,5	;RP0=0, select bank0
  1631  0A68  1303               	bcf	3,6	;RP1=0, select bank0
  1632  0A69  00B2               	movwf	___flge@ff1+2
  1633  0A6A  1683               	bsf	3,5	;RP0=1, select bank1
  1634  0A6B  1303               	bcf	3,6	;RP1=0, select bank1
  1635  0A6C  0825               	movf	(_humidity+1)^(0+128),w
  1636  0A6D  1283               	bcf	3,5	;RP0=0, select bank0
  1637  0A6E  1303               	bcf	3,6	;RP1=0, select bank0
  1638  0A6F  00B1               	movwf	___flge@ff1+1
  1639  0A70  1683               	bsf	3,5	;RP0=1, select bank1
  1640  0A71  1303               	bcf	3,6	;RP1=0, select bank1
  1641  0A72  0824               	movf	_humidity^(0+128),w
  1642  0A73  1283               	bcf	3,5	;RP0=0, select bank0
  1643  0A74  1303               	bcf	3,6	;RP1=0, select bank0
  1644  0A75  00B0               	movwf	___flge@ff1
  1645  0A76  3042               	movlw	66
  1646  0A77  00B7               	movwf	___flge@ff2+3
  1647  0A78  30C8               	movlw	200
  1648  0A79  00B6               	movwf	___flge@ff2+2
  1649  0A7A  3000               	movlw	0
  1650  0A7B  00B5               	movwf	___flge@ff2+1
  1651  0A7C  3000               	movlw	0
  1652  0A7D  00B4               	movwf	___flge@ff2
  1653  0A7E  120A  158A  22D4  120A  158A  	fcall	___flge
  1654  0A83  1C03               	btfss	3,0
  1655  0A84  2A86               	goto	u5231
  1656  0A85  2A87               	goto	u5230
  1657  0A86                     u5231:
  1658  0A86  2A92               	goto	l3383
  1659  0A87                     u5230:
  1660  0A87                     l3381:
  1661  0A87  3000               	movlw	0
  1662  0A88  1683               	bsf	3,5	;RP0=1, select bank1
  1663  0A89  1303               	bcf	3,6	;RP1=0, select bank1
  1664  0A8A  00A7               	movwf	(_humidity+3)^(0+128)
  1665  0A8B  3000               	movlw	0
  1666  0A8C  00A6               	movwf	(_humidity+2)^(0+128)
  1667  0A8D  3000               	movlw	0
  1668  0A8E  00A5               	movwf	(_humidity+1)^(0+128)
  1669  0A8F  3000               	movlw	0
  1670  0A90  00A4               	movwf	_humidity^(0+128)
  1671  0A91  2AD1               	goto	l3385
  1672  0A92                     l3383:
  1673  0A92  303D               	movlw	61
  1674  0A93  1283               	bcf	3,5	;RP0=0, select bank0
  1675  0A94  1303               	bcf	3,6	;RP1=0, select bank0
  1676  0A95  00A3               	movwf	___fladd@b+3
  1677  0A96  30CC               	movlw	204
  1678  0A97  00A2               	movwf	___fladd@b+2
  1679  0A98  30CC               	movlw	204
  1680  0A99  00A1               	movwf	___fladd@b+1
  1681  0A9A  30CD               	movlw	205
  1682  0A9B  00A0               	movwf	___fladd@b
  1683  0A9C  1683               	bsf	3,5	;RP0=1, select bank1
  1684  0A9D  1303               	bcf	3,6	;RP1=0, select bank1
  1685  0A9E  0827               	movf	(_humidity+3)^(0+128),w
  1686  0A9F  1283               	bcf	3,5	;RP0=0, select bank0
  1687  0AA0  1303               	bcf	3,6	;RP1=0, select bank0
  1688  0AA1  00A7               	movwf	___fladd@a+3
  1689  0AA2  1683               	bsf	3,5	;RP0=1, select bank1
  1690  0AA3  1303               	bcf	3,6	;RP1=0, select bank1
  1691  0AA4  0826               	movf	(_humidity+2)^(0+128),w
  1692  0AA5  1283               	bcf	3,5	;RP0=0, select bank0
  1693  0AA6  1303               	bcf	3,6	;RP1=0, select bank0
  1694  0AA7  00A6               	movwf	___fladd@a+2
  1695  0AA8  1683               	bsf	3,5	;RP0=1, select bank1
  1696  0AA9  1303               	bcf	3,6	;RP1=0, select bank1
  1697  0AAA  0825               	movf	(_humidity+1)^(0+128),w
  1698  0AAB  1283               	bcf	3,5	;RP0=0, select bank0
  1699  0AAC  1303               	bcf	3,6	;RP1=0, select bank0
  1700  0AAD  00A5               	movwf	___fladd@a+1
  1701  0AAE  1683               	bsf	3,5	;RP0=1, select bank1
  1702  0AAF  1303               	bcf	3,6	;RP1=0, select bank1
  1703  0AB0  0824               	movf	_humidity^(0+128),w
  1704  0AB1  1283               	bcf	3,5	;RP0=0, select bank0
  1705  0AB2  1303               	bcf	3,6	;RP1=0, select bank0
  1706  0AB3  00A4               	movwf	___fladd@a
  1707  0AB4  120A  118A  23A2  120A  158A  	fcall	___fladd
  1708  0AB9  1283               	bcf	3,5	;RP0=0, select bank0
  1709  0ABA  1303               	bcf	3,6	;RP1=0, select bank0
  1710  0ABB  0823               	movf	?___fladd+3,w
  1711  0ABC  1683               	bsf	3,5	;RP0=1, select bank1
  1712  0ABD  1303               	bcf	3,6	;RP1=0, select bank1
  1713  0ABE  00A7               	movwf	(_humidity+3)^(0+128)
  1714  0ABF  1283               	bcf	3,5	;RP0=0, select bank0
  1715  0AC0  1303               	bcf	3,6	;RP1=0, select bank0
  1716  0AC1  0822               	movf	?___fladd+2,w
  1717  0AC2  1683               	bsf	3,5	;RP0=1, select bank1
  1718  0AC3  1303               	bcf	3,6	;RP1=0, select bank1
  1719  0AC4  00A6               	movwf	(_humidity+2)^(0+128)
  1720  0AC5  1283               	bcf	3,5	;RP0=0, select bank0
  1721  0AC6  1303               	bcf	3,6	;RP1=0, select bank0
  1722  0AC7  0821               	movf	?___fladd+1,w
  1723  0AC8  1683               	bsf	3,5	;RP0=1, select bank1
  1724  0AC9  1303               	bcf	3,6	;RP1=0, select bank1
  1725  0ACA  00A5               	movwf	(_humidity+1)^(0+128)
  1726  0ACB  1283               	bcf	3,5	;RP0=0, select bank0
  1727  0ACC  1303               	bcf	3,6	;RP1=0, select bank0
  1728  0ACD  0820               	movf	?___fladd,w
  1729  0ACE  1683               	bsf	3,5	;RP0=1, select bank1
  1730  0ACF  1303               	bcf	3,6	;RP1=0, select bank1
  1731  0AD0  00A4               	movwf	_humidity^(0+128)
  1732  0AD1                     l3385:
  1733                           
  1734                           ;main.c: 407:         postScalerHum = 0;
  1735  0AD1  01AC               	clrf	_postScalerHum^(0+128)
  1736  0AD2  01AD               	clrf	(_postScalerHum+1)^(0+128)
  1737  0AD3                     l248:
  1738  0AD3  0008               	return
  1739  0AD4                     __end_of_ReadHumidity:
  1740                           
  1741                           	psect	text5
  1742  155E                     __ptext5:	
  1743 ;; *************** function _ManageHeater *****************
  1744 ;; Defined at:
  1745 ;;		line 370 in file "main.c"
  1746 ;; Parameters:    Size  Location     Type
  1747 ;;  duty            1    wreg     unsigned char 
  1748 ;; Auto vars:     Size  Location     Type
  1749 ;;  duty            1    4[COMMON] unsigned char 
  1750 ;; Return value:  Size  Location     Type
  1751 ;;                  1    wreg      void 
  1752 ;; Registers used:
  1753 ;;		wreg, status,2, status,0
  1754 ;; Tracked objects:
  1755 ;;		On entry : 0/0
  1756 ;;		On exit  : 0/0
  1757 ;;		Unchanged: 0/0
  1758 ;; Data sizes:     COMMON   BANK0   BANK1   BANK3   BANK2
  1759 ;;      Params:         0       0       0       0       0
  1760 ;;      Locals:         1       0       0       0       0
  1761 ;;      Temps:          1       0       0       0       0
  1762 ;;      Totals:         2       0       0       0       0
  1763 ;;Total ram usage:        2 bytes
  1764 ;; Hardware stack levels used: 1
  1765 ;; Hardware stack levels required when called: 1
  1766 ;; This function calls:
  1767 ;;		Nothing
  1768 ;; This function is called by:
  1769 ;;		_main
  1770 ;; This function uses a non-reentrant model
  1771 ;;
  1772                           
  1773                           
  1774                           ;psect for function _ManageHeater
  1775  155E                     _ManageHeater:
  1776                           
  1777                           ;incstack = 0
  1778                           ; Regs used in _ManageHeater: [wreg+status,2+status,0]
  1779                           ;ManageHeater@duty stored from wreg
  1780  155E  00F4               	movwf	ManageHeater@duty
  1781  155F                     l2803:
  1782                           
  1783                           ;main.c: 370: void ManageHeater(char duty);main.c: 371: {;main.c: 372:     if(dutyCounte
      +                          r<duty)
  1784  155F  0874               	movf	ManageHeater@duty,w
  1785  1560  1283               	bcf	3,5	;RP0=0, select bank0
  1786  1561  1303               	bcf	3,6	;RP1=0, select bank0
  1787  1562  0263               	subwf	_dutyCounter,w
  1788  1563  1803               	skipnc
  1789  1564  2D66               	goto	u4141
  1790  1565  2D67               	goto	u4140
  1791  1566                     u4141:
  1792  1566  2D69               	goto	l2807
  1793  1567                     u4140:
  1794  1567                     l2805:
  1795                           
  1796                           ;main.c: 373:     {;main.c: 374:         PORTC |= 1<<5;
  1797  1567  1687               	bsf	7,5	;volatile
  1798                           
  1799                           ;main.c: 375:     }
  1800  1568  2D6D               	goto	l230
  1801  1569                     l2807:
  1802                           
  1803                           ;main.c: 377:     {;main.c: 378:         PORTC &= ~(1<<5);
  1804  1569  30DF               	movlw	223
  1805  156A  00F3               	movwf	??_ManageHeater
  1806  156B  0873               	movf	??_ManageHeater,w
  1807  156C  0587               	andwf	7,f	;volatile
  1808  156D                     l230:
  1809  156D  0008               	return
  1810  156E                     __end_of_ManageHeater:
  1811                           
  1812                           	psect	text6
  1813  16D6                     __ptext6:	
  1814 ;; *************** function _ManageDisplays *****************
  1815 ;; Defined at:
  1816 ;;		line 345 in file "main.c"
  1817 ;; Parameters:    Size  Location     Type
  1818 ;;		None
  1819 ;; Auto vars:     Size  Location     Type
  1820 ;;		None
  1821 ;; Return value:  Size  Location     Type
  1822 ;;                  1    wreg      void 
  1823 ;; Registers used:
  1824 ;;		wreg, fsr0l, fsr0h, status,2, status,0, btemp+1, pclath, cstack
  1825 ;; Tracked objects:
  1826 ;;		On entry : 0/0
  1827 ;;		On exit  : 0/0
  1828 ;;		Unchanged: 0/0
  1829 ;; Data sizes:     COMMON   BANK0   BANK1   BANK3   BANK2
  1830 ;;      Params:         0       0       0       0       0
  1831 ;;      Locals:         0       0       0       0       0
  1832 ;;      Temps:          0       0       1       0       0
  1833 ;;      Totals:         0       0       1       0       0
  1834 ;;Total ram usage:        1 bytes
  1835 ;; Hardware stack levels used: 1
  1836 ;; Hardware stack levels required when called: 4
  1837 ;; This function calls:
  1838 ;;		_HandleKeypadReading
  1839 ;;		_SendLCD
  1840 ;;		_SendLCDString
  1841 ;;		_UpdateLCDViewWithNumber
  1842 ;; This function is called by:
  1843 ;;		_main
  1844 ;; This function uses a non-reentrant model
  1845 ;;
  1846                           
  1847                           
  1848                           ;psect for function _ManageDisplays
  1849  16D6                     _ManageDisplays:
  1850  16D6                     l3425:	
  1851                           ;incstack = 0
  1852                           ; Regs used in _ManageDisplays: [wreg-fsr0h+status,2+status,0+btemp+1+pclath+cstack]
  1853                           
  1854                           
  1855                           ;main.c: 347:     HandleKeypadReading(keypadReading);
  1856  16D6  1283               	bcf	3,5	;RP0=0, select bank0
  1857  16D7  1303               	bcf	3,6	;RP1=0, select bank0
  1858  16D8  0864               	movf	_keypadReading,w
  1859  16D9  120A  118A  270F  160A  118A  	fcall	_HandleKeypadReading
  1860  16DE                     l3427:
  1861                           
  1862                           ;main.c: 348:     if(currentDisplay != oldDisplay)
  1863  16DE  0878               	movf	_currentDisplay,w
  1864  16DF  1283               	bcf	3,5	;RP0=0, select bank0
  1865  16E0  1303               	bcf	3,6	;RP1=0, select bank0
  1866  16E1  0662               	xorwf	_oldDisplay,w
  1867  16E2  1903               	skipnz
  1868  16E3  2EE5               	goto	u5351
  1869  16E4  2EE6               	goto	u5350
  1870  16E5                     u5351:
  1871  16E5  2EFF               	goto	l3435
  1872  16E6                     u5350:
  1873  16E6                     l3429:
  1874                           
  1875                           ;main.c: 349:     {;main.c: 350:         SendLCD(0x01,0x00);
  1876  16E6  01F3               	clrf	SendLCD@type
  1877  16E7  3001               	movlw	1
  1878  16E8  160A  118A  2632  160A  118A  	fcall	_SendLCD
  1879  16ED                     l3431:
  1880                           
  1881                           ;main.c: 351:         SendLCDString(displays[currentDisplay]);
  1882  16ED  0878               	movf	_currentDisplay,w
  1883  16EE  3EA0               	addlw	(low (_displays| 0))& (0+255)
  1884  16EF  0084               	movwf	4
  1885  16F0  1383               	bcf	3,7	;select IRP bank1
  1886  16F1  0800               	movf	0,w
  1887  16F2  160A  118A  27A2  160A  118A  	fcall	_SendLCDString
  1888  16F7                     l3433:
  1889                           
  1890                           ;main.c: 352:         oldDisplay = currentDisplay;
  1891  16F7  0878               	movf	_currentDisplay,w
  1892  16F8  1683               	bsf	3,5	;RP0=1, select bank1
  1893  16F9  1303               	bcf	3,6	;RP1=0, select bank1
  1894  16FA  00B6               	movwf	??_ManageDisplays^(0+128)
  1895  16FB  0836               	movf	??_ManageDisplays^(0+128),w
  1896  16FC  1283               	bcf	3,5	;RP0=0, select bank0
  1897  16FD  1303               	bcf	3,6	;RP1=0, select bank0
  1898  16FE  00E2               	movwf	_oldDisplay
  1899  16FF                     l3435:
  1900                           
  1901                           ;main.c: 354:     if(currentDisplay == 3)
  1902  16FF  3003               	movlw	3
  1903  1700  0678               	xorwf	_currentDisplay,w
  1904  1701  1D03               	btfss	3,2
  1905  1702  2F04               	goto	u5361
  1906  1703  2F05               	goto	u5360
  1907  1704                     u5361:
  1908  1704  2F13               	goto	l220
  1909  1705                     u5360:
  1910  1705                     l3437:
  1911                           
  1912                           ;main.c: 355:             UpdateLCDViewWithNumber(0xC6,setTemp);
  1913  1705  086B               	movf	_setTemp+3,w
  1914  1706  00CD               	movwf	UpdateLCDViewWithNumber@number+3
  1915  1707  086A               	movf	_setTemp+2,w
  1916  1708  00CC               	movwf	UpdateLCDViewWithNumber@number+2
  1917  1709  0869               	movf	_setTemp+1,w
  1918  170A  00CB               	movwf	UpdateLCDViewWithNumber@number+1
  1919  170B  0868               	movf	_setTemp,w
  1920  170C  00CA               	movwf	UpdateLCDViewWithNumber@number
  1921  170D  30C6               	movlw	198
  1922  170E  120A  158A  2611  160A  118A  	fcall	_UpdateLCDViewWithNumber
  1923  1713                     l220:
  1924  1713  0008               	return
  1925  1714                     __end_of_ManageDisplays:
  1926                           
  1927                           	psect	text7
  1928  0E11                     __ptext7:	
  1929 ;; *************** function _UpdateLCDViewWithNumber *****************
  1930 ;; Defined at:
  1931 ;;		line 456 in file "main.c"
  1932 ;; Parameters:    Size  Location     Type
  1933 ;;  position        1    wreg     unsigned char 
  1934 ;;  number          4   42[BANK0 ] float 
  1935 ;; Auto vars:     Size  Location     Type
  1936 ;;  position        1   50[BANK0 ] unsigned char 
  1937 ;;  tens            1   54[BANK0 ] unsigned char 
  1938 ;;  hundreds        1   53[BANK0 ] unsigned char 
  1939 ;;  unit            1   52[BANK0 ] unsigned char 
  1940 ;;  decimal         1   51[BANK0 ] unsigned char 
  1941 ;; Return value:  Size  Location     Type
  1942 ;;                  1    wreg      void 
  1943 ;; Registers used:
  1944 ;;		wreg, status,2, status,0, btemp+1, pclath, cstack
  1945 ;; Tracked objects:
  1946 ;;		On entry : 0/0
  1947 ;;		On exit  : 0/0
  1948 ;;		Unchanged: 0/0
  1949 ;; Data sizes:     COMMON   BANK0   BANK1   BANK3   BANK2
  1950 ;;      Params:         0       4       0       0       0
  1951 ;;      Locals:         0       5       0       0       0
  1952 ;;      Temps:          0       4       0       0       0
  1953 ;;      Totals:         0      13       0       0       0
  1954 ;;Total ram usage:       13 bytes
  1955 ;; Hardware stack levels used: 1
  1956 ;; Hardware stack levels required when called: 3
  1957 ;; This function calls:
  1958 ;;		_SendLCD
  1959 ;;		___fldiv
  1960 ;;		___flge
  1961 ;;		___flmul
  1962 ;;		___flsub
  1963 ;;		___fltol
  1964 ;;		___wmul
  1965 ;;		___xxtofl
  1966 ;; This function is called by:
  1967 ;;		_ManageDisplays
  1968 ;;		_UpdateTempHumDisplay
  1969 ;; This function uses a non-reentrant model
  1970 ;;
  1971                           
  1972                           
  1973                           ;psect for function _UpdateLCDViewWithNumber
  1974  0E11                     _UpdateLCDViewWithNumber:
  1975                           
  1976                           ;incstack = 0
  1977                           ; Regs used in _UpdateLCDViewWithNumber: [wreg+status,2+status,0+btemp+1+pclath+cstack]
  1978                           ;UpdateLCDViewWithNumber@position stored from wreg
  1979  0E11  1283               	bcf	3,5	;RP0=0, select bank0
  1980  0E12  1303               	bcf	3,6	;RP1=0, select bank0
  1981  0E13  00D2               	movwf	UpdateLCDViewWithNumber@position
  1982  0E14                     l3325:
  1983                           
  1984                           ;main.c: 456: void UpdateLCDViewWithNumber(char position, float number);main.c: 457: {;m
      +                          ain.c: 458:     SendLCD(position, 0x00);
  1985  0E14  01F3               	clrf	SendLCD@type
  1986  0E15  0852               	movf	UpdateLCDViewWithNumber@position,w
  1987  0E16  160A  118A  2632  120A  158A  	fcall	_SendLCD
  1988                           
  1989                           ;main.c: 459:     if(number < 0)
  1990  0E1B  1283               	bcf	3,5	;RP0=0, select bank0
  1991  0E1C  1303               	bcf	3,6	;RP1=0, select bank0
  1992  0E1D  084D               	movf	UpdateLCDViewWithNumber@number+3,w
  1993  0E1E  00B3               	movwf	___flge@ff1+3
  1994  0E1F  084C               	movf	UpdateLCDViewWithNumber@number+2,w
  1995  0E20  00B2               	movwf	___flge@ff1+2
  1996  0E21  084B               	movf	UpdateLCDViewWithNumber@number+1,w
  1997  0E22  00B1               	movwf	___flge@ff1+1
  1998  0E23  084A               	movf	UpdateLCDViewWithNumber@number,w
  1999  0E24  00B0               	movwf	___flge@ff1
  2000  0E25  3000               	movlw	0
  2001  0E26  00B7               	movwf	___flge@ff2+3
  2002  0E27  3000               	movlw	0
  2003  0E28  00B6               	movwf	___flge@ff2+2
  2004  0E29  3000               	movlw	0
  2005  0E2A  00B5               	movwf	___flge@ff2+1
  2006  0E2B  3000               	movlw	0
  2007  0E2C  00B4               	movwf	___flge@ff2
  2008  0E2D  120A  158A  22D4  120A  158A  	fcall	___flge
  2009  0E32  1803               	btfsc	3,0
  2010  0E33  2E35               	goto	u5191
  2011  0E34  2E36               	goto	u5190
  2012  0E35                     u5191:
  2013  0E35  2E5F               	goto	l3331
  2014  0E36                     u5190:
  2015  0E36                     l3327:
  2016                           
  2017                           ;main.c: 460:     {;main.c: 461:         SendLCD('-', 0x01);
  2018  0E36  01F3               	clrf	SendLCD@type
  2019  0E37  0AF3               	incf	SendLCD@type,f
  2020  0E38  302D               	movlw	45
  2021  0E39  160A  118A  2632  120A  158A  	fcall	_SendLCD
  2022  0E3E                     l3329:
  2023                           
  2024                           ;main.c: 462:         number *= -1;
  2025  0E3E  30BF               	movlw	191
  2026  0E3F  1283               	bcf	3,5	;RP0=0, select bank0
  2027  0E40  1303               	bcf	3,6	;RP1=0, select bank0
  2028  0E41  00B3               	movwf	___flmul@b+3
  2029  0E42  3080               	movlw	128
  2030  0E43  00B2               	movwf	___flmul@b+2
  2031  0E44  3000               	movlw	0
  2032  0E45  00B1               	movwf	___flmul@b+1
  2033  0E46  3000               	movlw	0
  2034  0E47  00B0               	movwf	___flmul@b
  2035  0E48  084D               	movf	UpdateLCDViewWithNumber@number+3,w
  2036  0E49  00B7               	movwf	___flmul@a+3
  2037  0E4A  084C               	movf	UpdateLCDViewWithNumber@number+2,w
  2038  0E4B  00B6               	movwf	___flmul@a+2
  2039  0E4C  084B               	movf	UpdateLCDViewWithNumber@number+1,w
  2040  0E4D  00B5               	movwf	___flmul@a+1
  2041  0E4E  084A               	movf	UpdateLCDViewWithNumber@number,w
  2042  0E4F  00B4               	movwf	___flmul@a
  2043  0E50  120A  118A  2041  120A  158A  	fcall	___flmul
  2044  0E55  1283               	bcf	3,5	;RP0=0, select bank0
  2045  0E56  1303               	bcf	3,6	;RP1=0, select bank0
  2046  0E57  0833               	movf	?___flmul+3,w
  2047  0E58  00CD               	movwf	UpdateLCDViewWithNumber@number+3
  2048  0E59  0832               	movf	?___flmul+2,w
  2049  0E5A  00CC               	movwf	UpdateLCDViewWithNumber@number+2
  2050  0E5B  0831               	movf	?___flmul+1,w
  2051  0E5C  00CB               	movwf	UpdateLCDViewWithNumber@number+1
  2052  0E5D  0830               	movf	?___flmul,w
  2053  0E5E  00CA               	movwf	UpdateLCDViewWithNumber@number
  2054  0E5F                     l3331:
  2055                           
  2056                           ;main.c: 464:     char hundreds = (char)(number/100);
  2057  0E5F  1283               	bcf	3,5	;RP0=0, select bank0
  2058  0E60  1303               	bcf	3,6	;RP1=0, select bank0
  2059  0E61  084D               	movf	UpdateLCDViewWithNumber@number+3,w
  2060  0E62  00A7               	movwf	___fldiv@b+3
  2061  0E63  084C               	movf	UpdateLCDViewWithNumber@number+2,w
  2062  0E64  00A6               	movwf	___fldiv@b+2
  2063  0E65  084B               	movf	UpdateLCDViewWithNumber@number+1,w
  2064  0E66  00A5               	movwf	___fldiv@b+1
  2065  0E67  084A               	movf	UpdateLCDViewWithNumber@number,w
  2066  0E68  00A4               	movwf	___fldiv@b
  2067  0E69  3042               	movlw	66
  2068  0E6A  00A3               	movwf	___fldiv@a+3
  2069  0E6B  30C8               	movlw	200
  2070  0E6C  00A2               	movwf	___fldiv@a+2
  2071  0E6D  3000               	movlw	0
  2072  0E6E  00A1               	movwf	___fldiv@a+1
  2073  0E6F  3000               	movlw	0
  2074  0E70  00A0               	movwf	___fldiv@a
  2075  0E71  120A  158A  2434  120A  158A  	fcall	___fldiv
  2076  0E76  1283               	bcf	3,5	;RP0=0, select bank0
  2077  0E77  1303               	bcf	3,6	;RP1=0, select bank0
  2078  0E78  0823               	movf	?___fldiv+3,w
  2079  0E79  00B8               	movwf	___fltol@f1+3
  2080  0E7A  0822               	movf	?___fldiv+2,w
  2081  0E7B  00B7               	movwf	___fltol@f1+2
  2082  0E7C  0821               	movf	?___fldiv+1,w
  2083  0E7D  00B6               	movwf	___fltol@f1+1
  2084  0E7E  0820               	movf	?___fldiv,w
  2085  0E7F  00B5               	movwf	___fltol@f1
  2086  0E80  120A  158A  21D3  120A  158A  	fcall	___fltol
  2087  0E85  1283               	bcf	3,5	;RP0=0, select bank0
  2088  0E86  1303               	bcf	3,6	;RP1=0, select bank0
  2089  0E87  0835               	movf	?___fltol,w
  2090  0E88  00CE               	movwf	??_UpdateLCDViewWithNumber
  2091  0E89  084E               	movf	??_UpdateLCDViewWithNumber,w
  2092  0E8A  00D5               	movwf	UpdateLCDViewWithNumber@hundreds
  2093  0E8B                     l3333:
  2094                           
  2095                           ;main.c: 465:     if(hundreds != 0) SendLCD(hundreds + '0', 0x01);
  2096  0E8B  0855               	movf	UpdateLCDViewWithNumber@hundreds,w
  2097  0E8C  1903               	btfsc	3,2
  2098  0E8D  2E8F               	goto	u5201
  2099  0E8E  2E90               	goto	u5200
  2100  0E8F                     u5201:
  2101  0E8F  2E99               	goto	l3337
  2102  0E90                     u5200:
  2103  0E90                     l3335:
  2104  0E90  01F3               	clrf	SendLCD@type
  2105  0E91  0AF3               	incf	SendLCD@type,f
  2106  0E92  0855               	movf	UpdateLCDViewWithNumber@hundreds,w
  2107  0E93  3E30               	addlw	48
  2108  0E94  160A  118A  2632  120A  158A  	fcall	_SendLCD
  2109  0E99                     l3337:
  2110                           
  2111                           ;main.c: 466:     number -= hundreds*100;
  2112  0E99  3064               	movlw	100
  2113  0E9A  00F5               	movwf	___wmul@multiplicand
  2114  0E9B  3000               	movlw	0
  2115  0E9C  00F6               	movwf	___wmul@multiplicand+1
  2116  0E9D  1283               	bcf	3,5	;RP0=0, select bank0
  2117  0E9E  1303               	bcf	3,6	;RP1=0, select bank0
  2118  0E9F  0855               	movf	UpdateLCDViewWithNumber@hundreds,w
  2119  0EA0  00CE               	movwf	??_UpdateLCDViewWithNumber
  2120  0EA1  01CF               	clrf	??_UpdateLCDViewWithNumber+1
  2121  0EA2  084E               	movf	??_UpdateLCDViewWithNumber,w
  2122  0EA3  00F3               	movwf	___wmul@multiplier
  2123  0EA4  084F               	movf	??_UpdateLCDViewWithNumber+1,w
  2124  0EA5  00F4               	movwf	___wmul@multiplier+1
  2125  0EA6  120A  118A  27D4  120A  158A  	fcall	___wmul
  2126  0EAB  0873               	movf	?___wmul,w
  2127  0EAC  1283               	bcf	3,5	;RP0=0, select bank0
  2128  0EAD  1303               	bcf	3,6	;RP1=0, select bank0
  2129  0EAE  00A2               	movwf	___xxtofl@val
  2130  0EAF  0874               	movf	?___wmul+1,w
  2131  0EB0  00A3               	movwf	___xxtofl@val+1
  2132  0EB1  3000               	movlw	0
  2133  0EB2  1BA3               	btfsc	___xxtofl@val+1,7
  2134  0EB3  30FF               	movlw	255
  2135  0EB4  00A4               	movwf	___xxtofl@val+2
  2136  0EB5  00A5               	movwf	___xxtofl@val+3
  2137  0EB6  3001               	movlw	1
  2138  0EB7  120A  158A  2378  120A  158A  	fcall	___xxtofl
  2139  0EBC  1283               	bcf	3,5	;RP0=0, select bank0
  2140  0EBD  1303               	bcf	3,6	;RP1=0, select bank0
  2141  0EBE  0825               	movf	?___xxtofl+3,w
  2142  0EBF  00B3               	movwf	___flsub@a+3
  2143  0EC0  0824               	movf	?___xxtofl+2,w
  2144  0EC1  00B2               	movwf	___flsub@a+2
  2145  0EC2  0823               	movf	?___xxtofl+1,w
  2146  0EC3  00B1               	movwf	___flsub@a+1
  2147  0EC4  0822               	movf	?___xxtofl,w
  2148  0EC5  00B0               	movwf	___flsub@a
  2149  0EC6  084D               	movf	UpdateLCDViewWithNumber@number+3,w
  2150  0EC7  00B7               	movwf	___flsub@b+3
  2151  0EC8  084C               	movf	UpdateLCDViewWithNumber@number+2,w
  2152  0EC9  00B6               	movwf	___flsub@b+2
  2153  0ECA  084B               	movf	UpdateLCDViewWithNumber@number+1,w
  2154  0ECB  00B5               	movwf	___flsub@b+1
  2155  0ECC  084A               	movf	UpdateLCDViewWithNumber@number,w
  2156  0ECD  00B4               	movwf	___flsub@b
  2157  0ECE  160A  118A  258E  120A  158A  	fcall	___flsub
  2158  0ED3  1283               	bcf	3,5	;RP0=0, select bank0
  2159  0ED4  1303               	bcf	3,6	;RP1=0, select bank0
  2160  0ED5  0833               	movf	?___flsub+3,w
  2161  0ED6  00CD               	movwf	UpdateLCDViewWithNumber@number+3
  2162  0ED7  0832               	movf	?___flsub+2,w
  2163  0ED8  00CC               	movwf	UpdateLCDViewWithNumber@number+2
  2164  0ED9  0831               	movf	?___flsub+1,w
  2165  0EDA  00CB               	movwf	UpdateLCDViewWithNumber@number+1
  2166  0EDB  0830               	movf	?___flsub,w
  2167  0EDC  00CA               	movwf	UpdateLCDViewWithNumber@number
  2168  0EDD                     l3339:
  2169                           
  2170                           ;main.c: 467:     char tens = (char)(number/10);
  2171  0EDD  084D               	movf	UpdateLCDViewWithNumber@number+3,w
  2172  0EDE  00A7               	movwf	___fldiv@b+3
  2173  0EDF  084C               	movf	UpdateLCDViewWithNumber@number+2,w
  2174  0EE0  00A6               	movwf	___fldiv@b+2
  2175  0EE1  084B               	movf	UpdateLCDViewWithNumber@number+1,w
  2176  0EE2  00A5               	movwf	___fldiv@b+1
  2177  0EE3  084A               	movf	UpdateLCDViewWithNumber@number,w
  2178  0EE4  00A4               	movwf	___fldiv@b
  2179  0EE5  3041               	movlw	65
  2180  0EE6  00A3               	movwf	___fldiv@a+3
  2181  0EE7  3020               	movlw	32
  2182  0EE8  00A2               	movwf	___fldiv@a+2
  2183  0EE9  3000               	movlw	0
  2184  0EEA  00A1               	movwf	___fldiv@a+1
  2185  0EEB  3000               	movlw	0
  2186  0EEC  00A0               	movwf	___fldiv@a
  2187  0EED  120A  158A  2434  120A  158A  	fcall	___fldiv
  2188  0EF2  1283               	bcf	3,5	;RP0=0, select bank0
  2189  0EF3  1303               	bcf	3,6	;RP1=0, select bank0
  2190  0EF4  0823               	movf	?___fldiv+3,w
  2191  0EF5  00B8               	movwf	___fltol@f1+3
  2192  0EF6  0822               	movf	?___fldiv+2,w
  2193  0EF7  00B7               	movwf	___fltol@f1+2
  2194  0EF8  0821               	movf	?___fldiv+1,w
  2195  0EF9  00B6               	movwf	___fltol@f1+1
  2196  0EFA  0820               	movf	?___fldiv,w
  2197  0EFB  00B5               	movwf	___fltol@f1
  2198  0EFC  120A  158A  21D3  120A  158A  	fcall	___fltol
  2199  0F01  1283               	bcf	3,5	;RP0=0, select bank0
  2200  0F02  1303               	bcf	3,6	;RP1=0, select bank0
  2201  0F03  0835               	movf	?___fltol,w
  2202  0F04  00CE               	movwf	??_UpdateLCDViewWithNumber
  2203  0F05  084E               	movf	??_UpdateLCDViewWithNumber,w
  2204  0F06  00D6               	movwf	UpdateLCDViewWithNumber@tens
  2205  0F07                     l3341:
  2206                           
  2207                           ;main.c: 468:     if(tens != 0) SendLCD(tens + '0', 0x01);
  2208  0F07  0856               	movf	UpdateLCDViewWithNumber@tens,w
  2209  0F08  1903               	btfsc	3,2
  2210  0F09  2F0B               	goto	u5211
  2211  0F0A  2F0C               	goto	u5210
  2212  0F0B                     u5211:
  2213  0F0B  2F15               	goto	l3345
  2214  0F0C                     u5210:
  2215  0F0C                     l3343:
  2216  0F0C  01F3               	clrf	SendLCD@type
  2217  0F0D  0AF3               	incf	SendLCD@type,f
  2218  0F0E  0856               	movf	UpdateLCDViewWithNumber@tens,w
  2219  0F0F  3E30               	addlw	48
  2220  0F10  160A  118A  2632  120A  158A  	fcall	_SendLCD
  2221  0F15                     l3345:
  2222                           
  2223                           ;main.c: 469:     number -= tens * 10;
  2224  0F15  300A               	movlw	10
  2225  0F16  00F5               	movwf	___wmul@multiplicand
  2226  0F17  3000               	movlw	0
  2227  0F18  00F6               	movwf	___wmul@multiplicand+1
  2228  0F19  1283               	bcf	3,5	;RP0=0, select bank0
  2229  0F1A  1303               	bcf	3,6	;RP1=0, select bank0
  2230  0F1B  0856               	movf	UpdateLCDViewWithNumber@tens,w
  2231  0F1C  00CE               	movwf	??_UpdateLCDViewWithNumber
  2232  0F1D  01CF               	clrf	??_UpdateLCDViewWithNumber+1
  2233  0F1E  084E               	movf	??_UpdateLCDViewWithNumber,w
  2234  0F1F  00F3               	movwf	___wmul@multiplier
  2235  0F20  084F               	movf	??_UpdateLCDViewWithNumber+1,w
  2236  0F21  00F4               	movwf	___wmul@multiplier+1
  2237  0F22  120A  118A  27D4  120A  158A  	fcall	___wmul
  2238  0F27  0873               	movf	?___wmul,w
  2239  0F28  1283               	bcf	3,5	;RP0=0, select bank0
  2240  0F29  1303               	bcf	3,6	;RP1=0, select bank0
  2241  0F2A  00A2               	movwf	___xxtofl@val
  2242  0F2B  0874               	movf	?___wmul+1,w
  2243  0F2C  00A3               	movwf	___xxtofl@val+1
  2244  0F2D  3000               	movlw	0
  2245  0F2E  1BA3               	btfsc	___xxtofl@val+1,7
  2246  0F2F  30FF               	movlw	255
  2247  0F30  00A4               	movwf	___xxtofl@val+2
  2248  0F31  00A5               	movwf	___xxtofl@val+3
  2249  0F32  3001               	movlw	1
  2250  0F33  120A  158A  2378  120A  158A  	fcall	___xxtofl
  2251  0F38  1283               	bcf	3,5	;RP0=0, select bank0
  2252  0F39  1303               	bcf	3,6	;RP1=0, select bank0
  2253  0F3A  0825               	movf	?___xxtofl+3,w
  2254  0F3B  00B3               	movwf	___flsub@a+3
  2255  0F3C  0824               	movf	?___xxtofl+2,w
  2256  0F3D  00B2               	movwf	___flsub@a+2
  2257  0F3E  0823               	movf	?___xxtofl+1,w
  2258  0F3F  00B1               	movwf	___flsub@a+1
  2259  0F40  0822               	movf	?___xxtofl,w
  2260  0F41  00B0               	movwf	___flsub@a
  2261  0F42  084D               	movf	UpdateLCDViewWithNumber@number+3,w
  2262  0F43  00B7               	movwf	___flsub@b+3
  2263  0F44  084C               	movf	UpdateLCDViewWithNumber@number+2,w
  2264  0F45  00B6               	movwf	___flsub@b+2
  2265  0F46  084B               	movf	UpdateLCDViewWithNumber@number+1,w
  2266  0F47  00B5               	movwf	___flsub@b+1
  2267  0F48  084A               	movf	UpdateLCDViewWithNumber@number,w
  2268  0F49  00B4               	movwf	___flsub@b
  2269  0F4A  160A  118A  258E  120A  158A  	fcall	___flsub
  2270  0F4F  1283               	bcf	3,5	;RP0=0, select bank0
  2271  0F50  1303               	bcf	3,6	;RP1=0, select bank0
  2272  0F51  0833               	movf	?___flsub+3,w
  2273  0F52  00CD               	movwf	UpdateLCDViewWithNumber@number+3
  2274  0F53  0832               	movf	?___flsub+2,w
  2275  0F54  00CC               	movwf	UpdateLCDViewWithNumber@number+2
  2276  0F55  0831               	movf	?___flsub+1,w
  2277  0F56  00CB               	movwf	UpdateLCDViewWithNumber@number+1
  2278  0F57  0830               	movf	?___flsub,w
  2279  0F58  00CA               	movwf	UpdateLCDViewWithNumber@number
  2280  0F59                     l3347:
  2281                           
  2282                           ;main.c: 470:     char unit = (char)(number/1);
  2283  0F59  084D               	movf	UpdateLCDViewWithNumber@number+3,w
  2284  0F5A  00A7               	movwf	___fldiv@b+3
  2285  0F5B  084C               	movf	UpdateLCDViewWithNumber@number+2,w
  2286  0F5C  00A6               	movwf	___fldiv@b+2
  2287  0F5D  084B               	movf	UpdateLCDViewWithNumber@number+1,w
  2288  0F5E  00A5               	movwf	___fldiv@b+1
  2289  0F5F  084A               	movf	UpdateLCDViewWithNumber@number,w
  2290  0F60  00A4               	movwf	___fldiv@b
  2291  0F61  303F               	movlw	63
  2292  0F62  00A3               	movwf	___fldiv@a+3
  2293  0F63  3080               	movlw	128
  2294  0F64  00A2               	movwf	___fldiv@a+2
  2295  0F65  3000               	movlw	0
  2296  0F66  00A1               	movwf	___fldiv@a+1
  2297  0F67  3000               	movlw	0
  2298  0F68  00A0               	movwf	___fldiv@a
  2299  0F69  120A  158A  2434  120A  158A  	fcall	___fldiv
  2300  0F6E  1283               	bcf	3,5	;RP0=0, select bank0
  2301  0F6F  1303               	bcf	3,6	;RP1=0, select bank0
  2302  0F70  0823               	movf	?___fldiv+3,w
  2303  0F71  00B8               	movwf	___fltol@f1+3
  2304  0F72  0822               	movf	?___fldiv+2,w
  2305  0F73  00B7               	movwf	___fltol@f1+2
  2306  0F74  0821               	movf	?___fldiv+1,w
  2307  0F75  00B6               	movwf	___fltol@f1+1
  2308  0F76  0820               	movf	?___fldiv,w
  2309  0F77  00B5               	movwf	___fltol@f1
  2310  0F78  120A  158A  21D3  120A  158A  	fcall	___fltol
  2311  0F7D  1283               	bcf	3,5	;RP0=0, select bank0
  2312  0F7E  1303               	bcf	3,6	;RP1=0, select bank0
  2313  0F7F  0835               	movf	?___fltol,w
  2314  0F80  00CE               	movwf	??_UpdateLCDViewWithNumber
  2315  0F81  084E               	movf	??_UpdateLCDViewWithNumber,w
  2316  0F82  00D4               	movwf	UpdateLCDViewWithNumber@unit
  2317                           
  2318                           ;main.c: 471:     SendLCD(unit + '0', 0x01);
  2319  0F83  01F3               	clrf	SendLCD@type
  2320  0F84  0AF3               	incf	SendLCD@type,f
  2321  0F85  0854               	movf	UpdateLCDViewWithNumber@unit,w
  2322  0F86  3E30               	addlw	48
  2323  0F87  160A  118A  2632  120A  158A  	fcall	_SendLCD
  2324  0F8C                     l3349:
  2325                           
  2326                           ;main.c: 472:     number -= unit;
  2327  0F8C  1283               	bcf	3,5	;RP0=0, select bank0
  2328  0F8D  1303               	bcf	3,6	;RP1=0, select bank0
  2329  0F8E  0854               	movf	UpdateLCDViewWithNumber@unit,w
  2330  0F8F  00CE               	movwf	??_UpdateLCDViewWithNumber
  2331  0F90  01CF               	clrf	??_UpdateLCDViewWithNumber+1
  2332  0F91  01D0               	clrf	??_UpdateLCDViewWithNumber+2
  2333  0F92  01D1               	clrf	??_UpdateLCDViewWithNumber+3
  2334  0F93  0851               	movf	??_UpdateLCDViewWithNumber+3,w
  2335  0F94  00A5               	movwf	___xxtofl@val+3
  2336  0F95  0850               	movf	??_UpdateLCDViewWithNumber+2,w
  2337  0F96  00A4               	movwf	___xxtofl@val+2
  2338  0F97  084F               	movf	??_UpdateLCDViewWithNumber+1,w
  2339  0F98  00A3               	movwf	___xxtofl@val+1
  2340  0F99  084E               	movf	??_UpdateLCDViewWithNumber,w
  2341  0F9A  00A2               	movwf	___xxtofl@val
  2342  0F9B  3001               	movlw	1
  2343  0F9C  120A  158A  2378  120A  158A  	fcall	___xxtofl
  2344  0FA1  1283               	bcf	3,5	;RP0=0, select bank0
  2345  0FA2  1303               	bcf	3,6	;RP1=0, select bank0
  2346  0FA3  0825               	movf	?___xxtofl+3,w
  2347  0FA4  00B3               	movwf	___flsub@a+3
  2348  0FA5  0824               	movf	?___xxtofl+2,w
  2349  0FA6  00B2               	movwf	___flsub@a+2
  2350  0FA7  0823               	movf	?___xxtofl+1,w
  2351  0FA8  00B1               	movwf	___flsub@a+1
  2352  0FA9  0822               	movf	?___xxtofl,w
  2353  0FAA  00B0               	movwf	___flsub@a
  2354  0FAB  084D               	movf	UpdateLCDViewWithNumber@number+3,w
  2355  0FAC  00B7               	movwf	___flsub@b+3
  2356  0FAD  084C               	movf	UpdateLCDViewWithNumber@number+2,w
  2357  0FAE  00B6               	movwf	___flsub@b+2
  2358  0FAF  084B               	movf	UpdateLCDViewWithNumber@number+1,w
  2359  0FB0  00B5               	movwf	___flsub@b+1
  2360  0FB1  084A               	movf	UpdateLCDViewWithNumber@number,w
  2361  0FB2  00B4               	movwf	___flsub@b
  2362  0FB3  160A  118A  258E  120A  158A  	fcall	___flsub
  2363  0FB8  1283               	bcf	3,5	;RP0=0, select bank0
  2364  0FB9  1303               	bcf	3,6	;RP1=0, select bank0
  2365  0FBA  0833               	movf	?___flsub+3,w
  2366  0FBB  00CD               	movwf	UpdateLCDViewWithNumber@number+3
  2367  0FBC  0832               	movf	?___flsub+2,w
  2368  0FBD  00CC               	movwf	UpdateLCDViewWithNumber@number+2
  2369  0FBE  0831               	movf	?___flsub+1,w
  2370  0FBF  00CB               	movwf	UpdateLCDViewWithNumber@number+1
  2371  0FC0  0830               	movf	?___flsub,w
  2372  0FC1  00CA               	movwf	UpdateLCDViewWithNumber@number
  2373  0FC2                     l3351:
  2374                           
  2375                           ;main.c: 473:     char decimal = (char)(number/0.1);
  2376  0FC2  084D               	movf	UpdateLCDViewWithNumber@number+3,w
  2377  0FC3  00A7               	movwf	___fldiv@b+3
  2378  0FC4  084C               	movf	UpdateLCDViewWithNumber@number+2,w
  2379  0FC5  00A6               	movwf	___fldiv@b+2
  2380  0FC6  084B               	movf	UpdateLCDViewWithNumber@number+1,w
  2381  0FC7  00A5               	movwf	___fldiv@b+1
  2382  0FC8  084A               	movf	UpdateLCDViewWithNumber@number,w
  2383  0FC9  00A4               	movwf	___fldiv@b
  2384  0FCA  303D               	movlw	61
  2385  0FCB  00A3               	movwf	___fldiv@a+3
  2386  0FCC  30CC               	movlw	204
  2387  0FCD  00A2               	movwf	___fldiv@a+2
  2388  0FCE  30CC               	movlw	204
  2389  0FCF  00A1               	movwf	___fldiv@a+1
  2390  0FD0  30CD               	movlw	205
  2391  0FD1  00A0               	movwf	___fldiv@a
  2392  0FD2  120A  158A  2434  120A  158A  	fcall	___fldiv
  2393  0FD7  1283               	bcf	3,5	;RP0=0, select bank0
  2394  0FD8  1303               	bcf	3,6	;RP1=0, select bank0
  2395  0FD9  0823               	movf	?___fldiv+3,w
  2396  0FDA  00B8               	movwf	___fltol@f1+3
  2397  0FDB  0822               	movf	?___fldiv+2,w
  2398  0FDC  00B7               	movwf	___fltol@f1+2
  2399  0FDD  0821               	movf	?___fldiv+1,w
  2400  0FDE  00B6               	movwf	___fltol@f1+1
  2401  0FDF  0820               	movf	?___fldiv,w
  2402  0FE0  00B5               	movwf	___fltol@f1
  2403  0FE1  120A  158A  21D3  120A  158A  	fcall	___fltol
  2404  0FE6  1283               	bcf	3,5	;RP0=0, select bank0
  2405  0FE7  1303               	bcf	3,6	;RP1=0, select bank0
  2406  0FE8  0835               	movf	?___fltol,w
  2407  0FE9  00CE               	movwf	??_UpdateLCDViewWithNumber
  2408  0FEA  084E               	movf	??_UpdateLCDViewWithNumber,w
  2409  0FEB  00D3               	movwf	UpdateLCDViewWithNumber@decimal
  2410                           
  2411                           ;main.c: 474:     SendLCD('.', 0x01);
  2412  0FEC  01F3               	clrf	SendLCD@type
  2413  0FED  0AF3               	incf	SendLCD@type,f
  2414  0FEE  302E               	movlw	46
  2415  0FEF  160A  118A  2632  120A  158A  	fcall	_SendLCD
  2416                           
  2417                           ;main.c: 475:     SendLCD(decimal + '0', 0x01);
  2418  0FF4  01F3               	clrf	SendLCD@type
  2419  0FF5  0AF3               	incf	SendLCD@type,f
  2420  0FF6  1283               	bcf	3,5	;RP0=0, select bank0
  2421  0FF7  1303               	bcf	3,6	;RP1=0, select bank0
  2422  0FF8  0853               	movf	UpdateLCDViewWithNumber@decimal,w
  2423  0FF9  3E30               	addlw	48
  2424  0FFA  160A  118A  2632  120A  158A  	fcall	_SendLCD
  2425  0FFF                     l272:
  2426  0FFF  0008               	return
  2427  1000                     __end_of_UpdateLCDViewWithNumber:
  2428                           
  2429                           	psect	text8
  2430  0B78                     __ptext8:	
  2431 ;; *************** function ___xxtofl *****************
  2432 ;; Defined at:
  2433 ;;		line 10 in file "C:\Program Files\Microchip\xc8\v2.32\pic\sources\c90\common\xxtofl.c"
  2434 ;; Parameters:    Size  Location     Type
  2435 ;;  sign            1    wreg     unsigned char 
  2436 ;;  val             4    2[BANK0 ] long 
  2437 ;; Auto vars:     Size  Location     Type
  2438 ;;  sign            1   10[BANK0 ] unsigned char 
  2439 ;;  arg             4   12[BANK0 ] unsigned long 
  2440 ;;  exp             1   11[BANK0 ] unsigned char 
  2441 ;; Return value:  Size  Location     Type
  2442 ;;                  4    2[BANK0 ] unsigned char 
  2443 ;; Registers used:
  2444 ;;		wreg, status,2, status,0
  2445 ;; Tracked objects:
  2446 ;;		On entry : 0/0
  2447 ;;		On exit  : 0/0
  2448 ;;		Unchanged: 0/0
  2449 ;; Data sizes:     COMMON   BANK0   BANK1   BANK3   BANK2
  2450 ;;      Params:         0       4       0       0       0
  2451 ;;      Locals:         0       6       0       0       0
  2452 ;;      Temps:          0       4       0       0       0
  2453 ;;      Totals:         0      14       0       0       0
  2454 ;;Total ram usage:       14 bytes
  2455 ;; Hardware stack levels used: 1
  2456 ;; Hardware stack levels required when called: 1
  2457 ;; This function calls:
  2458 ;;		Nothing
  2459 ;; This function is called by:
  2460 ;;		_HandleKeypadReading
  2461 ;;		_ReadTemperature
  2462 ;;		_UpdateLCDViewWithNumber
  2463 ;; This function uses a non-reentrant model
  2464 ;;
  2465                           
  2466                           
  2467                           ;psect for function ___xxtofl
  2468  0B78                     ___xxtofl:
  2469                           
  2470                           ;incstack = 0
  2471                           ; Regs used in ___xxtofl: [wreg+status,2+status,0]
  2472                           ;___xxtofl@sign stored from wreg
  2473  0B78  1283               	bcf	3,5	;RP0=0, select bank0
  2474  0B79  1303               	bcf	3,6	;RP1=0, select bank0
  2475  0B7A  00AA               	movwf	___xxtofl@sign
  2476  0B7B                     l2501:
  2477  0B7B  082A               	movf	___xxtofl@sign,w
  2478  0B7C  1903               	btfsc	3,2
  2479  0B7D  2B7F               	goto	u3551
  2480  0B7E  2B80               	goto	u3550
  2481  0B7F                     u3551:
  2482  0B7F  2B94               	goto	l2507
  2483  0B80                     u3550:
  2484  0B80                     l2503:
  2485  0B80  1FA5               	btfss	___xxtofl@val+3,7
  2486  0B81  2B83               	goto	u3561
  2487  0B82  2B84               	goto	u3560
  2488  0B83                     u3561:
  2489  0B83  2B94               	goto	l2507
  2490  0B84                     u3560:
  2491  0B84                     l2505:
  2492  0B84  0922               	comf	___xxtofl@val,w
  2493  0B85  00AC               	movwf	___xxtofl@arg
  2494  0B86  0923               	comf	___xxtofl@val+1,w
  2495  0B87  00AD               	movwf	___xxtofl@arg+1
  2496  0B88  0924               	comf	___xxtofl@val+2,w
  2497  0B89  00AE               	movwf	___xxtofl@arg+2
  2498  0B8A  0925               	comf	___xxtofl@val+3,w
  2499  0B8B  00AF               	movwf	___xxtofl@arg+3
  2500  0B8C  0AAC               	incf	___xxtofl@arg,f
  2501  0B8D  1903               	skipnz
  2502  0B8E  0AAD               	incf	___xxtofl@arg+1,f
  2503  0B8F  1903               	skipnz
  2504  0B90  0AAE               	incf	___xxtofl@arg+2,f
  2505  0B91  1903               	skipnz
  2506  0B92  0AAF               	incf	___xxtofl@arg+3,f
  2507  0B93  2B9C               	goto	l794
  2508  0B94                     l2507:
  2509  0B94  0825               	movf	___xxtofl@val+3,w
  2510  0B95  00AF               	movwf	___xxtofl@arg+3
  2511  0B96  0824               	movf	___xxtofl@val+2,w
  2512  0B97  00AE               	movwf	___xxtofl@arg+2
  2513  0B98  0823               	movf	___xxtofl@val+1,w
  2514  0B99  00AD               	movwf	___xxtofl@arg+1
  2515  0B9A  0822               	movf	___xxtofl@val,w
  2516  0B9B  00AC               	movwf	___xxtofl@arg
  2517  0B9C                     l794:
  2518  0B9C  0825               	movf	___xxtofl@val+3,w
  2519  0B9D  0424               	iorwf	___xxtofl@val+2,w
  2520  0B9E  0423               	iorwf	___xxtofl@val+1,w
  2521  0B9F  0422               	iorwf	___xxtofl@val,w
  2522  0BA0  1D03               	skipz
  2523  0BA1  2BA3               	goto	u3571
  2524  0BA2  2BA4               	goto	u3570
  2525  0BA3                     u3571:
  2526  0BA3  2BAD               	goto	l2513
  2527  0BA4                     u3570:
  2528  0BA4                     l2509:
  2529  0BA4  3000               	movlw	0
  2530  0BA5  00A5               	movwf	?___xxtofl+3
  2531  0BA6  3000               	movlw	0
  2532  0BA7  00A4               	movwf	?___xxtofl+2
  2533  0BA8  3000               	movlw	0
  2534  0BA9  00A3               	movwf	?___xxtofl+1
  2535  0BAA  3000               	movlw	0
  2536  0BAB  00A2               	movwf	?___xxtofl
  2537  0BAC  2C33               	goto	l796
  2538  0BAD                     l2513:
  2539  0BAD  3096               	movlw	150
  2540  0BAE  00A6               	movwf	??___xxtofl
  2541  0BAF  0826               	movf	??___xxtofl,w
  2542  0BB0  00AB               	movwf	___xxtofl@exp
  2543  0BB1  2BBF               	goto	l2517
  2544  0BB2                     l2515:
  2545  0BB2  3001               	movlw	1
  2546  0BB3  00A6               	movwf	??___xxtofl
  2547  0BB4  0826               	movf	??___xxtofl,w
  2548  0BB5  07AB               	addwf	___xxtofl@exp,f
  2549  0BB6  3001               	movlw	1
  2550  0BB7                     u3585:
  2551  0BB7  1003               	clrc
  2552  0BB8  0CAF               	rrf	___xxtofl@arg+3,f
  2553  0BB9  0CAE               	rrf	___xxtofl@arg+2,f
  2554  0BBA  0CAD               	rrf	___xxtofl@arg+1,f
  2555  0BBB  0CAC               	rrf	___xxtofl@arg,f
  2556  0BBC  3EFF               	addlw	-1
  2557  0BBD  1D03               	skipz
  2558  0BBE  2BB7               	goto	u3585
  2559  0BBF                     l2517:
  2560  0BBF  30FE               	movlw	254
  2561  0BC0  052F               	andwf	___xxtofl@arg+3,w
  2562  0BC1  1D03               	btfss	3,2
  2563  0BC2  2BC4               	goto	u3591
  2564  0BC3  2BC5               	goto	u3590
  2565  0BC4                     u3591:
  2566  0BC4  2BB2               	goto	l2515
  2567  0BC5                     u3590:
  2568  0BC5  2BE1               	goto	l800
  2569  0BC6                     l2519:
  2570  0BC6  3001               	movlw	1
  2571  0BC7  00A6               	movwf	??___xxtofl
  2572  0BC8  0826               	movf	??___xxtofl,w
  2573  0BC9  07AB               	addwf	___xxtofl@exp,f
  2574  0BCA                     l2521:
  2575  0BCA  3001               	movlw	1
  2576  0BCB  07AC               	addwf	___xxtofl@arg,f
  2577  0BCC  3000               	movlw	0
  2578  0BCD  1803               	skipnc
  2579  0BCE  3001               	movlw	1
  2580  0BCF  07AD               	addwf	___xxtofl@arg+1,f
  2581  0BD0  3000               	movlw	0
  2582  0BD1  1803               	skipnc
  2583  0BD2  3001               	movlw	1
  2584  0BD3  07AE               	addwf	___xxtofl@arg+2,f
  2585  0BD4  3000               	movlw	0
  2586  0BD5  1803               	skipnc
  2587  0BD6  3001               	movlw	1
  2588  0BD7  07AF               	addwf	___xxtofl@arg+3,f
  2589  0BD8                     l2523:
  2590  0BD8  3001               	movlw	1
  2591  0BD9                     u3605:
  2592  0BD9  1003               	clrc
  2593  0BDA  0CAF               	rrf	___xxtofl@arg+3,f
  2594  0BDB  0CAE               	rrf	___xxtofl@arg+2,f
  2595  0BDC  0CAD               	rrf	___xxtofl@arg+1,f
  2596  0BDD  0CAC               	rrf	___xxtofl@arg,f
  2597  0BDE  3EFF               	addlw	-1
  2598  0BDF  1D03               	skipz
  2599  0BE0  2BD9               	goto	u3605
  2600  0BE1                     l800:
  2601  0BE1  30FF               	movlw	255
  2602  0BE2  052F               	andwf	___xxtofl@arg+3,w
  2603  0BE3  1D03               	btfss	3,2
  2604  0BE4  2BE6               	goto	u3611
  2605  0BE5  2BE7               	goto	u3610
  2606  0BE6                     u3611:
  2607  0BE6  2BC6               	goto	l2519
  2608  0BE7                     u3610:
  2609  0BE7  2BF3               	goto	l2527
  2610  0BE8                     l2525:
  2611  0BE8  3001               	movlw	1
  2612  0BE9  02AB               	subwf	___xxtofl@exp,f
  2613  0BEA  3001               	movlw	1
  2614  0BEB  00A6               	movwf	??___xxtofl
  2615  0BEC                     u3625:
  2616  0BEC  1003               	clrc
  2617  0BED  0DAC               	rlf	___xxtofl@arg,f
  2618  0BEE  0DAD               	rlf	___xxtofl@arg+1,f
  2619  0BEF  0DAE               	rlf	___xxtofl@arg+2,f
  2620  0BF0  0DAF               	rlf	___xxtofl@arg+3,f
  2621  0BF1  0BA6               	decfsz	??___xxtofl,f
  2622  0BF2  2BEC               	goto	u3625
  2623  0BF3                     l2527:
  2624  0BF3  1BAE               	btfsc	___xxtofl@arg+2,7
  2625  0BF4  2BF6               	goto	u3631
  2626  0BF5  2BF7               	goto	u3630
  2627  0BF6                     u3631:
  2628  0BF6  2BFD               	goto	l807
  2629  0BF7                     u3630:
  2630  0BF7                     l2529:
  2631  0BF7  3002               	movlw	2
  2632  0BF8  022B               	subwf	___xxtofl@exp,w
  2633  0BF9  1803               	skipnc
  2634  0BFA  2BFC               	goto	u3641
  2635  0BFB  2BFD               	goto	u3640
  2636  0BFC                     u3641:
  2637  0BFC  2BE8               	goto	l2525
  2638  0BFD                     u3640:
  2639  0BFD                     l807:
  2640  0BFD  182B               	btfsc	___xxtofl@exp,0
  2641  0BFE  2C00               	goto	u3651
  2642  0BFF  2C01               	goto	u3650
  2643  0C00                     u3651:
  2644  0C00  2C09               	goto	l808
  2645  0C01                     u3650:
  2646  0C01                     l2531:
  2647  0C01  30FF               	movlw	255
  2648  0C02  05AC               	andwf	___xxtofl@arg,f
  2649  0C03  30FF               	movlw	255
  2650  0C04  05AD               	andwf	___xxtofl@arg+1,f
  2651  0C05  307F               	movlw	127
  2652  0C06  05AE               	andwf	___xxtofl@arg+2,f
  2653  0C07  30FF               	movlw	255
  2654  0C08  05AF               	andwf	___xxtofl@arg+3,f
  2655  0C09                     l808:
  2656  0C09  1003               	clrc
  2657  0C0A  0CAB               	rrf	___xxtofl@exp,f
  2658  0C0B                     l2533:
  2659  0C0B  082B               	movf	___xxtofl@exp,w
  2660  0C0C  00A6               	movwf	??___xxtofl
  2661  0C0D  01A7               	clrf	??___xxtofl+1
  2662  0C0E  01A8               	clrf	??___xxtofl+2
  2663  0C0F  01A9               	clrf	??___xxtofl+3
  2664  0C10  3018               	movlw	24
  2665  0C11                     u3665:
  2666  0C11  1003               	clrc
  2667  0C12  0DA6               	rlf	??___xxtofl,f
  2668  0C13  0DA7               	rlf	??___xxtofl+1,f
  2669  0C14  0DA8               	rlf	??___xxtofl+2,f
  2670  0C15  0DA9               	rlf	??___xxtofl+3,f
  2671  0C16                     u3660:
  2672  0C16  3EFF               	addlw	-1
  2673  0C17  1D03               	skipz
  2674  0C18  2C11               	goto	u3665
  2675  0C19  0826               	movf	??___xxtofl,w
  2676  0C1A  04AC               	iorwf	___xxtofl@arg,f
  2677  0C1B  0827               	movf	??___xxtofl+1,w
  2678  0C1C  04AD               	iorwf	___xxtofl@arg+1,f
  2679  0C1D  0828               	movf	??___xxtofl+2,w
  2680  0C1E  04AE               	iorwf	___xxtofl@arg+2,f
  2681  0C1F  0829               	movf	??___xxtofl+3,w
  2682  0C20  04AF               	iorwf	___xxtofl@arg+3,f
  2683  0C21                     l2535:
  2684  0C21  082A               	movf	___xxtofl@sign,w
  2685  0C22  1903               	btfsc	3,2
  2686  0C23  2C25               	goto	u3671
  2687  0C24  2C26               	goto	u3670
  2688  0C25                     u3671:
  2689  0C25  2C2B               	goto	l2541
  2690  0C26                     u3670:
  2691  0C26                     l2537:
  2692  0C26  1FA5               	btfss	___xxtofl@val+3,7
  2693  0C27  2C29               	goto	u3681
  2694  0C28  2C2A               	goto	u3680
  2695  0C29                     u3681:
  2696  0C29  2C2B               	goto	l2541
  2697  0C2A                     u3680:
  2698  0C2A                     l2539:
  2699  0C2A  17AF               	bsf	___xxtofl@arg+3,7
  2700  0C2B                     l2541:
  2701  0C2B  082F               	movf	___xxtofl@arg+3,w
  2702  0C2C  00A5               	movwf	?___xxtofl+3
  2703  0C2D  082E               	movf	___xxtofl@arg+2,w
  2704  0C2E  00A4               	movwf	?___xxtofl+2
  2705  0C2F  082D               	movf	___xxtofl@arg+1,w
  2706  0C30  00A3               	movwf	?___xxtofl+1
  2707  0C31  082C               	movf	___xxtofl@arg,w
  2708  0C32  00A2               	movwf	?___xxtofl
  2709  0C33                     l796:
  2710  0C33  0008               	return
  2711  0C34                     __end_of___xxtofl:
  2712                           
  2713                           	psect	text9
  2714  07D4                     __ptext9:	
  2715 ;; *************** function ___wmul *****************
  2716 ;; Defined at:
  2717 ;;		line 15 in file "C:\Program Files\Microchip\xc8\v2.32\pic\sources\c90\common\Umul16.c"
  2718 ;; Parameters:    Size  Location     Type
  2719 ;;  multiplier      2    3[COMMON] unsigned int 
  2720 ;;  multiplicand    2    5[COMMON] unsigned int 
  2721 ;; Auto vars:     Size  Location     Type
  2722 ;;  product         2    0[BANK0 ] unsigned int 
  2723 ;; Return value:  Size  Location     Type
  2724 ;;                  2    3[COMMON] unsigned int 
  2725 ;; Registers used:
  2726 ;;		wreg, status,2, status,0
  2727 ;; Tracked objects:
  2728 ;;		On entry : 0/0
  2729 ;;		On exit  : 0/0
  2730 ;;		Unchanged: 0/0
  2731 ;; Data sizes:     COMMON   BANK0   BANK1   BANK3   BANK2
  2732 ;;      Params:         4       0       0       0       0
  2733 ;;      Locals:         0       2       0       0       0
  2734 ;;      Temps:          0       0       0       0       0
  2735 ;;      Totals:         4       2       0       0       0
  2736 ;;Total ram usage:        6 bytes
  2737 ;; Hardware stack levels used: 1
  2738 ;; Hardware stack levels required when called: 1
  2739 ;; This function calls:
  2740 ;;		Nothing
  2741 ;; This function is called by:
  2742 ;;		_UpdateLCDViewWithNumber
  2743 ;; This function uses a non-reentrant model
  2744 ;;
  2745                           
  2746                           
  2747                           ;psect for function ___wmul
  2748  07D4                     ___wmul:
  2749  07D4                     l3099:	
  2750                           ;incstack = 0
  2751                           ; Regs used in ___wmul: [wreg+status,2+status,0]
  2752                           
  2753  07D4  1283               	bcf	3,5	;RP0=0, select bank0
  2754  07D5  1303               	bcf	3,6	;RP1=0, select bank0
  2755  07D6  01A0               	clrf	___wmul@product
  2756  07D7  01A1               	clrf	___wmul@product+1
  2757  07D8                     l3101:
  2758  07D8  1C73               	btfss	___wmul@multiplier,0
  2759  07D9  2FDB               	goto	u4721
  2760  07DA  2FDC               	goto	u4720
  2761  07DB                     u4721:
  2762  07DB  2FE4               	goto	l361
  2763  07DC                     u4720:
  2764  07DC                     l3103:
  2765  07DC  0875               	movf	___wmul@multiplicand,w
  2766  07DD  1283               	bcf	3,5	;RP0=0, select bank0
  2767  07DE  1303               	bcf	3,6	;RP1=0, select bank0
  2768  07DF  07A0               	addwf	___wmul@product,f
  2769  07E0  1803               	skipnc
  2770  07E1  0AA1               	incf	___wmul@product+1,f
  2771  07E2  0876               	movf	___wmul@multiplicand+1,w
  2772  07E3  07A1               	addwf	___wmul@product+1,f
  2773  07E4                     l361:
  2774  07E4  3001               	movlw	1
  2775  07E5                     u4735:
  2776  07E5  1003               	clrc
  2777  07E6  0DF5               	rlf	___wmul@multiplicand,f
  2778  07E7  0DF6               	rlf	___wmul@multiplicand+1,f
  2779  07E8  3EFF               	addlw	-1
  2780  07E9  1D03               	skipz
  2781  07EA  2FE5               	goto	u4735
  2782  07EB                     l3105:
  2783  07EB  3001               	movlw	1
  2784  07EC                     u4745:
  2785  07EC  1003               	clrc
  2786  07ED  0CF4               	rrf	___wmul@multiplier+1,f
  2787  07EE  0CF3               	rrf	___wmul@multiplier,f
  2788  07EF  3EFF               	addlw	-1
  2789  07F0  1D03               	skipz
  2790  07F1  2FEC               	goto	u4745
  2791  07F2                     l3107:
  2792  07F2  0873               	movf	___wmul@multiplier,w
  2793  07F3  0474               	iorwf	___wmul@multiplier+1,w
  2794  07F4  1D03               	btfss	3,2
  2795  07F5  2FF7               	goto	u4751
  2796  07F6  2FF8               	goto	u4750
  2797  07F7                     u4751:
  2798  07F7  2FD8               	goto	l3101
  2799  07F8                     u4750:
  2800  07F8                     l3109:
  2801  07F8  1283               	bcf	3,5	;RP0=0, select bank0
  2802  07F9  1303               	bcf	3,6	;RP1=0, select bank0
  2803  07FA  0821               	movf	___wmul@product+1,w
  2804  07FB  00F4               	movwf	?___wmul+1
  2805  07FC  0820               	movf	___wmul@product,w
  2806  07FD  00F3               	movwf	?___wmul
  2807  07FE                     l363:
  2808  07FE  0008               	return
  2809  07FF                     __end_of___wmul:
  2810                           
  2811                           	psect	text10
  2812  09D3                     __ptext10:	
  2813 ;; *************** function ___fltol *****************
  2814 ;; Defined at:
  2815 ;;		line 43 in file "C:\Program Files\Microchip\xc8\v2.32\pic\sources\c90\common\fltol.c"
  2816 ;; Parameters:    Size  Location     Type
  2817 ;;  f1              4   21[BANK0 ] unsigned int 
  2818 ;; Auto vars:     Size  Location     Type
  2819 ;;  exp1            1   31[BANK0 ] unsigned char 
  2820 ;;  sign1           1   30[BANK0 ] unsigned char 
  2821 ;; Return value:  Size  Location     Type
  2822 ;;                  4   21[BANK0 ] long 
  2823 ;; Registers used:
  2824 ;;		wreg, status,2, status,0
  2825 ;; Tracked objects:
  2826 ;;		On entry : 0/0
  2827 ;;		On exit  : 0/0
  2828 ;;		Unchanged: 0/0
  2829 ;; Data sizes:     COMMON   BANK0   BANK1   BANK3   BANK2
  2830 ;;      Params:         0       4       0       0       0
  2831 ;;      Locals:         0       2       0       0       0
  2832 ;;      Temps:          0       5       0       0       0
  2833 ;;      Totals:         0      11       0       0       0
  2834 ;;Total ram usage:       11 bytes
  2835 ;; Hardware stack levels used: 1
  2836 ;; Hardware stack levels required when called: 1
  2837 ;; This function calls:
  2838 ;;		Nothing
  2839 ;; This function is called by:
  2840 ;;		_UpdateLCDViewWithNumber
  2841 ;; This function uses a non-reentrant model
  2842 ;;
  2843                           
  2844                           
  2845                           ;psect for function ___fltol
  2846  09D3                     ___fltol:
  2847  09D3                     l2177:	
  2848                           ;incstack = 0
  2849                           ; Regs used in ___fltol: [wreg+status,2+status,0]
  2850                           
  2851  09D3  1003               	clrc
  2852  09D4  1283               	bcf	3,5	;RP0=0, select bank0
  2853  09D5  1303               	bcf	3,6	;RP1=0, select bank0
  2854  09D6  0D37               	rlf	___fltol@f1+2,w
  2855  09D7  0D38               	rlf	___fltol@f1+3,w
  2856  09D8  00B9               	movwf	??___fltol
  2857  09D9  0839               	movf	??___fltol,w
  2858  09DA  00BF               	movwf	___fltol@exp1
  2859  09DB  083F               	movf	___fltol@exp1,w
  2860  09DC  1D03               	btfss	3,2
  2861  09DD  29DF               	goto	u2781
  2862  09DE  29E0               	goto	u2780
  2863  09DF                     u2781:
  2864  09DF  29E9               	goto	l2183
  2865  09E0                     u2780:
  2866  09E0                     l2179:
  2867  09E0  3000               	movlw	0
  2868  09E1  00B8               	movwf	?___fltol+3
  2869  09E2  3000               	movlw	0
  2870  09E3  00B7               	movwf	?___fltol+2
  2871  09E4  3000               	movlw	0
  2872  09E5  00B6               	movwf	?___fltol+1
  2873  09E6  3000               	movlw	0
  2874  09E7  00B5               	movwf	?___fltol
  2875  09E8  2A4E               	goto	l547
  2876  09E9                     l2183:
  2877  09E9  0835               	movf	___fltol@f1,w
  2878  09EA  00B9               	movwf	??___fltol
  2879  09EB  0836               	movf	___fltol@f1+1,w
  2880  09EC  00BA               	movwf	??___fltol+1
  2881  09ED  0837               	movf	___fltol@f1+2,w
  2882  09EE  00BB               	movwf	??___fltol+2
  2883  09EF  0838               	movf	___fltol@f1+3,w
  2884  09F0  00BC               	movwf	??___fltol+3
  2885  09F1  301F               	movlw	31
  2886  09F2                     u2795:
  2887  09F2  1003               	clrc
  2888  09F3  0CBC               	rrf	??___fltol+3,f
  2889  09F4  0CBB               	rrf	??___fltol+2,f
  2890  09F5  0CBA               	rrf	??___fltol+1,f
  2891  09F6  0CB9               	rrf	??___fltol,f
  2892  09F7                     u2790:
  2893  09F7  3EFF               	addlw	-1
  2894  09F8  1D03               	skipz
  2895  09F9  29F2               	goto	u2795
  2896  09FA  0839               	movf	??___fltol,w
  2897  09FB  00BD               	movwf	??___fltol+4
  2898  09FC  083D               	movf	??___fltol+4,w
  2899  09FD  00BE               	movwf	___fltol@sign1
  2900  09FE                     l2185:
  2901  09FE  17B7               	bsf	___fltol@f1+2,7
  2902  09FF                     l2187:
  2903  09FF  30FF               	movlw	255
  2904  0A00  05B5               	andwf	___fltol@f1,f
  2905  0A01  30FF               	movlw	255
  2906  0A02  05B6               	andwf	___fltol@f1+1,f
  2907  0A03  30FF               	movlw	255
  2908  0A04  05B7               	andwf	___fltol@f1+2,f
  2909  0A05  3000               	movlw	0
  2910  0A06  05B8               	andwf	___fltol@f1+3,f
  2911  0A07                     l2189:
  2912  0A07  3096               	movlw	150
  2913  0A08  02BF               	subwf	___fltol@exp1,f
  2914  0A09                     l2191:
  2915  0A09  1FBF               	btfss	___fltol@exp1,7
  2916  0A0A  2A0C               	goto	u2801
  2917  0A0B  2A0D               	goto	u2800
  2918  0A0C                     u2801:
  2919  0A0C  2A27               	goto	l2201
  2920  0A0D                     u2800:
  2921  0A0D                     l2193:
  2922  0A0D  083F               	movf	___fltol@exp1,w
  2923  0A0E  3A80               	xorlw	128
  2924  0A0F  3E97               	addlw	151
  2925  0A10  1803               	skipnc
  2926  0A11  2A13               	goto	u2811
  2927  0A12  2A14               	goto	u2810
  2928  0A13                     u2811:
  2929  0A13  2A15               	goto	l2199
  2930  0A14                     u2810:
  2931  0A14  29E0               	goto	l2179
  2932  0A15                     l2199:
  2933  0A15  3001               	movlw	1
  2934  0A16                     u2825:
  2935  0A16  1003               	clrc
  2936  0A17  0CB8               	rrf	___fltol@f1+3,f
  2937  0A18  0CB7               	rrf	___fltol@f1+2,f
  2938  0A19  0CB6               	rrf	___fltol@f1+1,f
  2939  0A1A  0CB5               	rrf	___fltol@f1,f
  2940  0A1B  3EFF               	addlw	-1
  2941  0A1C  1D03               	skipz
  2942  0A1D  2A16               	goto	u2825
  2943  0A1E  3001               	movlw	1
  2944  0A1F  00B9               	movwf	??___fltol
  2945  0A20  0839               	movf	??___fltol,w
  2946  0A21  07BF               	addwf	___fltol@exp1,f
  2947  0A22  1D03               	btfss	3,2
  2948  0A23  2A25               	goto	u2831
  2949  0A24  2A26               	goto	u2830
  2950  0A25                     u2831:
  2951  0A25  2A15               	goto	l2199
  2952  0A26                     u2830:
  2953  0A26  2A3E               	goto	l2209
  2954  0A27                     l2201:
  2955  0A27  3020               	movlw	32
  2956  0A28  023F               	subwf	___fltol@exp1,w
  2957  0A29  1C03               	skipc
  2958  0A2A  2A2C               	goto	u2841
  2959  0A2B  2A2D               	goto	u2840
  2960  0A2C                     u2841:
  2961  0A2C  2A39               	goto	l554
  2962  0A2D                     u2840:
  2963  0A2D  29E0               	goto	l2179
  2964  0A2E                     l2207:
  2965  0A2E  3001               	movlw	1
  2966  0A2F  00B9               	movwf	??___fltol
  2967  0A30                     u2855:
  2968  0A30  1003               	clrc
  2969  0A31  0DB5               	rlf	___fltol@f1,f
  2970  0A32  0DB6               	rlf	___fltol@f1+1,f
  2971  0A33  0DB7               	rlf	___fltol@f1+2,f
  2972  0A34  0DB8               	rlf	___fltol@f1+3,f
  2973  0A35  0BB9               	decfsz	??___fltol,f
  2974  0A36  2A30               	goto	u2855
  2975  0A37  3001               	movlw	1
  2976  0A38  02BF               	subwf	___fltol@exp1,f
  2977  0A39                     l554:
  2978  0A39  083F               	movf	___fltol@exp1,w
  2979  0A3A  1D03               	btfss	3,2
  2980  0A3B  2A3D               	goto	u2861
  2981  0A3C  2A3E               	goto	u2860
  2982  0A3D                     u2861:
  2983  0A3D  2A2E               	goto	l2207
  2984  0A3E                     u2860:
  2985  0A3E                     l2209:
  2986  0A3E  083E               	movf	___fltol@sign1,w
  2987  0A3F  1903               	btfsc	3,2
  2988  0A40  2A42               	goto	u2871
  2989  0A41  2A43               	goto	u2870
  2990  0A42                     u2871:
  2991  0A42  2A4E               	goto	l557
  2992  0A43                     u2870:
  2993  0A43                     l2211:
  2994  0A43  09B5               	comf	___fltol@f1,f
  2995  0A44  09B6               	comf	___fltol@f1+1,f
  2996  0A45  09B7               	comf	___fltol@f1+2,f
  2997  0A46  09B8               	comf	___fltol@f1+3,f
  2998  0A47  0AB5               	incf	___fltol@f1,f
  2999  0A48  1903               	skipnz
  3000  0A49  0AB6               	incf	___fltol@f1+1,f
  3001  0A4A  1903               	skipnz
  3002  0A4B  0AB7               	incf	___fltol@f1+2,f
  3003  0A4C  1903               	skipnz
  3004  0A4D  0AB8               	incf	___fltol@f1+3,f
  3005  0A4E                     l557:
  3006  0A4E                     l547:
  3007  0A4E  0008               	return
  3008  0A4F                     __end_of___fltol:
  3009                           
  3010                           	psect	text11
  3011  0041                     __ptext11:	
  3012 ;; *************** function ___flmul *****************
  3013 ;; Defined at:
  3014 ;;		line 8 in file "C:\Program Files\Microchip\xc8\v2.32\pic\sources\c90\common\sprcmul.c"
  3015 ;; Parameters:    Size  Location     Type
  3016 ;;  b               4   16[BANK0 ] long 
  3017 ;;  a               4   20[BANK0 ] long 
  3018 ;; Auto vars:     Size  Location     Type
  3019 ;;  prod            4   36[BANK0 ] struct .
  3020 ;;  grs             4   30[BANK0 ] unsigned long 
  3021 ;;  temp            2   40[BANK0 ] struct .
  3022 ;;  bexp            1   35[BANK0 ] unsigned char 
  3023 ;;  aexp            1   34[BANK0 ] unsigned char 
  3024 ;;  sign            1   29[BANK0 ] unsigned char 
  3025 ;; Return value:  Size  Location     Type
  3026 ;;                  4   16[BANK0 ] unsigned char 
  3027 ;; Registers used:
  3028 ;;		wreg, status,2, status,0, btemp+1, pclath, cstack
  3029 ;; Tracked objects:
  3030 ;;		On entry : 0/0
  3031 ;;		On exit  : 0/0
  3032 ;;		Unchanged: 0/0
  3033 ;; Data sizes:     COMMON   BANK0   BANK1   BANK3   BANK2
  3034 ;;      Params:         0       8       0       0       0
  3035 ;;      Locals:         0      13       0       0       0
  3036 ;;      Temps:          0       5       0       0       0
  3037 ;;      Totals:         0      26       0       0       0
  3038 ;;Total ram usage:       26 bytes
  3039 ;; Hardware stack levels used: 1
  3040 ;; Hardware stack levels required when called: 2
  3041 ;; This function calls:
  3042 ;;		__Umul8_16
  3043 ;; This function is called by:
  3044 ;;		_ReadTemperature
  3045 ;;		_UpdateLCDViewWithNumber
  3046 ;; This function uses a non-reentrant model
  3047 ;;
  3048                           
  3049                           
  3050                           ;psect for function ___flmul
  3051  0041                     ___flmul:
  3052  0041                     l2361:	
  3053                           ;incstack = 0
  3054                           ; Regs used in ___flmul: [wreg+status,2+status,0+btemp+1+pclath+cstack]
  3055                           
  3056  0041  1283               	bcf	3,5	;RP0=0, select bank0
  3057  0042  1303               	bcf	3,6	;RP1=0, select bank0
  3058  0043  0833               	movf	___flmul@b+3,w
  3059  0044  3980               	andlw	128
  3060  0045  00B8               	movwf	??___flmul
  3061  0046  0838               	movf	??___flmul,w
  3062  0047  00BD               	movwf	___flmul@sign
  3063  0048                     l2363:
  3064  0048  0833               	movf	___flmul@b+3,w
  3065  0049  00B8               	movwf	??___flmul
  3066  004A  0738               	addwf	??___flmul,w
  3067  004B  00B9               	movwf	??___flmul+1
  3068  004C  0839               	movf	??___flmul+1,w
  3069  004D  00C3               	movwf	___flmul@bexp
  3070  004E                     l2365:
  3071  004E  1FB2               	btfss	___flmul@b+2,7
  3072  004F  2851               	goto	u3181
  3073  0050  2852               	goto	u3180
  3074  0051                     u3181:
  3075  0051  2853               	goto	l2369
  3076  0052                     u3180:
  3077  0052                     l2367:
  3078  0052  1443               	bsf	___flmul@bexp,0
  3079  0053                     l2369:
  3080  0053  0843               	movf	___flmul@bexp,w
  3081  0054  1903               	btfsc	3,2
  3082  0055  2857               	goto	u3191
  3083  0056  2858               	goto	u3190
  3084  0057                     u3191:
  3085  0057  2867               	goto	l2377
  3086  0058                     u3190:
  3087  0058                     l2371:
  3088  0058  0A43               	incf	___flmul@bexp,w
  3089  0059  1D03               	btfss	3,2
  3090  005A  285C               	goto	u3201
  3091  005B  285D               	goto	u3200
  3092  005C                     u3201:
  3093  005C  2865               	goto	l2375
  3094  005D                     u3200:
  3095  005D                     l2373:
  3096  005D  3000               	movlw	0
  3097  005E  00B3               	movwf	___flmul@b+3
  3098  005F  3000               	movlw	0
  3099  0060  00B2               	movwf	___flmul@b+2
  3100  0061  3000               	movlw	0
  3101  0062  00B1               	movwf	___flmul@b+1
  3102  0063  3000               	movlw	0
  3103  0064  00B0               	movwf	___flmul@b
  3104  0065                     l2375:
  3105  0065  17B2               	bsf	___flmul@b+2,7
  3106  0066  286F               	goto	l2379
  3107  0067                     l2377:
  3108  0067  3000               	movlw	0
  3109  0068  00B3               	movwf	___flmul@b+3
  3110  0069  3000               	movlw	0
  3111  006A  00B2               	movwf	___flmul@b+2
  3112  006B  3000               	movlw	0
  3113  006C  00B1               	movwf	___flmul@b+1
  3114  006D  3000               	movlw	0
  3115  006E  00B0               	movwf	___flmul@b
  3116  006F                     l2379:
  3117  006F  0837               	movf	___flmul@a+3,w
  3118  0070  3980               	andlw	128
  3119  0071  00B8               	movwf	??___flmul
  3120  0072  0838               	movf	??___flmul,w
  3121  0073  06BD               	xorwf	___flmul@sign,f
  3122  0074                     l2381:
  3123  0074  0837               	movf	___flmul@a+3,w
  3124  0075  00B8               	movwf	??___flmul
  3125  0076  0738               	addwf	??___flmul,w
  3126  0077  00B9               	movwf	??___flmul+1
  3127  0078  0839               	movf	??___flmul+1,w
  3128  0079  00C2               	movwf	___flmul@aexp
  3129  007A                     l2383:
  3130  007A  1FB6               	btfss	___flmul@a+2,7
  3131  007B  287D               	goto	u3211
  3132  007C  287E               	goto	u3210
  3133  007D                     u3211:
  3134  007D  287F               	goto	l2387
  3135  007E                     u3210:
  3136  007E                     l2385:
  3137  007E  1442               	bsf	___flmul@aexp,0
  3138  007F                     l2387:
  3139  007F  0842               	movf	___flmul@aexp,w
  3140  0080  1903               	btfsc	3,2
  3141  0081  2883               	goto	u3221
  3142  0082  2884               	goto	u3220
  3143  0083                     u3221:
  3144  0083  2893               	goto	l2395
  3145  0084                     u3220:
  3146  0084                     l2389:
  3147  0084  0A42               	incf	___flmul@aexp,w
  3148  0085  1D03               	btfss	3,2
  3149  0086  2888               	goto	u3231
  3150  0087  2889               	goto	u3230
  3151  0088                     u3231:
  3152  0088  2891               	goto	l2393
  3153  0089                     u3230:
  3154  0089                     l2391:
  3155  0089  3000               	movlw	0
  3156  008A  00B7               	movwf	___flmul@a+3
  3157  008B  3000               	movlw	0
  3158  008C  00B6               	movwf	___flmul@a+2
  3159  008D  3000               	movlw	0
  3160  008E  00B5               	movwf	___flmul@a+1
  3161  008F  3000               	movlw	0
  3162  0090  00B4               	movwf	___flmul@a
  3163  0091                     l2393:
  3164  0091  17B6               	bsf	___flmul@a+2,7
  3165  0092  289B               	goto	l2397
  3166  0093                     l2395:
  3167  0093  3000               	movlw	0
  3168  0094  00B7               	movwf	___flmul@a+3
  3169  0095  3000               	movlw	0
  3170  0096  00B6               	movwf	___flmul@a+2
  3171  0097  3000               	movlw	0
  3172  0098  00B5               	movwf	___flmul@a+1
  3173  0099  3000               	movlw	0
  3174  009A  00B4               	movwf	___flmul@a
  3175  009B                     l2397:
  3176  009B  0842               	movf	___flmul@aexp,w
  3177  009C  1903               	btfsc	3,2
  3178  009D  289F               	goto	u3241
  3179  009E  28A0               	goto	u3240
  3180  009F                     u3241:
  3181  009F  28A5               	goto	l2401
  3182  00A0                     u3240:
  3183  00A0                     l2399:
  3184  00A0  0843               	movf	___flmul@bexp,w
  3185  00A1  1D03               	btfss	3,2
  3186  00A2  28A4               	goto	u3251
  3187  00A3  28A5               	goto	u3250
  3188  00A4                     u3251:
  3189  00A4  28AE               	goto	l2405
  3190  00A5                     u3250:
  3191  00A5                     l2401:
  3192  00A5  3000               	movlw	0
  3193  00A6  00B3               	movwf	?___flmul+3
  3194  00A7  3000               	movlw	0
  3195  00A8  00B2               	movwf	?___flmul+2
  3196  00A9  3000               	movlw	0
  3197  00AA  00B1               	movwf	?___flmul+1
  3198  00AB  3000               	movlw	0
  3199  00AC  00B0               	movwf	?___flmul
  3200  00AD  2BA1               	goto	l750
  3201  00AE                     l2405:
  3202  00AE  0830               	movf	___flmul@b,w
  3203  00AF  00B8               	movwf	??___flmul
  3204  00B0  0838               	movf	??___flmul,w
  3205  00B1  00F3               	movwf	__Umul8_16@multiplicand
  3206  00B2  0836               	movf	___flmul@a+2,w
  3207  00B3  160A  118A  25DA  120A  118A  	fcall	__Umul8_16
  3208  00B8  0874               	movf	?__Umul8_16+1,w
  3209  00B9  1283               	bcf	3,5	;RP0=0, select bank0
  3210  00BA  1303               	bcf	3,6	;RP1=0, select bank0
  3211  00BB  00C9               	movwf	___flmul@temp+1
  3212  00BC  0873               	movf	?__Umul8_16,w
  3213  00BD  00C8               	movwf	___flmul@temp
  3214  00BE                     l2407:
  3215  00BE  0848               	movf	___flmul@temp,w
  3216  00BF  00B8               	movwf	??___flmul
  3217  00C0  01B9               	clrf	??___flmul+1
  3218  00C1  01BA               	clrf	??___flmul+2
  3219  00C2  01BB               	clrf	??___flmul+3
  3220  00C3  083B               	movf	??___flmul+3,w
  3221  00C4  00C1               	movwf	___flmul@grs+3
  3222  00C5  083A               	movf	??___flmul+2,w
  3223  00C6  00C0               	movwf	___flmul@grs+2
  3224  00C7  0839               	movf	??___flmul+1,w
  3225  00C8  00BF               	movwf	___flmul@grs+1
  3226  00C9  0838               	movf	??___flmul,w
  3227  00CA  00BE               	movwf	___flmul@grs
  3228  00CB                     l2409:
  3229  00CB  0849               	movf	___flmul@temp+1,w
  3230  00CC  00B8               	movwf	??___flmul
  3231  00CD  01B9               	clrf	??___flmul+1
  3232  00CE  01BA               	clrf	??___flmul+2
  3233  00CF  01BB               	clrf	??___flmul+3
  3234  00D0  083B               	movf	??___flmul+3,w
  3235  00D1  00C7               	movwf	___flmul@prod+3
  3236  00D2  083A               	movf	??___flmul+2,w
  3237  00D3  00C6               	movwf	___flmul@prod+2
  3238  00D4  0839               	movf	??___flmul+1,w
  3239  00D5  00C5               	movwf	___flmul@prod+1
  3240  00D6  0838               	movf	??___flmul,w
  3241  00D7  00C4               	movwf	___flmul@prod
  3242  00D8  0831               	movf	___flmul@b+1,w
  3243  00D9  00B8               	movwf	??___flmul
  3244  00DA  0838               	movf	??___flmul,w
  3245  00DB  00F3               	movwf	__Umul8_16@multiplicand
  3246  00DC  0835               	movf	___flmul@a+1,w
  3247  00DD  160A  118A  25DA  120A  118A  	fcall	__Umul8_16
  3248  00E2  0874               	movf	?__Umul8_16+1,w
  3249  00E3  1283               	bcf	3,5	;RP0=0, select bank0
  3250  00E4  1303               	bcf	3,6	;RP1=0, select bank0
  3251  00E5  00C9               	movwf	___flmul@temp+1
  3252  00E6  0873               	movf	?__Umul8_16,w
  3253  00E7  00C8               	movwf	___flmul@temp
  3254  00E8                     l2411:
  3255  00E8  0848               	movf	___flmul@temp,w
  3256  00E9  00B8               	movwf	??___flmul
  3257  00EA  01B9               	clrf	??___flmul+1
  3258  00EB  01BA               	clrf	??___flmul+2
  3259  00EC  01BB               	clrf	??___flmul+3
  3260  00ED  0838               	movf	??___flmul,w
  3261  00EE  07BE               	addwf	___flmul@grs,f
  3262  00EF  0839               	movf	??___flmul+1,w
  3263  00F0  1103               	clrz
  3264  00F1  1803               	skipnc
  3265  00F2  3E01               	addlw	1
  3266  00F3  1903               	skipnz
  3267  00F4  28F6               	goto	u3261
  3268  00F5  07BF               	addwf	___flmul@grs+1,f
  3269  00F6                     u3261:
  3270  00F6  083A               	movf	??___flmul+2,w
  3271  00F7  1103               	clrz
  3272  00F8  1803               	skipnc
  3273  00F9  3E01               	addlw	1
  3274  00FA  1903               	skipnz
  3275  00FB  28FD               	goto	u3262
  3276  00FC  07C0               	addwf	___flmul@grs+2,f
  3277  00FD                     u3262:
  3278  00FD  083B               	movf	??___flmul+3,w
  3279  00FE  1103               	clrz
  3280  00FF  1803               	skipnc
  3281  0100  3E01               	addlw	1
  3282  0101  1903               	skipnz
  3283  0102  2904               	goto	u3263
  3284  0103  07C1               	addwf	___flmul@grs+3,f
  3285  0104                     u3263:
  3286  0104                     l2413:
  3287  0104  0849               	movf	___flmul@temp+1,w
  3288  0105  00B8               	movwf	??___flmul
  3289  0106  01B9               	clrf	??___flmul+1
  3290  0107  01BA               	clrf	??___flmul+2
  3291  0108  01BB               	clrf	??___flmul+3
  3292  0109  0838               	movf	??___flmul,w
  3293  010A  07C4               	addwf	___flmul@prod,f
  3294  010B  0839               	movf	??___flmul+1,w
  3295  010C  1103               	clrz
  3296  010D  1803               	skipnc
  3297  010E  3E01               	addlw	1
  3298  010F  1903               	skipnz
  3299  0110  2912               	goto	u3271
  3300  0111  07C5               	addwf	___flmul@prod+1,f
  3301  0112                     u3271:
  3302  0112  083A               	movf	??___flmul+2,w
  3303  0113  1103               	clrz
  3304  0114  1803               	skipnc
  3305  0115  3E01               	addlw	1
  3306  0116  1903               	skipnz
  3307  0117  2919               	goto	u3272
  3308  0118  07C6               	addwf	___flmul@prod+2,f
  3309  0119                     u3272:
  3310  0119  083B               	movf	??___flmul+3,w
  3311  011A  1103               	clrz
  3312  011B  1803               	skipnc
  3313  011C  3E01               	addlw	1
  3314  011D  1903               	skipnz
  3315  011E  2920               	goto	u3273
  3316  011F  07C7               	addwf	___flmul@prod+3,f
  3317  0120                     u3273:
  3318  0120  0832               	movf	___flmul@b+2,w
  3319  0121  00B8               	movwf	??___flmul
  3320  0122  0838               	movf	??___flmul,w
  3321  0123  00F3               	movwf	__Umul8_16@multiplicand
  3322  0124  0834               	movf	___flmul@a,w
  3323  0125  160A  118A  25DA  120A  118A  	fcall	__Umul8_16
  3324  012A  0874               	movf	?__Umul8_16+1,w
  3325  012B  1283               	bcf	3,5	;RP0=0, select bank0
  3326  012C  1303               	bcf	3,6	;RP1=0, select bank0
  3327  012D  00C9               	movwf	___flmul@temp+1
  3328  012E  0873               	movf	?__Umul8_16,w
  3329  012F  00C8               	movwf	___flmul@temp
  3330  0130                     l2415:
  3331  0130  0848               	movf	___flmul@temp,w
  3332  0131  00B8               	movwf	??___flmul
  3333  0132  01B9               	clrf	??___flmul+1
  3334  0133  01BA               	clrf	??___flmul+2
  3335  0134  01BB               	clrf	??___flmul+3
  3336  0135  0838               	movf	??___flmul,w
  3337  0136  07BE               	addwf	___flmul@grs,f
  3338  0137  0839               	movf	??___flmul+1,w
  3339  0138  1103               	clrz
  3340  0139  1803               	skipnc
  3341  013A  3E01               	addlw	1
  3342  013B  1903               	skipnz
  3343  013C  293E               	goto	u3281
  3344  013D  07BF               	addwf	___flmul@grs+1,f
  3345  013E                     u3281:
  3346  013E  083A               	movf	??___flmul+2,w
  3347  013F  1103               	clrz
  3348  0140  1803               	skipnc
  3349  0141  3E01               	addlw	1
  3350  0142  1903               	skipnz
  3351  0143  2945               	goto	u3282
  3352  0144  07C0               	addwf	___flmul@grs+2,f
  3353  0145                     u3282:
  3354  0145  083B               	movf	??___flmul+3,w
  3355  0146  1103               	clrz
  3356  0147  1803               	skipnc
  3357  0148  3E01               	addlw	1
  3358  0149  1903               	skipnz
  3359  014A  294C               	goto	u3283
  3360  014B  07C1               	addwf	___flmul@grs+3,f
  3361  014C                     u3283:
  3362  014C                     l2417:
  3363  014C  0849               	movf	___flmul@temp+1,w
  3364  014D  00B8               	movwf	??___flmul
  3365  014E  01B9               	clrf	??___flmul+1
  3366  014F  01BA               	clrf	??___flmul+2
  3367  0150  01BB               	clrf	??___flmul+3
  3368  0151  0838               	movf	??___flmul,w
  3369  0152  07C4               	addwf	___flmul@prod,f
  3370  0153  0839               	movf	??___flmul+1,w
  3371  0154  1103               	clrz
  3372  0155  1803               	skipnc
  3373  0156  3E01               	addlw	1
  3374  0157  1903               	skipnz
  3375  0158  295A               	goto	u3291
  3376  0159  07C5               	addwf	___flmul@prod+1,f
  3377  015A                     u3291:
  3378  015A  083A               	movf	??___flmul+2,w
  3379  015B  1103               	clrz
  3380  015C  1803               	skipnc
  3381  015D  3E01               	addlw	1
  3382  015E  1903               	skipnz
  3383  015F  2961               	goto	u3292
  3384  0160  07C6               	addwf	___flmul@prod+2,f
  3385  0161                     u3292:
  3386  0161  083B               	movf	??___flmul+3,w
  3387  0162  1103               	clrz
  3388  0163  1803               	skipnc
  3389  0164  3E01               	addlw	1
  3390  0165  1903               	skipnz
  3391  0166  2968               	goto	u3293
  3392  0167  07C7               	addwf	___flmul@prod+3,f
  3393  0168                     u3293:
  3394  0168                     l2419:
  3395  0168  3008               	movlw	8
  3396  0169  00B8               	movwf	??___flmul
  3397  016A                     u3305:
  3398  016A  1003               	clrc
  3399  016B  0DBE               	rlf	___flmul@grs,f
  3400  016C  0DBF               	rlf	___flmul@grs+1,f
  3401  016D  0DC0               	rlf	___flmul@grs+2,f
  3402  016E  0DC1               	rlf	___flmul@grs+3,f
  3403  016F  0BB8               	decfsz	??___flmul,f
  3404  0170  296A               	goto	u3305
  3405  0171                     l2421:
  3406  0171  0831               	movf	___flmul@b+1,w
  3407  0172  00B8               	movwf	??___flmul
  3408  0173  0838               	movf	??___flmul,w
  3409  0174  00F3               	movwf	__Umul8_16@multiplicand
  3410  0175  0834               	movf	___flmul@a,w
  3411  0176  160A  118A  25DA  120A  118A  	fcall	__Umul8_16
  3412  017B  0874               	movf	?__Umul8_16+1,w
  3413  017C  1283               	bcf	3,5	;RP0=0, select bank0
  3414  017D  1303               	bcf	3,6	;RP1=0, select bank0
  3415  017E  00C9               	movwf	___flmul@temp+1
  3416  017F  0873               	movf	?__Umul8_16,w
  3417  0180  00C8               	movwf	___flmul@temp
  3418  0181                     l2423:
  3419  0181  0848               	movf	___flmul@temp,w
  3420  0182  00B8               	movwf	??___flmul
  3421  0183  0849               	movf	___flmul@temp+1,w
  3422  0184  00B9               	movwf	??___flmul+1
  3423  0185  01BA               	clrf	??___flmul+2
  3424  0186  01BB               	clrf	??___flmul+3
  3425  0187  0838               	movf	??___flmul,w
  3426  0188  07BE               	addwf	___flmul@grs,f
  3427  0189  0839               	movf	??___flmul+1,w
  3428  018A  1103               	clrz
  3429  018B  1803               	skipnc
  3430  018C  3E01               	addlw	1
  3431  018D  1903               	skipnz
  3432  018E  2990               	goto	u3311
  3433  018F  07BF               	addwf	___flmul@grs+1,f
  3434  0190                     u3311:
  3435  0190  083A               	movf	??___flmul+2,w
  3436  0191  1103               	clrz
  3437  0192  1803               	skipnc
  3438  0193  3E01               	addlw	1
  3439  0194  1903               	skipnz
  3440  0195  2997               	goto	u3312
  3441  0196  07C0               	addwf	___flmul@grs+2,f
  3442  0197                     u3312:
  3443  0197  083B               	movf	??___flmul+3,w
  3444  0198  1103               	clrz
  3445  0199  1803               	skipnc
  3446  019A  3E01               	addlw	1
  3447  019B  1903               	skipnz
  3448  019C  299E               	goto	u3313
  3449  019D  07C1               	addwf	___flmul@grs+3,f
  3450  019E                     u3313:
  3451  019E                     l2425:
  3452  019E  0830               	movf	___flmul@b,w
  3453  019F  00B8               	movwf	??___flmul
  3454  01A0  0838               	movf	??___flmul,w
  3455  01A1  00F3               	movwf	__Umul8_16@multiplicand
  3456  01A2  0835               	movf	___flmul@a+1,w
  3457  01A3  160A  118A  25DA  120A  118A  	fcall	__Umul8_16
  3458  01A8  0874               	movf	?__Umul8_16+1,w
  3459  01A9  1283               	bcf	3,5	;RP0=0, select bank0
  3460  01AA  1303               	bcf	3,6	;RP1=0, select bank0
  3461  01AB  00C9               	movwf	___flmul@temp+1
  3462  01AC  0873               	movf	?__Umul8_16,w
  3463  01AD  00C8               	movwf	___flmul@temp
  3464  01AE                     l2427:
  3465  01AE  0848               	movf	___flmul@temp,w
  3466  01AF  00B8               	movwf	??___flmul
  3467  01B0  0849               	movf	___flmul@temp+1,w
  3468  01B1  00B9               	movwf	??___flmul+1
  3469  01B2  01BA               	clrf	??___flmul+2
  3470  01B3  01BB               	clrf	??___flmul+3
  3471  01B4  0838               	movf	??___flmul,w
  3472  01B5  07BE               	addwf	___flmul@grs,f
  3473  01B6  0839               	movf	??___flmul+1,w
  3474  01B7  1103               	clrz
  3475  01B8  1803               	skipnc
  3476  01B9  3E01               	addlw	1
  3477  01BA  1903               	skipnz
  3478  01BB  29BD               	goto	u3321
  3479  01BC  07BF               	addwf	___flmul@grs+1,f
  3480  01BD                     u3321:
  3481  01BD  083A               	movf	??___flmul+2,w
  3482  01BE  1103               	clrz
  3483  01BF  1803               	skipnc
  3484  01C0  3E01               	addlw	1
  3485  01C1  1903               	skipnz
  3486  01C2  29C4               	goto	u3322
  3487  01C3  07C0               	addwf	___flmul@grs+2,f
  3488  01C4                     u3322:
  3489  01C4  083B               	movf	??___flmul+3,w
  3490  01C5  1103               	clrz
  3491  01C6  1803               	skipnc
  3492  01C7  3E01               	addlw	1
  3493  01C8  1903               	skipnz
  3494  01C9  29CB               	goto	u3323
  3495  01CA  07C1               	addwf	___flmul@grs+3,f
  3496  01CB                     u3323:
  3497  01CB                     l2429:
  3498  01CB  3008               	movlw	8
  3499  01CC  00B8               	movwf	??___flmul
  3500  01CD                     u3335:
  3501  01CD  1003               	clrc
  3502  01CE  0DBE               	rlf	___flmul@grs,f
  3503  01CF  0DBF               	rlf	___flmul@grs+1,f
  3504  01D0  0DC0               	rlf	___flmul@grs+2,f
  3505  01D1  0DC1               	rlf	___flmul@grs+3,f
  3506  01D2  0BB8               	decfsz	??___flmul,f
  3507  01D3  29CD               	goto	u3335
  3508  01D4  0830               	movf	___flmul@b,w
  3509  01D5  00B8               	movwf	??___flmul
  3510  01D6  0838               	movf	??___flmul,w
  3511  01D7  00F3               	movwf	__Umul8_16@multiplicand
  3512  01D8  0834               	movf	___flmul@a,w
  3513  01D9  160A  118A  25DA  120A  118A  	fcall	__Umul8_16
  3514  01DE  0874               	movf	?__Umul8_16+1,w
  3515  01DF  1283               	bcf	3,5	;RP0=0, select bank0
  3516  01E0  1303               	bcf	3,6	;RP1=0, select bank0
  3517  01E1  00C9               	movwf	___flmul@temp+1
  3518  01E2  0873               	movf	?__Umul8_16,w
  3519  01E3  00C8               	movwf	___flmul@temp
  3520  01E4                     l2431:
  3521  01E4  0848               	movf	___flmul@temp,w
  3522  01E5  00B8               	movwf	??___flmul
  3523  01E6  0849               	movf	___flmul@temp+1,w
  3524  01E7  00B9               	movwf	??___flmul+1
  3525  01E8  01BA               	clrf	??___flmul+2
  3526  01E9  01BB               	clrf	??___flmul+3
  3527  01EA  0838               	movf	??___flmul,w
  3528  01EB  07BE               	addwf	___flmul@grs,f
  3529  01EC  0839               	movf	??___flmul+1,w
  3530  01ED  1103               	clrz
  3531  01EE  1803               	skipnc
  3532  01EF  3E01               	addlw	1
  3533  01F0  1903               	skipnz
  3534  01F1  29F3               	goto	u3341
  3535  01F2  07BF               	addwf	___flmul@grs+1,f
  3536  01F3                     u3341:
  3537  01F3  083A               	movf	??___flmul+2,w
  3538  01F4  1103               	clrz
  3539  01F5  1803               	skipnc
  3540  01F6  3E01               	addlw	1
  3541  01F7  1903               	skipnz
  3542  01F8  29FA               	goto	u3342
  3543  01F9  07C0               	addwf	___flmul@grs+2,f
  3544  01FA                     u3342:
  3545  01FA  083B               	movf	??___flmul+3,w
  3546  01FB  1103               	clrz
  3547  01FC  1803               	skipnc
  3548  01FD  3E01               	addlw	1
  3549  01FE  1903               	skipnz
  3550  01FF  2A01               	goto	u3343
  3551  0200  07C1               	addwf	___flmul@grs+3,f
  3552  0201                     u3343:
  3553  0201                     l2433:
  3554  0201  0831               	movf	___flmul@b+1,w
  3555  0202  00B8               	movwf	??___flmul
  3556  0203  0838               	movf	??___flmul,w
  3557  0204  00F3               	movwf	__Umul8_16@multiplicand
  3558  0205  0836               	movf	___flmul@a+2,w
  3559  0206  160A  118A  25DA  120A  118A  	fcall	__Umul8_16
  3560  020B  0874               	movf	?__Umul8_16+1,w
  3561  020C  1283               	bcf	3,5	;RP0=0, select bank0
  3562  020D  1303               	bcf	3,6	;RP1=0, select bank0
  3563  020E  00C9               	movwf	___flmul@temp+1
  3564  020F  0873               	movf	?__Umul8_16,w
  3565  0210  00C8               	movwf	___flmul@temp
  3566  0211  0848               	movf	___flmul@temp,w
  3567  0212  00B8               	movwf	??___flmul
  3568  0213  0849               	movf	___flmul@temp+1,w
  3569  0214  00B9               	movwf	??___flmul+1
  3570  0215  01BA               	clrf	??___flmul+2
  3571  0216  01BB               	clrf	??___flmul+3
  3572  0217  0838               	movf	??___flmul,w
  3573  0218  07C4               	addwf	___flmul@prod,f
  3574  0219  0839               	movf	??___flmul+1,w
  3575  021A  1103               	clrz
  3576  021B  1803               	skipnc
  3577  021C  3E01               	addlw	1
  3578  021D  1903               	skipnz
  3579  021E  2A20               	goto	u3351
  3580  021F  07C5               	addwf	___flmul@prod+1,f
  3581  0220                     u3351:
  3582  0220  083A               	movf	??___flmul+2,w
  3583  0221  1103               	clrz
  3584  0222  1803               	skipnc
  3585  0223  3E01               	addlw	1
  3586  0224  1903               	skipnz
  3587  0225  2A27               	goto	u3352
  3588  0226  07C6               	addwf	___flmul@prod+2,f
  3589  0227                     u3352:
  3590  0227  083B               	movf	??___flmul+3,w
  3591  0228  1103               	clrz
  3592  0229  1803               	skipnc
  3593  022A  3E01               	addlw	1
  3594  022B  1903               	skipnz
  3595  022C  2A2E               	goto	u3353
  3596  022D  07C7               	addwf	___flmul@prod+3,f
  3597  022E                     u3353:
  3598  022E                     l2435:
  3599  022E  0832               	movf	___flmul@b+2,w
  3600  022F  00B8               	movwf	??___flmul
  3601  0230  0838               	movf	??___flmul,w
  3602  0231  00F3               	movwf	__Umul8_16@multiplicand
  3603  0232  0835               	movf	___flmul@a+1,w
  3604  0233  160A  118A  25DA  120A  118A  	fcall	__Umul8_16
  3605  0238  0874               	movf	?__Umul8_16+1,w
  3606  0239  1283               	bcf	3,5	;RP0=0, select bank0
  3607  023A  1303               	bcf	3,6	;RP1=0, select bank0
  3608  023B  00C9               	movwf	___flmul@temp+1
  3609  023C  0873               	movf	?__Umul8_16,w
  3610  023D  00C8               	movwf	___flmul@temp
  3611  023E                     l2437:
  3612  023E  0848               	movf	___flmul@temp,w
  3613  023F  00B8               	movwf	??___flmul
  3614  0240  0849               	movf	___flmul@temp+1,w
  3615  0241  00B9               	movwf	??___flmul+1
  3616  0242  01BA               	clrf	??___flmul+2
  3617  0243  01BB               	clrf	??___flmul+3
  3618  0244  0838               	movf	??___flmul,w
  3619  0245  07C4               	addwf	___flmul@prod,f
  3620  0246  0839               	movf	??___flmul+1,w
  3621  0247  1103               	clrz
  3622  0248  1803               	skipnc
  3623  0249  3E01               	addlw	1
  3624  024A  1903               	skipnz
  3625  024B  2A4D               	goto	u3361
  3626  024C  07C5               	addwf	___flmul@prod+1,f
  3627  024D                     u3361:
  3628  024D  083A               	movf	??___flmul+2,w
  3629  024E  1103               	clrz
  3630  024F  1803               	skipnc
  3631  0250  3E01               	addlw	1
  3632  0251  1903               	skipnz
  3633  0252  2A54               	goto	u3362
  3634  0253  07C6               	addwf	___flmul@prod+2,f
  3635  0254                     u3362:
  3636  0254  083B               	movf	??___flmul+3,w
  3637  0255  1103               	clrz
  3638  0256  1803               	skipnc
  3639  0257  3E01               	addlw	1
  3640  0258  1903               	skipnz
  3641  0259  2A5B               	goto	u3363
  3642  025A  07C7               	addwf	___flmul@prod+3,f
  3643  025B                     u3363:
  3644  025B  0832               	movf	___flmul@b+2,w
  3645  025C  00B8               	movwf	??___flmul
  3646  025D  0838               	movf	??___flmul,w
  3647  025E  00F3               	movwf	__Umul8_16@multiplicand
  3648  025F  0836               	movf	___flmul@a+2,w
  3649  0260  160A  118A  25DA  120A  118A  	fcall	__Umul8_16
  3650  0265  0874               	movf	?__Umul8_16+1,w
  3651  0266  1283               	bcf	3,5	;RP0=0, select bank0
  3652  0267  1303               	bcf	3,6	;RP1=0, select bank0
  3653  0268  00C9               	movwf	___flmul@temp+1
  3654  0269  0873               	movf	?__Umul8_16,w
  3655  026A  00C8               	movwf	___flmul@temp
  3656  026B                     l2439:
  3657  026B  0848               	movf	___flmul@temp,w
  3658  026C  00B8               	movwf	??___flmul
  3659  026D  0849               	movf	___flmul@temp+1,w
  3660  026E  00B9               	movwf	??___flmul+1
  3661  026F  01BA               	clrf	??___flmul+2
  3662  0270  01BB               	clrf	??___flmul+3
  3663  0271  3008               	movlw	8
  3664  0272                     u3375:
  3665  0272  1003               	clrc
  3666  0273  0DB8               	rlf	??___flmul,f
  3667  0274  0DB9               	rlf	??___flmul+1,f
  3668  0275  0DBA               	rlf	??___flmul+2,f
  3669  0276  0DBB               	rlf	??___flmul+3,f
  3670  0277                     u3370:
  3671  0277  3EFF               	addlw	-1
  3672  0278  1D03               	skipz
  3673  0279  2A72               	goto	u3375
  3674  027A  0838               	movf	??___flmul,w
  3675  027B  07C4               	addwf	___flmul@prod,f
  3676  027C  0839               	movf	??___flmul+1,w
  3677  027D  1103               	clrz
  3678  027E  1803               	skipnc
  3679  027F  3E01               	addlw	1
  3680  0280  1903               	skipnz
  3681  0281  2A83               	goto	u3381
  3682  0282  07C5               	addwf	___flmul@prod+1,f
  3683  0283                     u3381:
  3684  0283  083A               	movf	??___flmul+2,w
  3685  0284  1103               	clrz
  3686  0285  1803               	skipnc
  3687  0286  3E01               	addlw	1
  3688  0287  1903               	skipnz
  3689  0288  2A8A               	goto	u3382
  3690  0289  07C6               	addwf	___flmul@prod+2,f
  3691  028A                     u3382:
  3692  028A  083B               	movf	??___flmul+3,w
  3693  028B  1103               	clrz
  3694  028C  1803               	skipnc
  3695  028D  3E01               	addlw	1
  3696  028E  1903               	skipnz
  3697  028F  2A91               	goto	u3383
  3698  0290  07C7               	addwf	___flmul@prod+3,f
  3699  0291                     u3383:
  3700  0291                     l2441:
  3701  0291  083E               	movf	___flmul@grs,w
  3702  0292  00B8               	movwf	??___flmul
  3703  0293  083F               	movf	___flmul@grs+1,w
  3704  0294  00B9               	movwf	??___flmul+1
  3705  0295  0840               	movf	___flmul@grs+2,w
  3706  0296  00BA               	movwf	??___flmul+2
  3707  0297  0841               	movf	___flmul@grs+3,w
  3708  0298  00BB               	movwf	??___flmul+3
  3709  0299  3018               	movlw	24
  3710  029A                     u3395:
  3711  029A  1003               	clrc
  3712  029B  0CBB               	rrf	??___flmul+3,f
  3713  029C  0CBA               	rrf	??___flmul+2,f
  3714  029D  0CB9               	rrf	??___flmul+1,f
  3715  029E  0CB8               	rrf	??___flmul,f
  3716  029F                     u3390:
  3717  029F  3EFF               	addlw	-1
  3718  02A0  1D03               	skipz
  3719  02A1  2A9A               	goto	u3395
  3720  02A2  0838               	movf	??___flmul,w
  3721  02A3  07C4               	addwf	___flmul@prod,f
  3722  02A4  0839               	movf	??___flmul+1,w
  3723  02A5  1103               	clrz
  3724  02A6  1803               	skipnc
  3725  02A7  3E01               	addlw	1
  3726  02A8  1903               	skipnz
  3727  02A9  2AAB               	goto	u3401
  3728  02AA  07C5               	addwf	___flmul@prod+1,f
  3729  02AB                     u3401:
  3730  02AB  083A               	movf	??___flmul+2,w
  3731  02AC  1103               	clrz
  3732  02AD  1803               	skipnc
  3733  02AE  3E01               	addlw	1
  3734  02AF  1903               	skipnz
  3735  02B0  2AB2               	goto	u3402
  3736  02B1  07C6               	addwf	___flmul@prod+2,f
  3737  02B2                     u3402:
  3738  02B2  083B               	movf	??___flmul+3,w
  3739  02B3  1103               	clrz
  3740  02B4  1803               	skipnc
  3741  02B5  3E01               	addlw	1
  3742  02B6  1903               	skipnz
  3743  02B7  2AB9               	goto	u3403
  3744  02B8  07C7               	addwf	___flmul@prod+3,f
  3745  02B9                     u3403:
  3746  02B9                     l2443:
  3747  02B9  3008               	movlw	8
  3748  02BA  00B8               	movwf	??___flmul
  3749  02BB                     u3415:
  3750  02BB  1003               	clrc
  3751  02BC  0DBE               	rlf	___flmul@grs,f
  3752  02BD  0DBF               	rlf	___flmul@grs+1,f
  3753  02BE  0DC0               	rlf	___flmul@grs+2,f
  3754  02BF  0DC1               	rlf	___flmul@grs+3,f
  3755  02C0  0BB8               	decfsz	??___flmul,f
  3756  02C1  2ABB               	goto	u3415
  3757  02C2                     l2445:
  3758  02C2  0843               	movf	___flmul@bexp,w
  3759  02C3  0742               	addwf	___flmul@aexp,w
  3760  02C4  00B8               	movwf	??___flmul
  3761  02C5  01B9               	clrf	??___flmul+1
  3762  02C6  0DB9               	rlf	??___flmul+1,f
  3763  02C7  0838               	movf	??___flmul,w
  3764  02C8  3E82               	addlw	130
  3765  02C9  00C8               	movwf	___flmul@temp
  3766  02CA  0839               	movf	??___flmul+1,w
  3767  02CB  1803               	skipnc
  3768  02CC  3E01               	addlw	1
  3769  02CD  3EFF               	addlw	255
  3770  02CE  00C9               	movwf	___flmul@temp+1
  3771  02CF  2AED               	goto	l2457
  3772  02D0                     l2447:
  3773  02D0  3001               	movlw	1
  3774  02D1  00B8               	movwf	??___flmul
  3775  02D2                     u3425:
  3776  02D2  1003               	clrc
  3777  02D3  0DC4               	rlf	___flmul@prod,f
  3778  02D4  0DC5               	rlf	___flmul@prod+1,f
  3779  02D5  0DC6               	rlf	___flmul@prod+2,f
  3780  02D6  0DC7               	rlf	___flmul@prod+3,f
  3781  02D7  0BB8               	decfsz	??___flmul,f
  3782  02D8  2AD2               	goto	u3425
  3783  02D9                     l2449:
  3784  02D9  1FC1               	btfss	___flmul@grs+3,7
  3785  02DA  2ADC               	goto	u3431
  3786  02DB  2ADD               	goto	u3430
  3787  02DC                     u3431:
  3788  02DC  2ADE               	goto	l2453
  3789  02DD                     u3430:
  3790  02DD                     l2451:
  3791  02DD  1444               	bsf	___flmul@prod,0
  3792  02DE                     l2453:
  3793  02DE  3001               	movlw	1
  3794  02DF  00B8               	movwf	??___flmul
  3795  02E0                     u3445:
  3796  02E0  1003               	clrc
  3797  02E1  0DBE               	rlf	___flmul@grs,f
  3798  02E2  0DBF               	rlf	___flmul@grs+1,f
  3799  02E3  0DC0               	rlf	___flmul@grs+2,f
  3800  02E4  0DC1               	rlf	___flmul@grs+3,f
  3801  02E5  0BB8               	decfsz	??___flmul,f
  3802  02E6  2AE0               	goto	u3445
  3803  02E7                     l2455:
  3804  02E7  30FF               	movlw	255
  3805  02E8  07C8               	addwf	___flmul@temp,f
  3806  02E9  1803               	skipnc
  3807  02EA  0AC9               	incf	___flmul@temp+1,f
  3808  02EB  30FF               	movlw	255
  3809  02EC  07C9               	addwf	___flmul@temp+1,f
  3810  02ED                     l2457:
  3811  02ED  1FC6               	btfss	___flmul@prod+2,7
  3812  02EE  2AF0               	goto	u3451
  3813  02EF  2AF1               	goto	u3450
  3814  02F0                     u3451:
  3815  02F0  2AD0               	goto	l2447
  3816  02F1                     u3450:
  3817  02F1                     l2459:
  3818  02F1  01C2               	clrf	___flmul@aexp
  3819  02F2                     l2461:
  3820  02F2  1FC1               	btfss	___flmul@grs+3,7
  3821  02F3  2AF5               	goto	u3461
  3822  02F4  2AF6               	goto	u3460
  3823  02F5                     u3461:
  3824  02F5  2B12               	goto	l2469
  3825  02F6                     u3460:
  3826  02F6                     l2463:
  3827  02F6  30FF               	movlw	255
  3828  02F7  053E               	andwf	___flmul@grs,w
  3829  02F8  00B8               	movwf	??___flmul
  3830  02F9  30FF               	movlw	255
  3831  02FA  053F               	andwf	___flmul@grs+1,w
  3832  02FB  00B9               	movwf	??___flmul+1
  3833  02FC  30FF               	movlw	255
  3834  02FD  0540               	andwf	___flmul@grs+2,w
  3835  02FE  00BA               	movwf	??___flmul+2
  3836  02FF  307F               	movlw	127
  3837  0300  0541               	andwf	___flmul@grs+3,w
  3838  0301  00BB               	movwf	??___flmul+3
  3839  0302  083B               	movf	??___flmul+3,w
  3840  0303  043A               	iorwf	??___flmul+2,w
  3841  0304  0439               	iorwf	??___flmul+1,w
  3842  0305  0438               	iorwf	??___flmul,w
  3843  0306  1903               	skipnz
  3844  0307  2B09               	goto	u3471
  3845  0308  2B0A               	goto	u3470
  3846  0309                     u3471:
  3847  0309  2B0D               	goto	l756
  3848  030A                     u3470:
  3849  030A                     l2465:
  3850  030A  01C2               	clrf	___flmul@aexp
  3851  030B  0AC2               	incf	___flmul@aexp,f
  3852  030C  2B12               	goto	l2469
  3853  030D                     l756:
  3854  030D  1C44               	btfss	___flmul@prod,0
  3855  030E  2B10               	goto	u3481
  3856  030F  2B11               	goto	u3480
  3857  0310                     u3481:
  3858  0310  2B12               	goto	l2469
  3859  0311                     u3480:
  3860  0311  2B0A               	goto	l2465
  3861  0312                     l2469:
  3862  0312  0842               	movf	___flmul@aexp,w
  3863  0313  1903               	btfsc	3,2
  3864  0314  2B16               	goto	u3491
  3865  0315  2B17               	goto	u3490
  3866  0316                     u3491:
  3867  0316  2B48               	goto	l2479
  3868  0317                     u3490:
  3869  0317                     l2471:
  3870  0317  3001               	movlw	1
  3871  0318  07C4               	addwf	___flmul@prod,f
  3872  0319  3000               	movlw	0
  3873  031A  1803               	skipnc
  3874  031B  3001               	movlw	1
  3875  031C  07C5               	addwf	___flmul@prod+1,f
  3876  031D  3000               	movlw	0
  3877  031E  1803               	skipnc
  3878  031F  3001               	movlw	1
  3879  0320  07C6               	addwf	___flmul@prod+2,f
  3880  0321  3000               	movlw	0
  3881  0322  1803               	skipnc
  3882  0323  3001               	movlw	1
  3883  0324  07C7               	addwf	___flmul@prod+3,f
  3884  0325                     l2473:
  3885  0325  1C47               	btfss	___flmul@prod+3,0
  3886  0326  2B28               	goto	u3501
  3887  0327  2B29               	goto	u3500
  3888  0328                     u3501:
  3889  0328  2B48               	goto	l2479
  3890  0329                     u3500:
  3891  0329                     l2475:
  3892  0329  0844               	movf	___flmul@prod,w
  3893  032A  00B8               	movwf	??___flmul
  3894  032B  0845               	movf	___flmul@prod+1,w
  3895  032C  00B9               	movwf	??___flmul+1
  3896  032D  0846               	movf	___flmul@prod+2,w
  3897  032E  00BA               	movwf	??___flmul+2
  3898  032F  0847               	movf	___flmul@prod+3,w
  3899  0330  00BB               	movwf	??___flmul+3
  3900  0331  3001               	movlw	1
  3901  0332  00BC               	movwf	??___flmul+4
  3902  0333                     u3515:
  3903  0333  0D3B               	rlf	??___flmul+3,w
  3904  0334  0CBB               	rrf	??___flmul+3,f
  3905  0335  0CBA               	rrf	??___flmul+2,f
  3906  0336  0CB9               	rrf	??___flmul+1,f
  3907  0337  0CB8               	rrf	??___flmul,f
  3908  0338                     u3510:
  3909  0338  0BBC               	decfsz	??___flmul+4,f
  3910  0339  2B33               	goto	u3515
  3911  033A  083B               	movf	??___flmul+3,w
  3912  033B  00C7               	movwf	___flmul@prod+3
  3913  033C  083A               	movf	??___flmul+2,w
  3914  033D  00C6               	movwf	___flmul@prod+2
  3915  033E  0839               	movf	??___flmul+1,w
  3916  033F  00C5               	movwf	___flmul@prod+1
  3917  0340  0838               	movf	??___flmul,w
  3918  0341  00C4               	movwf	___flmul@prod
  3919  0342                     l2477:
  3920  0342  3001               	movlw	1
  3921  0343  07C8               	addwf	___flmul@temp,f
  3922  0344  1803               	skipnc
  3923  0345  0AC9               	incf	___flmul@temp+1,f
  3924  0346  3000               	movlw	0
  3925  0347  07C9               	addwf	___flmul@temp+1,f
  3926  0348                     l2479:
  3927  0348  0849               	movf	___flmul@temp+1,w
  3928  0349  3A80               	xorlw	128
  3929  034A  00FF               	movwf	btemp+1
  3930  034B  3080               	movlw	128
  3931  034C  027F               	subwf	btemp+1,w
  3932  034D  1D03               	skipz
  3933  034E  2B51               	goto	u3525
  3934  034F  30FF               	movlw	255
  3935  0350  0248               	subwf	___flmul@temp,w
  3936  0351                     u3525:
  3937  0351  1C03               	skipc
  3938  0352  2B54               	goto	u3521
  3939  0353  2B55               	goto	u3520
  3940  0354                     u3521:
  3941  0354  2B60               	goto	l2483
  3942  0355                     u3520:
  3943  0355                     l2481:
  3944  0355  307F               	movlw	127
  3945  0356  1283               	bcf	3,5	;RP0=0, select bank0
  3946  0357  1303               	bcf	3,6	;RP1=0, select bank0
  3947  0358  00C7               	movwf	___flmul@prod+3
  3948  0359  3080               	movlw	128
  3949  035A  00C6               	movwf	___flmul@prod+2
  3950  035B  3000               	movlw	0
  3951  035C  00C5               	movwf	___flmul@prod+1
  3952  035D  3000               	movlw	0
  3953  035E  00C4               	movwf	___flmul@prod
  3954  035F  2B95               	goto	l762
  3955  0360                     l2483:
  3956  0360  1283               	bcf	3,5	;RP0=0, select bank0
  3957  0361  1303               	bcf	3,6	;RP1=0, select bank0
  3958  0362  0849               	movf	___flmul@temp+1,w
  3959  0363  3A80               	xorlw	128
  3960  0364  00FF               	movwf	btemp+1
  3961  0365  3080               	movlw	128
  3962  0366  027F               	subwf	btemp+1,w
  3963  0367  1D03               	skipz
  3964  0368  2B6B               	goto	u3535
  3965  0369  3001               	movlw	1
  3966  036A  0248               	subwf	___flmul@temp,w
  3967  036B                     u3535:
  3968  036B  1803               	skipnc
  3969  036C  2B6E               	goto	u3531
  3970  036D  2B6F               	goto	u3530
  3971  036E                     u3531:
  3972  036E  2B7B               	goto	l2489
  3973  036F                     u3530:
  3974  036F                     l2485:
  3975  036F  3000               	movlw	0
  3976  0370  1283               	bcf	3,5	;RP0=0, select bank0
  3977  0371  1303               	bcf	3,6	;RP1=0, select bank0
  3978  0372  00C7               	movwf	___flmul@prod+3
  3979  0373  3000               	movlw	0
  3980  0374  00C6               	movwf	___flmul@prod+2
  3981  0375  3000               	movlw	0
  3982  0376  00C5               	movwf	___flmul@prod+1
  3983  0377  3000               	movlw	0
  3984  0378  00C4               	movwf	___flmul@prod
  3985  0379                     l2487:
  3986  0379  01BD               	clrf	___flmul@sign
  3987  037A  2B95               	goto	l762
  3988  037B                     l2489:
  3989  037B  1283               	bcf	3,5	;RP0=0, select bank0
  3990  037C  1303               	bcf	3,6	;RP1=0, select bank0
  3991  037D  0848               	movf	___flmul@temp,w
  3992  037E  00B8               	movwf	??___flmul
  3993  037F  0838               	movf	??___flmul,w
  3994  0380  00C3               	movwf	___flmul@bexp
  3995  0381  30FF               	movlw	255
  3996  0382  05C4               	andwf	___flmul@prod,f
  3997  0383  30FF               	movlw	255
  3998  0384  05C5               	andwf	___flmul@prod+1,f
  3999  0385  307F               	movlw	127
  4000  0386  05C6               	andwf	___flmul@prod+2,f
  4001  0387  3000               	movlw	0
  4002  0388  05C7               	andwf	___flmul@prod+3,f
  4003  0389                     l2491:
  4004  0389  1C43               	btfss	___flmul@bexp,0
  4005  038A  2B8C               	goto	u3541
  4006  038B  2B8D               	goto	u3540
  4007  038C                     u3541:
  4008  038C  2B8E               	goto	l2495
  4009  038D                     u3540:
  4010  038D                     l2493:
  4011  038D  17C6               	bsf	___flmul@prod+2,7
  4012  038E                     l2495:
  4013  038E  0843               	movf	___flmul@bexp,w
  4014  038F  00B8               	movwf	??___flmul
  4015  0390  1003               	clrc
  4016  0391  0C38               	rrf	??___flmul,w
  4017  0392  00B9               	movwf	??___flmul+1
  4018  0393  0839               	movf	??___flmul+1,w
  4019  0394  00C7               	movwf	___flmul@prod+3
  4020  0395                     l762:
  4021  0395  083D               	movf	___flmul@sign,w
  4022  0396  00B8               	movwf	??___flmul
  4023  0397  0838               	movf	??___flmul,w
  4024  0398  04C7               	iorwf	___flmul@prod+3,f
  4025  0399                     l2497:
  4026  0399  0847               	movf	___flmul@prod+3,w
  4027  039A  00B3               	movwf	?___flmul+3
  4028  039B  0846               	movf	___flmul@prod+2,w
  4029  039C  00B2               	movwf	?___flmul+2
  4030  039D  0845               	movf	___flmul@prod+1,w
  4031  039E  00B1               	movwf	?___flmul+1
  4032  039F  0844               	movf	___flmul@prod,w
  4033  03A0  00B0               	movwf	?___flmul
  4034  03A1                     l750:
  4035  03A1  0008               	return
  4036  03A2                     __end_of___flmul:
  4037                           
  4038                           	psect	text12
  4039  15DA                     __ptext12:	
  4040 ;; *************** function __Umul8_16 *****************
  4041 ;; Defined at:
  4042 ;;		line 4 in file "C:\Program Files\Microchip\xc8\v2.32\pic\sources\c90\common\Umul8_16.c"
  4043 ;; Parameters:    Size  Location     Type
  4044 ;;  multiplier      1    wreg     unsigned char 
  4045 ;;  multiplicand    1    3[COMMON] unsigned char 
  4046 ;; Auto vars:     Size  Location     Type
  4047 ;;  multiplier      1    4[BANK0 ] unsigned char 
  4048 ;;  word_mpld       2    2[BANK0 ] unsigned int 
  4049 ;;  product         2    0[BANK0 ] unsigned int 
  4050 ;; Return value:  Size  Location     Type
  4051 ;;                  2    3[COMMON] unsigned int 
  4052 ;; Registers used:
  4053 ;;		wreg, status,2, status,0
  4054 ;; Tracked objects:
  4055 ;;		On entry : 0/0
  4056 ;;		On exit  : 0/0
  4057 ;;		Unchanged: 0/0
  4058 ;; Data sizes:     COMMON   BANK0   BANK1   BANK3   BANK2
  4059 ;;      Params:         2       0       0       0       0
  4060 ;;      Locals:         0       5       0       0       0
  4061 ;;      Temps:          2       0       0       0       0
  4062 ;;      Totals:         4       5       0       0       0
  4063 ;;Total ram usage:        9 bytes
  4064 ;; Hardware stack levels used: 1
  4065 ;; Hardware stack levels required when called: 1
  4066 ;; This function calls:
  4067 ;;		Nothing
  4068 ;; This function is called by:
  4069 ;;		___flmul
  4070 ;; This function uses a non-reentrant model
  4071 ;;
  4072                           
  4073                           
  4074                           ;psect for function __Umul8_16
  4075  15DA                     __Umul8_16:
  4076                           
  4077                           ;incstack = 0
  4078                           ; Regs used in __Umul8_16: [wreg+status,2+status,0]
  4079                           ;__Umul8_16@multiplier stored from wreg
  4080  15DA  1283               	bcf	3,5	;RP0=0, select bank0
  4081  15DB  1303               	bcf	3,6	;RP1=0, select bank0
  4082  15DC  00A4               	movwf	__Umul8_16@multiplier
  4083  15DD                     l2079:
  4084  15DD  01A0               	clrf	__Umul8_16@product
  4085  15DE  01A1               	clrf	__Umul8_16@product+1
  4086  15DF                     l2081:
  4087  15DF  0873               	movf	__Umul8_16@multiplicand,w
  4088  15E0  00F5               	movwf	??__Umul8_16
  4089  15E1  01F6               	clrf	??__Umul8_16+1
  4090  15E2  0875               	movf	??__Umul8_16,w
  4091  15E3  00A2               	movwf	__Umul8_16@word_mpld
  4092  15E4  0876               	movf	??__Umul8_16+1,w
  4093  15E5  00A3               	movwf	__Umul8_16@word_mpld+1
  4094  15E6                     l2083:
  4095  15E6  1C24               	btfss	__Umul8_16@multiplier,0
  4096  15E7  2DE9               	goto	u2591
  4097  15E8  2DEA               	goto	u2590
  4098  15E9                     u2591:
  4099  15E9  2DF0               	goto	l769
  4100  15EA                     u2590:
  4101  15EA                     l2085:
  4102  15EA  0822               	movf	__Umul8_16@word_mpld,w
  4103  15EB  07A0               	addwf	__Umul8_16@product,f
  4104  15EC  1803               	skipnc
  4105  15ED  0AA1               	incf	__Umul8_16@product+1,f
  4106  15EE  0823               	movf	__Umul8_16@word_mpld+1,w
  4107  15EF  07A1               	addwf	__Umul8_16@product+1,f
  4108  15F0                     l769:
  4109  15F0  3001               	movlw	1
  4110  15F1                     u2605:
  4111  15F1  1003               	clrc
  4112  15F2  0DA2               	rlf	__Umul8_16@word_mpld,f
  4113  15F3  0DA3               	rlf	__Umul8_16@word_mpld+1,f
  4114  15F4  3EFF               	addlw	-1
  4115  15F5  1D03               	skipz
  4116  15F6  2DF1               	goto	u2605
  4117  15F7  1003               	clrc
  4118  15F8  0CA4               	rrf	__Umul8_16@multiplier,f
  4119  15F9                     l2087:
  4120  15F9  0824               	movf	__Umul8_16@multiplier,w
  4121  15FA  1D03               	btfss	3,2
  4122  15FB  2DFD               	goto	u2611
  4123  15FC  2DFE               	goto	u2610
  4124  15FD                     u2611:
  4125  15FD  2DE6               	goto	l2083
  4126  15FE                     u2610:
  4127  15FE                     l2089:
  4128  15FE  0821               	movf	__Umul8_16@product+1,w
  4129  15FF  00F4               	movwf	?__Umul8_16+1
  4130  1600  0820               	movf	__Umul8_16@product,w
  4131  1601  00F3               	movwf	?__Umul8_16
  4132  1602                     l771:
  4133  1602  0008               	return
  4134  1603                     __end_of__Umul8_16:
  4135                           
  4136                           	psect	text13
  4137  0C34                     __ptext13:	
  4138 ;; *************** function ___fldiv *****************
  4139 ;; Defined at:
  4140 ;;		line 8 in file "C:\Program Files\Microchip\xc8\v2.32\pic\sources\c90\common\sprcdiv.c"
  4141 ;; Parameters:    Size  Location     Type
  4142 ;;  a               4    0[BANK0 ] unsigned int 
  4143 ;;  b               4    4[BANK0 ] unsigned int 
  4144 ;; Auto vars:     Size  Location     Type
  4145 ;;  grs             4   15[BANK0 ] unsigned long 
  4146 ;;  rem             4    8[BANK0 ] unsigned long 
  4147 ;;  new_exp         2   13[BANK0 ] int 
  4148 ;;  aexp            1   20[BANK0 ] unsigned char 
  4149 ;;  bexp            1   19[BANK0 ] unsigned char 
  4150 ;;  sign            1   12[BANK0 ] unsigned char 
  4151 ;; Return value:  Size  Location     Type
  4152 ;;                  4    0[BANK0 ] unsigned char 
  4153 ;; Registers used:
  4154 ;;		wreg, status,2, status,0, btemp+1
  4155 ;; Tracked objects:
  4156 ;;		On entry : 0/0
  4157 ;;		On exit  : 0/0
  4158 ;;		Unchanged: 0/0
  4159 ;; Data sizes:     COMMON   BANK0   BANK1   BANK3   BANK2
  4160 ;;      Params:         0       8       0       0       0
  4161 ;;      Locals:         0      13       0       0       0
  4162 ;;      Temps:          5       0       0       0       0
  4163 ;;      Totals:         5      21       0       0       0
  4164 ;;Total ram usage:       26 bytes
  4165 ;; Hardware stack levels used: 1
  4166 ;; Hardware stack levels required when called: 1
  4167 ;; This function calls:
  4168 ;;		Nothing
  4169 ;; This function is called by:
  4170 ;;		_UpdateLCDViewWithNumber
  4171 ;; This function uses a non-reentrant model
  4172 ;;
  4173                           
  4174                           
  4175                           ;psect for function ___fldiv
  4176  0C34                     ___fldiv:
  4177  0C34                     l3119:	
  4178                           ;incstack = 0
  4179                           ; Regs used in ___fldiv: [wreg+status,2+status,0+btemp+1]
  4180                           
  4181  0C34  1283               	bcf	3,5	;RP0=0, select bank0
  4182  0C35  1303               	bcf	3,6	;RP1=0, select bank0
  4183  0C36  0827               	movf	___fldiv@b+3,w
  4184  0C37  3980               	andlw	128
  4185  0C38  00F3               	movwf	??___fldiv
  4186  0C39  0873               	movf	??___fldiv,w
  4187  0C3A  00AC               	movwf	___fldiv@sign
  4188  0C3B                     l3121:
  4189  0C3B  0827               	movf	___fldiv@b+3,w
  4190  0C3C  00F3               	movwf	??___fldiv
  4191  0C3D  0773               	addwf	??___fldiv,w
  4192  0C3E  00F4               	movwf	??___fldiv+1
  4193  0C3F  0874               	movf	??___fldiv+1,w
  4194  0C40  00B3               	movwf	___fldiv@bexp
  4195  0C41                     l3123:
  4196  0C41  1FA6               	btfss	___fldiv@b+2,7
  4197  0C42  2C44               	goto	u4761
  4198  0C43  2C45               	goto	u4760
  4199  0C44                     u4761:
  4200  0C44  2C46               	goto	l3127
  4201  0C45                     u4760:
  4202  0C45                     l3125:
  4203  0C45  1433               	bsf	___fldiv@bexp,0
  4204  0C46                     l3127:
  4205  0C46  0833               	movf	___fldiv@bexp,w
  4206  0C47  1903               	btfsc	3,2
  4207  0C48  2C4A               	goto	u4771
  4208  0C49  2C4B               	goto	u4770
  4209  0C4A                     u4771:
  4210  0C4A  2C5B               	goto	l3137
  4211  0C4B                     u4770:
  4212  0C4B                     l3129:
  4213  0C4B  0A33               	incf	___fldiv@bexp,w
  4214  0C4C  1D03               	btfss	3,2
  4215  0C4D  2C4F               	goto	u4781
  4216  0C4E  2C50               	goto	u4780
  4217  0C4F                     u4781:
  4218  0C4F  2C58               	goto	l3133
  4219  0C50                     u4780:
  4220  0C50                     l3131:
  4221  0C50  3000               	movlw	0
  4222  0C51  00A7               	movwf	___fldiv@b+3
  4223  0C52  3000               	movlw	0
  4224  0C53  00A6               	movwf	___fldiv@b+2
  4225  0C54  3000               	movlw	0
  4226  0C55  00A5               	movwf	___fldiv@b+1
  4227  0C56  3000               	movlw	0
  4228  0C57  00A4               	movwf	___fldiv@b
  4229  0C58                     l3133:
  4230  0C58  17A6               	bsf	___fldiv@b+2,7
  4231  0C59                     l3135:
  4232  0C59  01A7               	clrf	___fldiv@b+3
  4233  0C5A  2C63               	goto	l3139
  4234  0C5B                     l3137:
  4235  0C5B  3000               	movlw	0
  4236  0C5C  00A7               	movwf	___fldiv@b+3
  4237  0C5D  3000               	movlw	0
  4238  0C5E  00A6               	movwf	___fldiv@b+2
  4239  0C5F  3000               	movlw	0
  4240  0C60  00A5               	movwf	___fldiv@b+1
  4241  0C61  3000               	movlw	0
  4242  0C62  00A4               	movwf	___fldiv@b
  4243  0C63                     l3139:
  4244  0C63  0823               	movf	___fldiv@a+3,w
  4245  0C64  3980               	andlw	128
  4246  0C65  00F3               	movwf	??___fldiv
  4247  0C66  0873               	movf	??___fldiv,w
  4248  0C67  06AC               	xorwf	___fldiv@sign,f
  4249  0C68                     l3141:
  4250  0C68  0823               	movf	___fldiv@a+3,w
  4251  0C69  00F3               	movwf	??___fldiv
  4252  0C6A  0773               	addwf	??___fldiv,w
  4253  0C6B  00F4               	movwf	??___fldiv+1
  4254  0C6C  0874               	movf	??___fldiv+1,w
  4255  0C6D  00B4               	movwf	___fldiv@aexp
  4256  0C6E                     l3143:
  4257  0C6E  1FA2               	btfss	___fldiv@a+2,7
  4258  0C6F  2C71               	goto	u4791
  4259  0C70  2C72               	goto	u4790
  4260  0C71                     u4791:
  4261  0C71  2C73               	goto	l3147
  4262  0C72                     u4790:
  4263  0C72                     l3145:
  4264  0C72  1434               	bsf	___fldiv@aexp,0
  4265  0C73                     l3147:
  4266  0C73  0834               	movf	___fldiv@aexp,w
  4267  0C74  1903               	btfsc	3,2
  4268  0C75  2C77               	goto	u4801
  4269  0C76  2C78               	goto	u4800
  4270  0C77                     u4801:
  4271  0C77  2C88               	goto	l3157
  4272  0C78                     u4800:
  4273  0C78                     l3149:
  4274  0C78  0A34               	incf	___fldiv@aexp,w
  4275  0C79  1D03               	btfss	3,2
  4276  0C7A  2C7C               	goto	u4811
  4277  0C7B  2C7D               	goto	u4810
  4278  0C7C                     u4811:
  4279  0C7C  2C85               	goto	l3153
  4280  0C7D                     u4810:
  4281  0C7D                     l3151:
  4282  0C7D  3000               	movlw	0
  4283  0C7E  00A3               	movwf	___fldiv@a+3
  4284  0C7F  3000               	movlw	0
  4285  0C80  00A2               	movwf	___fldiv@a+2
  4286  0C81  3000               	movlw	0
  4287  0C82  00A1               	movwf	___fldiv@a+1
  4288  0C83  3000               	movlw	0
  4289  0C84  00A0               	movwf	___fldiv@a
  4290  0C85                     l3153:
  4291  0C85  17A2               	bsf	___fldiv@a+2,7
  4292  0C86                     l3155:
  4293  0C86  01A3               	clrf	___fldiv@a+3
  4294  0C87  2C90               	goto	l710
  4295  0C88                     l3157:
  4296  0C88  3000               	movlw	0
  4297  0C89  00A3               	movwf	___fldiv@a+3
  4298  0C8A  3000               	movlw	0
  4299  0C8B  00A2               	movwf	___fldiv@a+2
  4300  0C8C  3000               	movlw	0
  4301  0C8D  00A1               	movwf	___fldiv@a+1
  4302  0C8E  3000               	movlw	0
  4303  0C8F  00A0               	movwf	___fldiv@a
  4304  0C90                     l710:
  4305  0C90  0823               	movf	___fldiv@a+3,w
  4306  0C91  0422               	iorwf	___fldiv@a+2,w
  4307  0C92  0421               	iorwf	___fldiv@a+1,w
  4308  0C93  0420               	iorwf	___fldiv@a,w
  4309  0C94  1D03               	skipz
  4310  0C95  2C97               	goto	u4821
  4311  0C96  2C98               	goto	u4820
  4312  0C97                     u4821:
  4313  0C97  2CB1               	goto	l3167
  4314  0C98                     u4820:
  4315  0C98                     l3159:
  4316  0C98  3000               	movlw	0
  4317  0C99  00A7               	movwf	___fldiv@b+3
  4318  0C9A  3000               	movlw	0
  4319  0C9B  00A6               	movwf	___fldiv@b+2
  4320  0C9C  3000               	movlw	0
  4321  0C9D  00A5               	movwf	___fldiv@b+1
  4322  0C9E  3000               	movlw	0
  4323  0C9F  00A4               	movwf	___fldiv@b
  4324  0CA0  3080               	movlw	128
  4325  0CA1  04A6               	iorwf	___fldiv@b+2,f
  4326  0CA2  307F               	movlw	127
  4327  0CA3  04A7               	iorwf	___fldiv@b+3,f
  4328  0CA4                     l3161:
  4329  0CA4  082C               	movf	___fldiv@sign,w
  4330  0CA5  00F3               	movwf	??___fldiv
  4331  0CA6  0873               	movf	??___fldiv,w
  4332  0CA7  04A7               	iorwf	___fldiv@b+3,f
  4333  0CA8                     l3163:
  4334  0CA8  0827               	movf	___fldiv@b+3,w
  4335  0CA9  00A3               	movwf	?___fldiv+3
  4336  0CAA  0826               	movf	___fldiv@b+2,w
  4337  0CAB  00A2               	movwf	?___fldiv+2
  4338  0CAC  0825               	movf	___fldiv@b+1,w
  4339  0CAD  00A1               	movwf	?___fldiv+1
  4340  0CAE  0824               	movf	___fldiv@b,w
  4341  0CAF  00A0               	movwf	?___fldiv
  4342  0CB0  2E10               	goto	l712
  4343  0CB1                     l3167:
  4344  0CB1  0833               	movf	___fldiv@bexp,w
  4345  0CB2  1D03               	btfss	3,2
  4346  0CB3  2CB5               	goto	u4831
  4347  0CB4  2CB6               	goto	u4830
  4348  0CB5                     u4831:
  4349  0CB5  2CBF               	goto	l3173
  4350  0CB6                     u4830:
  4351  0CB6                     l3169:
  4352  0CB6  3000               	movlw	0
  4353  0CB7  00A3               	movwf	?___fldiv+3
  4354  0CB8  3000               	movlw	0
  4355  0CB9  00A2               	movwf	?___fldiv+2
  4356  0CBA  3000               	movlw	0
  4357  0CBB  00A1               	movwf	?___fldiv+1
  4358  0CBC  3000               	movlw	0
  4359  0CBD  00A0               	movwf	?___fldiv
  4360  0CBE  2E10               	goto	l712
  4361  0CBF                     l3173:
  4362  0CBF  0833               	movf	___fldiv@bexp,w
  4363  0CC0  00F3               	movwf	??___fldiv
  4364  0CC1  01F4               	clrf	??___fldiv+1
  4365  0CC2  0874               	movf	??___fldiv+1,w
  4366  0CC3  00F6               	movwf	??___fldiv+3
  4367  0CC4  0834               	movf	___fldiv@aexp,w
  4368  0CC5  0273               	subwf	??___fldiv,w
  4369  0CC6  00F5               	movwf	??___fldiv+2
  4370  0CC7  1C03               	skipc
  4371  0CC8  03F6               	decf	??___fldiv+3,f
  4372  0CC9  0875               	movf	??___fldiv+2,w
  4373  0CCA  3E7F               	addlw	127
  4374  0CCB  00AD               	movwf	___fldiv@new_exp
  4375  0CCC  0876               	movf	??___fldiv+3,w
  4376  0CCD  1803               	skipnc
  4377  0CCE  3E01               	addlw	1
  4378  0CCF  3E00               	addlw	0
  4379  0CD0  00AE               	movwf	___fldiv@new_exp+1
  4380  0CD1                     l3175:
  4381  0CD1  0827               	movf	___fldiv@b+3,w
  4382  0CD2  00AB               	movwf	___fldiv@rem+3
  4383  0CD3  0826               	movf	___fldiv@b+2,w
  4384  0CD4  00AA               	movwf	___fldiv@rem+2
  4385  0CD5  0825               	movf	___fldiv@b+1,w
  4386  0CD6  00A9               	movwf	___fldiv@rem+1
  4387  0CD7  0824               	movf	___fldiv@b,w
  4388  0CD8  00A8               	movwf	___fldiv@rem
  4389  0CD9                     l3177:
  4390  0CD9  3000               	movlw	0
  4391  0CDA  00A7               	movwf	___fldiv@b+3
  4392  0CDB  3000               	movlw	0
  4393  0CDC  00A6               	movwf	___fldiv@b+2
  4394  0CDD  3000               	movlw	0
  4395  0CDE  00A5               	movwf	___fldiv@b+1
  4396  0CDF  3000               	movlw	0
  4397  0CE0  00A4               	movwf	___fldiv@b
  4398  0CE1                     l3179:
  4399  0CE1  3000               	movlw	0
  4400  0CE2  00B2               	movwf	___fldiv@grs+3
  4401  0CE3  3000               	movlw	0
  4402  0CE4  00B1               	movwf	___fldiv@grs+2
  4403  0CE5  3000               	movlw	0
  4404  0CE6  00B0               	movwf	___fldiv@grs+1
  4405  0CE7  3000               	movlw	0
  4406  0CE8  00AF               	movwf	___fldiv@grs
  4407  0CE9                     l3181:
  4408  0CE9  01B4               	clrf	___fldiv@aexp
  4409  0CEA  2D35               	goto	l3201
  4410  0CEB                     l3183:
  4411  0CEB  0834               	movf	___fldiv@aexp,w
  4412  0CEC  1903               	btfsc	3,2
  4413  0CED  2CEF               	goto	u4841
  4414  0CEE  2CF0               	goto	u4840
  4415  0CEF                     u4841:
  4416  0CEF  2D10               	goto	l3193
  4417  0CF0                     u4840:
  4418  0CF0                     l3185:
  4419  0CF0  3001               	movlw	1
  4420  0CF1  00F3               	movwf	??___fldiv
  4421  0CF2                     u4855:
  4422  0CF2  1003               	clrc
  4423  0CF3  0DA8               	rlf	___fldiv@rem,f
  4424  0CF4  0DA9               	rlf	___fldiv@rem+1,f
  4425  0CF5  0DAA               	rlf	___fldiv@rem+2,f
  4426  0CF6  0DAB               	rlf	___fldiv@rem+3,f
  4427  0CF7  0BF3               	decfsz	??___fldiv,f
  4428  0CF8  2CF2               	goto	u4855
  4429  0CF9  3001               	movlw	1
  4430  0CFA  00F3               	movwf	??___fldiv
  4431  0CFB                     u4865:
  4432  0CFB  1003               	clrc
  4433  0CFC  0DA4               	rlf	___fldiv@b,f
  4434  0CFD  0DA5               	rlf	___fldiv@b+1,f
  4435  0CFE  0DA6               	rlf	___fldiv@b+2,f
  4436  0CFF  0DA7               	rlf	___fldiv@b+3,f
  4437  0D00  0BF3               	decfsz	??___fldiv,f
  4438  0D01  2CFB               	goto	u4865
  4439  0D02                     l3187:
  4440  0D02  1FB2               	btfss	___fldiv@grs+3,7
  4441  0D03  2D05               	goto	u4871
  4442  0D04  2D06               	goto	u4870
  4443  0D05                     u4871:
  4444  0D05  2D07               	goto	l3191
  4445  0D06                     u4870:
  4446  0D06                     l3189:
  4447  0D06  1424               	bsf	___fldiv@b,0
  4448  0D07                     l3191:
  4449  0D07  3001               	movlw	1
  4450  0D08  00F3               	movwf	??___fldiv
  4451  0D09                     u4885:
  4452  0D09  1003               	clrc
  4453  0D0A  0DAF               	rlf	___fldiv@grs,f
  4454  0D0B  0DB0               	rlf	___fldiv@grs+1,f
  4455  0D0C  0DB1               	rlf	___fldiv@grs+2,f
  4456  0D0D  0DB2               	rlf	___fldiv@grs+3,f
  4457  0D0E  0BF3               	decfsz	??___fldiv,f
  4458  0D0F  2D09               	goto	u4885
  4459  0D10                     l3193:
  4460  0D10  0823               	movf	___fldiv@a+3,w
  4461  0D11  022B               	subwf	___fldiv@rem+3,w
  4462  0D12  1D03               	skipz
  4463  0D13  2D1E               	goto	u4895
  4464  0D14  0822               	movf	___fldiv@a+2,w
  4465  0D15  022A               	subwf	___fldiv@rem+2,w
  4466  0D16  1D03               	skipz
  4467  0D17  2D1E               	goto	u4895
  4468  0D18  0821               	movf	___fldiv@a+1,w
  4469  0D19  0229               	subwf	___fldiv@rem+1,w
  4470  0D1A  1D03               	skipz
  4471  0D1B  2D1E               	goto	u4895
  4472  0D1C  0820               	movf	___fldiv@a,w
  4473  0D1D  0228               	subwf	___fldiv@rem,w
  4474  0D1E                     u4895:
  4475  0D1E  1C03               	skipc
  4476  0D1F  2D21               	goto	u4891
  4477  0D20  2D22               	goto	u4890
  4478  0D21                     u4891:
  4479  0D21  2D31               	goto	l3199
  4480  0D22                     u4890:
  4481  0D22                     l3195:
  4482  0D22  1732               	bsf	___fldiv@grs+3,6
  4483  0D23                     l3197:
  4484  0D23  0820               	movf	___fldiv@a,w
  4485  0D24  02A8               	subwf	___fldiv@rem,f
  4486  0D25  0821               	movf	___fldiv@a+1,w
  4487  0D26  1C03               	skipc
  4488  0D27  0F21               	incfsz	___fldiv@a+1,w
  4489  0D28  02A9               	subwf	___fldiv@rem+1,f
  4490  0D29  0822               	movf	___fldiv@a+2,w
  4491  0D2A  1C03               	skipc
  4492  0D2B  0F22               	incfsz	___fldiv@a+2,w
  4493  0D2C  02AA               	subwf	___fldiv@rem+2,f
  4494  0D2D  0823               	movf	___fldiv@a+3,w
  4495  0D2E  1C03               	skipc
  4496  0D2F  0F23               	incfsz	___fldiv@a+3,w
  4497  0D30  02AB               	subwf	___fldiv@rem+3,f
  4498  0D31                     l3199:
  4499  0D31  3001               	movlw	1
  4500  0D32  00F3               	movwf	??___fldiv
  4501  0D33  0873               	movf	??___fldiv,w
  4502  0D34  07B4               	addwf	___fldiv@aexp,f
  4503  0D35                     l3201:
  4504  0D35  301A               	movlw	26
  4505  0D36  0234               	subwf	___fldiv@aexp,w
  4506  0D37  1C03               	skipc
  4507  0D38  2D3A               	goto	u4901
  4508  0D39  2D3B               	goto	u4900
  4509  0D3A                     u4901:
  4510  0D3A  2CEB               	goto	l3183
  4511  0D3B                     u4900:
  4512  0D3B                     l3203:
  4513  0D3B  082B               	movf	___fldiv@rem+3,w
  4514  0D3C  042A               	iorwf	___fldiv@rem+2,w
  4515  0D3D  0429               	iorwf	___fldiv@rem+1,w
  4516  0D3E  0428               	iorwf	___fldiv@rem,w
  4517  0D3F  1903               	skipnz
  4518  0D40  2D42               	goto	u4911
  4519  0D41  2D43               	goto	u4910
  4520  0D42                     u4911:
  4521  0D42  2D62               	goto	l3217
  4522  0D43                     u4910:
  4523  0D43                     l3205:
  4524  0D43  142F               	bsf	___fldiv@grs,0
  4525  0D44  2D62               	goto	l3217
  4526  0D45                     l3207:
  4527  0D45  3001               	movlw	1
  4528  0D46  00F3               	movwf	??___fldiv
  4529  0D47                     u4925:
  4530  0D47  1003               	clrc
  4531  0D48  0DA4               	rlf	___fldiv@b,f
  4532  0D49  0DA5               	rlf	___fldiv@b+1,f
  4533  0D4A  0DA6               	rlf	___fldiv@b+2,f
  4534  0D4B  0DA7               	rlf	___fldiv@b+3,f
  4535  0D4C  0BF3               	decfsz	??___fldiv,f
  4536  0D4D  2D47               	goto	u4925
  4537  0D4E                     l3209:
  4538  0D4E  1FB2               	btfss	___fldiv@grs+3,7
  4539  0D4F  2D51               	goto	u4931
  4540  0D50  2D52               	goto	u4930
  4541  0D51                     u4931:
  4542  0D51  2D53               	goto	l3213
  4543  0D52                     u4930:
  4544  0D52                     l3211:
  4545  0D52  1424               	bsf	___fldiv@b,0
  4546  0D53                     l3213:
  4547  0D53  3001               	movlw	1
  4548  0D54  00F3               	movwf	??___fldiv
  4549  0D55                     u4945:
  4550  0D55  1003               	clrc
  4551  0D56  0DAF               	rlf	___fldiv@grs,f
  4552  0D57  0DB0               	rlf	___fldiv@grs+1,f
  4553  0D58  0DB1               	rlf	___fldiv@grs+2,f
  4554  0D59  0DB2               	rlf	___fldiv@grs+3,f
  4555  0D5A  0BF3               	decfsz	??___fldiv,f
  4556  0D5B  2D55               	goto	u4945
  4557  0D5C                     l3215:
  4558  0D5C  30FF               	movlw	255
  4559  0D5D  07AD               	addwf	___fldiv@new_exp,f
  4560  0D5E  1803               	skipnc
  4561  0D5F  0AAE               	incf	___fldiv@new_exp+1,f
  4562  0D60  30FF               	movlw	255
  4563  0D61  07AE               	addwf	___fldiv@new_exp+1,f
  4564  0D62                     l3217:
  4565  0D62  1FA6               	btfss	___fldiv@b+2,7
  4566  0D63  2D65               	goto	u4951
  4567  0D64  2D66               	goto	u4950
  4568  0D65                     u4951:
  4569  0D65  2D45               	goto	l3207
  4570  0D66                     u4950:
  4571  0D66                     l3219:
  4572  0D66  01B4               	clrf	___fldiv@aexp
  4573  0D67                     l3221:
  4574  0D67  1FB2               	btfss	___fldiv@grs+3,7
  4575  0D68  2D6A               	goto	u4961
  4576  0D69  2D6B               	goto	u4960
  4577  0D6A                     u4961:
  4578  0D6A  2D87               	goto	l3229
  4579  0D6B                     u4960:
  4580  0D6B                     l3223:
  4581  0D6B  30FF               	movlw	255
  4582  0D6C  052F               	andwf	___fldiv@grs,w
  4583  0D6D  00F3               	movwf	??___fldiv
  4584  0D6E  30FF               	movlw	255
  4585  0D6F  0530               	andwf	___fldiv@grs+1,w
  4586  0D70  00F4               	movwf	??___fldiv+1
  4587  0D71  30FF               	movlw	255
  4588  0D72  0531               	andwf	___fldiv@grs+2,w
  4589  0D73  00F5               	movwf	??___fldiv+2
  4590  0D74  307F               	movlw	127
  4591  0D75  0532               	andwf	___fldiv@grs+3,w
  4592  0D76  00F6               	movwf	??___fldiv+3
  4593  0D77  0876               	movf	??___fldiv+3,w
  4594  0D78  0475               	iorwf	??___fldiv+2,w
  4595  0D79  0474               	iorwf	??___fldiv+1,w
  4596  0D7A  0473               	iorwf	??___fldiv,w
  4597  0D7B  1903               	skipnz
  4598  0D7C  2D7E               	goto	u4971
  4599  0D7D  2D7F               	goto	u4970
  4600  0D7E                     u4971:
  4601  0D7E  2D82               	goto	l726
  4602  0D7F                     u4970:
  4603  0D7F                     l3225:
  4604  0D7F  01B4               	clrf	___fldiv@aexp
  4605  0D80  0AB4               	incf	___fldiv@aexp,f
  4606  0D81  2D87               	goto	l3229
  4607  0D82                     l726:
  4608  0D82  1C24               	btfss	___fldiv@b,0
  4609  0D83  2D85               	goto	u4981
  4610  0D84  2D86               	goto	u4980
  4611  0D85                     u4981:
  4612  0D85  2D87               	goto	l3229
  4613  0D86                     u4980:
  4614  0D86  2D7F               	goto	l3225
  4615  0D87                     l3229:
  4616  0D87  0834               	movf	___fldiv@aexp,w
  4617  0D88  1903               	btfsc	3,2
  4618  0D89  2D8B               	goto	u4991
  4619  0D8A  2D8C               	goto	u4990
  4620  0D8B                     u4991:
  4621  0D8B  2DBD               	goto	l3239
  4622  0D8C                     u4990:
  4623  0D8C                     l3231:
  4624  0D8C  3001               	movlw	1
  4625  0D8D  07A4               	addwf	___fldiv@b,f
  4626  0D8E  3000               	movlw	0
  4627  0D8F  1803               	skipnc
  4628  0D90  3001               	movlw	1
  4629  0D91  07A5               	addwf	___fldiv@b+1,f
  4630  0D92  3000               	movlw	0
  4631  0D93  1803               	skipnc
  4632  0D94  3001               	movlw	1
  4633  0D95  07A6               	addwf	___fldiv@b+2,f
  4634  0D96  3000               	movlw	0
  4635  0D97  1803               	skipnc
  4636  0D98  3001               	movlw	1
  4637  0D99  07A7               	addwf	___fldiv@b+3,f
  4638  0D9A                     l3233:
  4639  0D9A  1C27               	btfss	___fldiv@b+3,0
  4640  0D9B  2D9D               	goto	u5001
  4641  0D9C  2D9E               	goto	u5000
  4642  0D9D                     u5001:
  4643  0D9D  2DBD               	goto	l3239
  4644  0D9E                     u5000:
  4645  0D9E                     l3235:
  4646  0D9E  0824               	movf	___fldiv@b,w
  4647  0D9F  00F3               	movwf	??___fldiv
  4648  0DA0  0825               	movf	___fldiv@b+1,w
  4649  0DA1  00F4               	movwf	??___fldiv+1
  4650  0DA2  0826               	movf	___fldiv@b+2,w
  4651  0DA3  00F5               	movwf	??___fldiv+2
  4652  0DA4  0827               	movf	___fldiv@b+3,w
  4653  0DA5  00F6               	movwf	??___fldiv+3
  4654  0DA6  3001               	movlw	1
  4655  0DA7  00F7               	movwf	??___fldiv+4
  4656  0DA8                     u5015:
  4657  0DA8  0D76               	rlf	??___fldiv+3,w
  4658  0DA9  0CF6               	rrf	??___fldiv+3,f
  4659  0DAA  0CF5               	rrf	??___fldiv+2,f
  4660  0DAB  0CF4               	rrf	??___fldiv+1,f
  4661  0DAC  0CF3               	rrf	??___fldiv,f
  4662  0DAD                     u5010:
  4663  0DAD  0BF7               	decfsz	??___fldiv+4,f
  4664  0DAE  2DA8               	goto	u5015
  4665  0DAF  0876               	movf	??___fldiv+3,w
  4666  0DB0  00A7               	movwf	___fldiv@b+3
  4667  0DB1  0875               	movf	??___fldiv+2,w
  4668  0DB2  00A6               	movwf	___fldiv@b+2
  4669  0DB3  0874               	movf	??___fldiv+1,w
  4670  0DB4  00A5               	movwf	___fldiv@b+1
  4671  0DB5  0873               	movf	??___fldiv,w
  4672  0DB6  00A4               	movwf	___fldiv@b
  4673  0DB7                     l3237:
  4674  0DB7  3001               	movlw	1
  4675  0DB8  07AD               	addwf	___fldiv@new_exp,f
  4676  0DB9  1803               	skipnc
  4677  0DBA  0AAE               	incf	___fldiv@new_exp+1,f
  4678  0DBB  3000               	movlw	0
  4679  0DBC  07AE               	addwf	___fldiv@new_exp+1,f
  4680  0DBD                     l3239:
  4681  0DBD  082E               	movf	___fldiv@new_exp+1,w
  4682  0DBE  3A80               	xorlw	128
  4683  0DBF  00FF               	movwf	btemp+1
  4684  0DC0  3080               	movlw	128
  4685  0DC1  027F               	subwf	btemp+1,w
  4686  0DC2  1D03               	skipz
  4687  0DC3  2DC6               	goto	u5025
  4688  0DC4  30FF               	movlw	255
  4689  0DC5  022D               	subwf	___fldiv@new_exp,w
  4690  0DC6                     u5025:
  4691  0DC6  1C03               	skipc
  4692  0DC7  2DC9               	goto	u5021
  4693  0DC8  2DCA               	goto	u5020
  4694  0DC9                     u5021:
  4695  0DC9  2DD8               	goto	l3243
  4696  0DCA                     u5020:
  4697  0DCA                     l3241:
  4698  0DCA  30FF               	movlw	255
  4699  0DCB  1283               	bcf	3,5	;RP0=0, select bank0
  4700  0DCC  1303               	bcf	3,6	;RP1=0, select bank0
  4701  0DCD  00AD               	movwf	___fldiv@new_exp
  4702  0DCE  3000               	movlw	0
  4703  0DCF  00AE               	movwf	___fldiv@new_exp+1
  4704  0DD0  3000               	movlw	0
  4705  0DD1  00A7               	movwf	___fldiv@b+3
  4706  0DD2  3000               	movlw	0
  4707  0DD3  00A6               	movwf	___fldiv@b+2
  4708  0DD4  3000               	movlw	0
  4709  0DD5  00A5               	movwf	___fldiv@b+1
  4710  0DD6  3000               	movlw	0
  4711  0DD7  00A4               	movwf	___fldiv@b
  4712  0DD8                     l3243:
  4713  0DD8  1283               	bcf	3,5	;RP0=0, select bank0
  4714  0DD9  1303               	bcf	3,6	;RP1=0, select bank0
  4715  0DDA  082E               	movf	___fldiv@new_exp+1,w
  4716  0DDB  3A80               	xorlw	128
  4717  0DDC  00FF               	movwf	btemp+1
  4718  0DDD  3080               	movlw	128
  4719  0DDE  027F               	subwf	btemp+1,w
  4720  0DDF  1D03               	skipz
  4721  0DE0  2DE3               	goto	u5035
  4722  0DE1  3001               	movlw	1
  4723  0DE2  022D               	subwf	___fldiv@new_exp,w
  4724  0DE3                     u5035:
  4725  0DE3  1803               	skipnc
  4726  0DE4  2DE6               	goto	u5031
  4727  0DE5  2DE7               	goto	u5030
  4728  0DE6                     u5031:
  4729  0DE6  2DF4               	goto	l732
  4730  0DE7                     u5030:
  4731  0DE7                     l3245:
  4732  0DE7  1283               	bcf	3,5	;RP0=0, select bank0
  4733  0DE8  1303               	bcf	3,6	;RP1=0, select bank0
  4734  0DE9  01AD               	clrf	___fldiv@new_exp
  4735  0DEA  01AE               	clrf	___fldiv@new_exp+1
  4736  0DEB                     l3247:
  4737  0DEB  3000               	movlw	0
  4738  0DEC  00A7               	movwf	___fldiv@b+3
  4739  0DED  3000               	movlw	0
  4740  0DEE  00A6               	movwf	___fldiv@b+2
  4741  0DEF  3000               	movlw	0
  4742  0DF0  00A5               	movwf	___fldiv@b+1
  4743  0DF1  3000               	movlw	0
  4744  0DF2  00A4               	movwf	___fldiv@b
  4745  0DF3                     l3249:
  4746  0DF3  01AC               	clrf	___fldiv@sign
  4747  0DF4                     l732:
  4748  0DF4  1283               	bcf	3,5	;RP0=0, select bank0
  4749  0DF5  1303               	bcf	3,6	;RP1=0, select bank0
  4750  0DF6  082D               	movf	___fldiv@new_exp,w
  4751  0DF7  00F3               	movwf	??___fldiv
  4752  0DF8  0873               	movf	??___fldiv,w
  4753  0DF9  00B3               	movwf	___fldiv@bexp
  4754  0DFA                     l3251:
  4755  0DFA  1C33               	btfss	___fldiv@bexp,0
  4756  0DFB  2DFD               	goto	u5041
  4757  0DFC  2DFE               	goto	u5040
  4758  0DFD                     u5041:
  4759  0DFD  2E00               	goto	l3255
  4760  0DFE                     u5040:
  4761  0DFE                     l3253:
  4762  0DFE  17A6               	bsf	___fldiv@b+2,7
  4763  0DFF  2E04               	goto	l734
  4764  0E00                     l3255:
  4765  0E00  307F               	movlw	127
  4766  0E01  00F3               	movwf	??___fldiv
  4767  0E02  0873               	movf	??___fldiv,w
  4768  0E03  05A6               	andwf	___fldiv@b+2,f
  4769  0E04                     l734:
  4770  0E04  0833               	movf	___fldiv@bexp,w
  4771  0E05  00F3               	movwf	??___fldiv
  4772  0E06  1003               	clrc
  4773  0E07  0C73               	rrf	??___fldiv,w
  4774  0E08  00F4               	movwf	??___fldiv+1
  4775  0E09  0874               	movf	??___fldiv+1,w
  4776  0E0A  00A7               	movwf	___fldiv@b+3
  4777  0E0B  082C               	movf	___fldiv@sign,w
  4778  0E0C  00F3               	movwf	??___fldiv
  4779  0E0D  0873               	movf	??___fldiv,w
  4780  0E0E  04A7               	iorwf	___fldiv@b+3,f
  4781  0E0F  2CA8               	goto	l3163
  4782  0E10                     l712:
  4783  0E10  0008               	return
  4784  0E11                     __end_of___fldiv:
  4785                           
  4786                           	psect	text14
  4787  17A2                     __ptext14:	
  4788 ;; *************** function _SendLCDString *****************
  4789 ;; Defined at:
  4790 ;;		line 431 in file "main.c"
  4791 ;; Parameters:    Size  Location     Type
  4792 ;;  string          1    wreg     PTR const unsigned char 
  4793 ;;		 -> STR_5(17), STR_4(33), STR_3(28), STR_2(1), 
  4794 ;;		 -> STR_1(15), 
  4795 ;; Auto vars:     Size  Location     Type
  4796 ;;  string          1    0[BANK0 ] PTR const unsigned char 
  4797 ;;		 -> STR_5(17), STR_4(33), STR_3(28), STR_2(1), 
  4798 ;;		 -> STR_1(15), 
  4799 ;;  i               1    1[BANK0 ] unsigned char 
  4800 ;; Return value:  Size  Location     Type
  4801 ;;                  1    wreg      void 
  4802 ;; Registers used:
  4803 ;;		wreg, fsr0l, fsr0h, status,2, status,0, pclath, cstack
  4804 ;; Tracked objects:
  4805 ;;		On entry : 0/0
  4806 ;;		On exit  : 0/0
  4807 ;;		Unchanged: 0/0
  4808 ;; Data sizes:     COMMON   BANK0   BANK1   BANK3   BANK2
  4809 ;;      Params:         0       0       0       0       0
  4810 ;;      Locals:         0       2       0       0       0
  4811 ;;      Temps:          1       0       0       0       0
  4812 ;;      Totals:         1       2       0       0       0
  4813 ;;Total ram usage:        3 bytes
  4814 ;; Hardware stack levels used: 1
  4815 ;; Hardware stack levels required when called: 2
  4816 ;; This function calls:
  4817 ;;		_SendLCD
  4818 ;; This function is called by:
  4819 ;;		_main
  4820 ;;		_ManageDisplays
  4821 ;; This function uses a non-reentrant model
  4822 ;;
  4823                           
  4824                           
  4825                           ;psect for function _SendLCDString
  4826  17A2                     _SendLCDString:
  4827                           
  4828                           ;incstack = 0
  4829                           ; Regs used in _SendLCDString: [wreg-fsr0h+status,2+status,0+pclath+cstack]
  4830                           ;SendLCDString@string stored from wreg
  4831  17A2  1283               	bcf	3,5	;RP0=0, select bank0
  4832  17A3  1303               	bcf	3,6	;RP1=0, select bank0
  4833  17A4  00A0               	movwf	SendLCDString@string
  4834  17A5                     l3261:
  4835                           
  4836                           ;main.c: 431: void SendLCDString(const char *string);main.c: 432: {;main.c: 433:     cha
      +                          r i = 0;
  4837  17A5  01A1               	clrf	SendLCDString@i
  4838                           
  4839                           ;main.c: 434:     while(string[i] != '\0')
  4840  17A6  2FF2               	goto	l3281
  4841  17A7                     l3263:
  4842                           
  4843                           ;main.c: 435:     {;main.c: 436:         if (i<16)
  4844  17A7  3010               	movlw	16
  4845  17A8  0221               	subwf	SendLCDString@i,w
  4846  17A9  1803               	skipnc
  4847  17AA  2FAC               	goto	u5051
  4848  17AB  2FAD               	goto	u5050
  4849  17AC                     u5051:
  4850  17AC  2FC3               	goto	l3269
  4851  17AD                     u5050:
  4852  17AD                     l3265:
  4853                           
  4854                           ;main.c: 437:         {;main.c: 438:             SendLCD(string[i], 0x01);
  4855  17AD  01F3               	clrf	SendLCD@type
  4856  17AE  0AF3               	incf	SendLCD@type,f
  4857  17AF  0821               	movf	SendLCDString@i,w
  4858  17B0  0720               	addwf	SendLCDString@string,w
  4859  17B1  0084               	movwf	4
  4860  17B2  120A  158A  2000  160A  118A  	fcall	stringdir
  4861  17B7  160A  118A  2632  160A  118A  	fcall	_SendLCD
  4862  17BC                     l3267:
  4863                           
  4864                           ;main.c: 439:             i++;
  4865  17BC  3001               	movlw	1
  4866  17BD  00F7               	movwf	??_SendLCDString
  4867  17BE  0877               	movf	??_SendLCDString,w
  4868  17BF  1283               	bcf	3,5	;RP0=0, select bank0
  4869  17C0  1303               	bcf	3,6	;RP1=0, select bank0
  4870  17C1  07A1               	addwf	SendLCDString@i,f
  4871                           
  4872                           ;main.c: 440:         }
  4873  17C2  2FF2               	goto	l3281
  4874  17C3                     l3269:
  4875  17C3  3010               	movlw	16
  4876  17C4  0621               	xorwf	SendLCDString@i,w
  4877  17C5  1D03               	btfss	3,2
  4878  17C6  2FC8               	goto	u5061
  4879  17C7  2FC9               	goto	u5060
  4880  17C8                     u5061:
  4881  17C8  2FE2               	goto	l3277
  4882  17C9                     u5060:
  4883  17C9                     l3271:
  4884                           
  4885                           ;main.c: 442:         {;main.c: 443:             SendLCD(0xC0, 0x00);
  4886  17C9  01F3               	clrf	SendLCD@type
  4887  17CA  30C0               	movlw	192
  4888  17CB  160A  118A  2632  160A  118A  	fcall	_SendLCD
  4889  17D0                     l3273:
  4890                           
  4891                           ;main.c: 444:             SendLCD(string[i], 0x01);
  4892  17D0  01F3               	clrf	SendLCD@type
  4893  17D1  0AF3               	incf	SendLCD@type,f
  4894  17D2  1283               	bcf	3,5	;RP0=0, select bank0
  4895  17D3  1303               	bcf	3,6	;RP1=0, select bank0
  4896  17D4  0821               	movf	SendLCDString@i,w
  4897  17D5  0720               	addwf	SendLCDString@string,w
  4898  17D6  0084               	movwf	4
  4899  17D7  120A  158A  2000  160A  118A  	fcall	stringdir
  4900  17DC  160A  118A  2632  160A  118A  	fcall	_SendLCD
  4901  17E1  2FBC               	goto	l3267
  4902  17E2                     l3277:
  4903                           
  4904                           ;main.c: 448:         {;main.c: 449:             SendLCD(string[i], 0x01);
  4905  17E2  01F3               	clrf	SendLCD@type
  4906  17E3  0AF3               	incf	SendLCD@type,f
  4907  17E4  0821               	movf	SendLCDString@i,w
  4908  17E5  0720               	addwf	SendLCDString@string,w
  4909  17E6  0084               	movwf	4
  4910  17E7  120A  158A  2000  160A  118A  	fcall	stringdir
  4911  17EC  160A  118A  2632  160A  118A  	fcall	_SendLCD
  4912  17F1  2FBC               	goto	l3267
  4913  17F2                     l3281:
  4914                           
  4915                           ;main.c: 434:     while(string[i] != '\0')
  4916  17F2  0821               	movf	SendLCDString@i,w
  4917  17F3  0720               	addwf	SendLCDString@string,w
  4918  17F4  0084               	movwf	4
  4919  17F5  120A  158A  2000  160A  118A  	fcall	stringdir
  4920  17FA  3A00               	xorlw	0
  4921  17FB  1D03               	skipz
  4922  17FC  2FFE               	goto	u5071
  4923  17FD  2FFF               	goto	u5070
  4924  17FE                     u5071:
  4925  17FE  2FA7               	goto	l3263
  4926  17FF                     u5070:
  4927  17FF                     l266:
  4928  17FF  0008               	return
  4929  1800                     __end_of_SendLCDString:
  4930                           
  4931                           	psect	text15
  4932  070F                     __ptext15:	
  4933 ;; *************** function _HandleKeypadReading *****************
  4934 ;; Defined at:
  4935 ;;		line 283 in file "main.c"
  4936 ;; Parameters:    Size  Location     Type
  4937 ;;  value           1    wreg     unsigned char 
  4938 ;; Auto vars:     Size  Location     Type
  4939 ;;  value           1   29[BANK0 ] unsigned char 
  4940 ;; Return value:  Size  Location     Type
  4941 ;;                  1    wreg      void 
  4942 ;; Registers used:
  4943 ;;		wreg, status,2, status,0, btemp+1, pclath, cstack
  4944 ;; Tracked objects:
  4945 ;;		On entry : 0/0
  4946 ;;		On exit  : 0/0
  4947 ;;		Unchanged: 0/0
  4948 ;; Data sizes:     COMMON   BANK0   BANK1   BANK3   BANK2
  4949 ;;      Params:         0       0       0       0       0
  4950 ;;      Locals:         0       1       0       0       0
  4951 ;;      Temps:          0       1       0       0       0
  4952 ;;      Totals:         0       2       0       0       0
  4953 ;;Total ram usage:        2 bytes
  4954 ;; Hardware stack levels used: 1
  4955 ;; Hardware stack levels required when called: 3
  4956 ;; This function calls:
  4957 ;;		___fladd
  4958 ;;		___flge
  4959 ;;		___flsub
  4960 ;; This function is called by:
  4961 ;;		_ManageDisplays
  4962 ;; This function uses a non-reentrant model
  4963 ;;
  4964                           
  4965                           
  4966                           ;psect for function _HandleKeypadReading
  4967  070F                     _HandleKeypadReading:
  4968                           
  4969                           ;incstack = 0
  4970                           ; Regs used in _HandleKeypadReading: [wreg+status,2+status,0+btemp+1+pclath+cstack]
  4971                           ;HandleKeypadReading@value stored from wreg
  4972  070F  1283               	bcf	3,5	;RP0=0, select bank0
  4973  0710  1303               	bcf	3,6	;RP1=0, select bank0
  4974  0711  00BD               	movwf	HandleKeypadReading@value
  4975  0712                     l3293:
  4976                           
  4977                           ;main.c: 283: void HandleKeypadReading(unsigned char value);main.c: 284: {;main.c: 285: 
      +                              if(value == 6)
  4978  0712  3006               	movlw	6
  4979  0713  063D               	xorwf	HandleKeypadReading@value,w
  4980  0714  1D03               	btfss	3,2
  4981  0715  2F17               	goto	u5091
  4982  0716  2F18               	goto	u5090
  4983  0717                     u5091:
  4984  0717  2F1C               	goto	l198
  4985  0718                     u5090:
  4986  0718                     l3295:
  4987                           
  4988                           ;main.c: 286:         currentDisplay ++;
  4989  0718  3001               	movlw	1
  4990  0719  00BC               	movwf	??_HandleKeypadReading
  4991  071A  083C               	movf	??_HandleKeypadReading,w
  4992  071B  07F8               	addwf	_currentDisplay,f
  4993  071C                     l198:
  4994                           
  4995                           ;main.c: 288:     if(value == 4)
  4996  071C  3004               	movlw	4
  4997  071D  063D               	xorwf	HandleKeypadReading@value,w
  4998  071E  1D03               	btfss	3,2
  4999  071F  2F21               	goto	u5101
  5000  0720  2F22               	goto	u5100
  5001  0721                     u5101:
  5002  0721  2F24               	goto	l199
  5003  0722                     u5100:
  5004  0722                     l3297:
  5005                           
  5006                           ;main.c: 289:         currentDisplay --;
  5007  0722  3001               	movlw	1
  5008  0723  02F8               	subwf	_currentDisplay,f
  5009  0724                     l199:
  5010                           
  5011                           ;main.c: 291:     if(value == 2 && currentDisplay == 3)
  5012  0724  3002               	movlw	2
  5013  0725  063D               	xorwf	HandleKeypadReading@value,w
  5014  0726  1D03               	btfss	3,2
  5015  0727  2F29               	goto	u5111
  5016  0728  2F2A               	goto	u5110
  5017  0729                     u5111:
  5018  0729  2F4F               	goto	l3303
  5019  072A                     u5110:
  5020  072A                     l3299:
  5021  072A  3003               	movlw	3
  5022  072B  0678               	xorwf	_currentDisplay,w
  5023  072C  1D03               	btfss	3,2
  5024  072D  2F2F               	goto	u5121
  5025  072E  2F30               	goto	u5120
  5026  072F                     u5121:
  5027  072F  2F4F               	goto	l3303
  5028  0730                     u5120:
  5029  0730                     l3301:
  5030                           
  5031                           ;main.c: 292:         setTemp += 0.1;
  5032  0730  303D               	movlw	61
  5033  0731  00A3               	movwf	___fladd@b+3
  5034  0732  30CC               	movlw	204
  5035  0733  00A2               	movwf	___fladd@b+2
  5036  0734  30CC               	movlw	204
  5037  0735  00A1               	movwf	___fladd@b+1
  5038  0736  30CD               	movlw	205
  5039  0737  00A0               	movwf	___fladd@b
  5040  0738  086B               	movf	_setTemp+3,w
  5041  0739  00A7               	movwf	___fladd@a+3
  5042  073A  086A               	movf	_setTemp+2,w
  5043  073B  00A6               	movwf	___fladd@a+2
  5044  073C  0869               	movf	_setTemp+1,w
  5045  073D  00A5               	movwf	___fladd@a+1
  5046  073E  0868               	movf	_setTemp,w
  5047  073F  00A4               	movwf	___fladd@a
  5048  0740  120A  118A  23A2  120A  118A  	fcall	___fladd
  5049  0745  1283               	bcf	3,5	;RP0=0, select bank0
  5050  0746  1303               	bcf	3,6	;RP1=0, select bank0
  5051  0747  0823               	movf	?___fladd+3,w
  5052  0748  00EB               	movwf	_setTemp+3
  5053  0749  0822               	movf	?___fladd+2,w
  5054  074A  00EA               	movwf	_setTemp+2
  5055  074B  0821               	movf	?___fladd+1,w
  5056  074C  00E9               	movwf	_setTemp+1
  5057  074D  0820               	movf	?___fladd,w
  5058  074E  00E8               	movwf	_setTemp
  5059  074F                     l3303:
  5060                           
  5061                           ;main.c: 294:     if(value == 8 && currentDisplay == 3)
  5062  074F  3008               	movlw	8
  5063  0750  063D               	xorwf	HandleKeypadReading@value,w
  5064  0751  1D03               	btfss	3,2
  5065  0752  2F54               	goto	u5131
  5066  0753  2F55               	goto	u5130
  5067  0754                     u5131:
  5068  0754  2F7A               	goto	l3309
  5069  0755                     u5130:
  5070  0755                     l3305:
  5071  0755  3003               	movlw	3
  5072  0756  0678               	xorwf	_currentDisplay,w
  5073  0757  1D03               	btfss	3,2
  5074  0758  2F5A               	goto	u5141
  5075  0759  2F5B               	goto	u5140
  5076  075A                     u5141:
  5077  075A  2F7A               	goto	l3309
  5078  075B                     u5140:
  5079  075B                     l3307:
  5080                           
  5081                           ;main.c: 295:         setTemp -= 0.1;
  5082  075B  303D               	movlw	61
  5083  075C  00B3               	movwf	___flsub@a+3
  5084  075D  30CC               	movlw	204
  5085  075E  00B2               	movwf	___flsub@a+2
  5086  075F  30CC               	movlw	204
  5087  0760  00B1               	movwf	___flsub@a+1
  5088  0761  30CD               	movlw	205
  5089  0762  00B0               	movwf	___flsub@a
  5090  0763  086B               	movf	_setTemp+3,w
  5091  0764  00B7               	movwf	___flsub@b+3
  5092  0765  086A               	movf	_setTemp+2,w
  5093  0766  00B6               	movwf	___flsub@b+2
  5094  0767  0869               	movf	_setTemp+1,w
  5095  0768  00B5               	movwf	___flsub@b+1
  5096  0769  0868               	movf	_setTemp,w
  5097  076A  00B4               	movwf	___flsub@b
  5098  076B  160A  118A  258E  120A  118A  	fcall	___flsub
  5099  0770  1283               	bcf	3,5	;RP0=0, select bank0
  5100  0771  1303               	bcf	3,6	;RP1=0, select bank0
  5101  0772  0833               	movf	?___flsub+3,w
  5102  0773  00EB               	movwf	_setTemp+3
  5103  0774  0832               	movf	?___flsub+2,w
  5104  0775  00EA               	movwf	_setTemp+2
  5105  0776  0831               	movf	?___flsub+1,w
  5106  0777  00E9               	movwf	_setTemp+1
  5107  0778  0830               	movf	?___flsub,w
  5108  0779  00E8               	movwf	_setTemp
  5109  077A                     l3309:
  5110                           
  5111                           ;main.c: 297:     if(currentDisplay >= 4)
  5112  077A  3004               	movlw	4
  5113  077B  0278               	subwf	_currentDisplay,w
  5114  077C  1C03               	skipc
  5115  077D  2F7F               	goto	u5151
  5116  077E  2F80               	goto	u5150
  5117  077F                     u5151:
  5118  077F  2F82               	goto	l3313
  5119  0780                     u5150:
  5120  0780                     l3311:
  5121                           
  5122                           ;main.c: 298:         currentDisplay = 1;
  5123  0780  01F8               	clrf	_currentDisplay
  5124  0781  0AF8               	incf	_currentDisplay,f
  5125  0782                     l3313:
  5126                           
  5127                           ;main.c: 300:     if(currentDisplay == 0)
  5128  0782  0878               	movf	_currentDisplay,w
  5129  0783  1D03               	btfss	3,2
  5130  0784  2F86               	goto	u5161
  5131  0785  2F87               	goto	u5160
  5132  0786                     u5161:
  5133  0786  2F8B               	goto	l3317
  5134  0787                     u5160:
  5135  0787                     l3315:
  5136                           
  5137                           ;main.c: 301:         currentDisplay = 4 -1;
  5138  0787  3003               	movlw	3
  5139  0788  00BC               	movwf	??_HandleKeypadReading
  5140  0789  083C               	movf	??_HandleKeypadReading,w
  5141  078A  00F8               	movwf	_currentDisplay
  5142  078B                     l3317:
  5143                           
  5144                           ;main.c: 303:     if(setTemp > maxSetTemp)
  5145  078B  3042               	movlw	66
  5146  078C  00B3               	movwf	___flge@ff1+3
  5147  078D  300C               	movlw	12
  5148  078E  00B2               	movwf	___flge@ff1+2
  5149  078F  3000               	movlw	0
  5150  0790  00B1               	movwf	___flge@ff1+1
  5151  0791  3000               	movlw	0
  5152  0792  00B0               	movwf	___flge@ff1
  5153  0793  086B               	movf	_setTemp+3,w
  5154  0794  00B7               	movwf	___flge@ff2+3
  5155  0795  086A               	movf	_setTemp+2,w
  5156  0796  00B6               	movwf	___flge@ff2+2
  5157  0797  0869               	movf	_setTemp+1,w
  5158  0798  00B5               	movwf	___flge@ff2+1
  5159  0799  0868               	movf	_setTemp,w
  5160  079A  00B4               	movwf	___flge@ff2
  5161  079B  120A  158A  22D4  120A  118A  	fcall	___flge
  5162  07A0  1803               	btfsc	3,0
  5163  07A1  2FA3               	goto	u5171
  5164  07A2  2FA4               	goto	u5170
  5165  07A3                     u5171:
  5166  07A3  2FAE               	goto	l3321
  5167  07A4                     u5170:
  5168  07A4                     l3319:
  5169                           
  5170                           ;main.c: 304:         setTemp = maxSetTemp;
  5171  07A4  3042               	movlw	66
  5172  07A5  1283               	bcf	3,5	;RP0=0, select bank0
  5173  07A6  1303               	bcf	3,6	;RP1=0, select bank0
  5174  07A7  00EB               	movwf	_setTemp+3
  5175  07A8  300C               	movlw	12
  5176  07A9  00EA               	movwf	_setTemp+2
  5177  07AA  3000               	movlw	0
  5178  07AB  00E9               	movwf	_setTemp+1
  5179  07AC  3000               	movlw	0
  5180  07AD  00E8               	movwf	_setTemp
  5181  07AE                     l3321:
  5182                           
  5183                           ;main.c: 306:     if(setTemp < minSetTemp)
  5184  07AE  1283               	bcf	3,5	;RP0=0, select bank0
  5185  07AF  1303               	bcf	3,6	;RP1=0, select bank0
  5186  07B0  086B               	movf	_setTemp+3,w
  5187  07B1  00B3               	movwf	___flge@ff1+3
  5188  07B2  086A               	movf	_setTemp+2,w
  5189  07B3  00B2               	movwf	___flge@ff1+2
  5190  07B4  0869               	movf	_setTemp+1,w
  5191  07B5  00B1               	movwf	___flge@ff1+1
  5192  07B6  0868               	movf	_setTemp,w
  5193  07B7  00B0               	movwf	___flge@ff1
  5194  07B8  3041               	movlw	65
  5195  07B9  00B7               	movwf	___flge@ff2+3
  5196  07BA  3040               	movlw	64
  5197  07BB  00B6               	movwf	___flge@ff2+2
  5198  07BC  3000               	movlw	0
  5199  07BD  00B5               	movwf	___flge@ff2+1
  5200  07BE  3000               	movlw	0
  5201  07BF  00B4               	movwf	___flge@ff2
  5202  07C0  120A  158A  22D4  120A  118A  	fcall	___flge
  5203  07C5  1803               	btfsc	3,0
  5204  07C6  2FC8               	goto	u5181
  5205  07C7  2FC9               	goto	u5180
  5206  07C8                     u5181:
  5207  07C8  2FD3               	goto	l206
  5208  07C9                     u5180:
  5209  07C9                     l3323:
  5210                           
  5211                           ;main.c: 307:         setTemp = minSetTemp;
  5212  07C9  3041               	movlw	65
  5213  07CA  1283               	bcf	3,5	;RP0=0, select bank0
  5214  07CB  1303               	bcf	3,6	;RP1=0, select bank0
  5215  07CC  00EB               	movwf	_setTemp+3
  5216  07CD  3040               	movlw	64
  5217  07CE  00EA               	movwf	_setTemp+2
  5218  07CF  3000               	movlw	0
  5219  07D0  00E9               	movwf	_setTemp+1
  5220  07D1  3000               	movlw	0
  5221  07D2  00E8               	movwf	_setTemp
  5222  07D3                     l206:
  5223  07D3  0008               	return
  5224  07D4                     __end_of_HandleKeypadReading:
  5225                           
  5226                           	psect	text16
  5227  158E                     __ptext16:	
  5228 ;; *************** function ___flsub *****************
  5229 ;; Defined at:
  5230 ;;		line 242 in file "C:\Program Files\Microchip\xc8\v2.32\pic\sources\c90\common\sprcadd.c"
  5231 ;; Parameters:    Size  Location     Type
  5232 ;;  a               4   16[BANK0 ] void 
  5233 ;;  b               4   20[BANK0 ] void 
  5234 ;; Auto vars:     Size  Location     Type
  5235 ;;		None
  5236 ;; Return value:  Size  Location     Type
  5237 ;;                  4   16[BANK0 ] void 
  5238 ;; Registers used:
  5239 ;;		wreg, status,2, status,0, btemp+1, pclath, cstack
  5240 ;; Tracked objects:
  5241 ;;		On entry : 0/0
  5242 ;;		On exit  : 0/0
  5243 ;;		Unchanged: 0/0
  5244 ;; Data sizes:     COMMON   BANK0   BANK1   BANK3   BANK2
  5245 ;;      Params:         0       8       0       0       0
  5246 ;;      Locals:         0       0       0       0       0
  5247 ;;      Temps:          0       0       0       0       0
  5248 ;;      Totals:         0       8       0       0       0
  5249 ;;Total ram usage:        8 bytes
  5250 ;; Hardware stack levels used: 1
  5251 ;; Hardware stack levels required when called: 2
  5252 ;; This function calls:
  5253 ;;		___fladd
  5254 ;; This function is called by:
  5255 ;;		_main
  5256 ;;		_HandleKeypadReading
  5257 ;;		_UpdateLCDViewWithNumber
  5258 ;; This function uses a non-reentrant model
  5259 ;;
  5260                           
  5261                           
  5262                           ;psect for function ___flsub
  5263  158E                     ___flsub:
  5264  158E                     l3113:	
  5265                           ;incstack = 0
  5266                           ; Regs used in ___flsub: [wreg+status,2+status,0+btemp+1+pclath+cstack]
  5267                           
  5268  158E  3080               	movlw	128
  5269  158F  1283               	bcf	3,5	;RP0=0, select bank0
  5270  1590  1303               	bcf	3,6	;RP1=0, select bank0
  5271  1591  06B3               	xorwf	___flsub@a+3,f
  5272  1592                     l3115:
  5273  1592  0837               	movf	___flsub@b+3,w
  5274  1593  00A3               	movwf	___fladd@b+3
  5275  1594  0836               	movf	___flsub@b+2,w
  5276  1595  00A2               	movwf	___fladd@b+2
  5277  1596  0835               	movf	___flsub@b+1,w
  5278  1597  00A1               	movwf	___fladd@b+1
  5279  1598  0834               	movf	___flsub@b,w
  5280  1599  00A0               	movwf	___fladd@b
  5281  159A  0833               	movf	___flsub@a+3,w
  5282  159B  00A7               	movwf	___fladd@a+3
  5283  159C  0832               	movf	___flsub@a+2,w
  5284  159D  00A6               	movwf	___fladd@a+2
  5285  159E  0831               	movf	___flsub@a+1,w
  5286  159F  00A5               	movwf	___fladd@a+1
  5287  15A0  0830               	movf	___flsub@a,w
  5288  15A1  00A4               	movwf	___fladd@a
  5289  15A2  120A  118A  23A2  160A  118A  	fcall	___fladd
  5290  15A7  1283               	bcf	3,5	;RP0=0, select bank0
  5291  15A8  1303               	bcf	3,6	;RP1=0, select bank0
  5292  15A9  0823               	movf	?___fladd+3,w
  5293  15AA  00B3               	movwf	?___flsub+3
  5294  15AB  0822               	movf	?___fladd+2,w
  5295  15AC  00B2               	movwf	?___flsub+2
  5296  15AD  0821               	movf	?___fladd+1,w
  5297  15AE  00B1               	movwf	?___flsub+1
  5298  15AF  0820               	movf	?___fladd,w
  5299  15B0  00B0               	movwf	?___flsub
  5300  15B1                     l700:
  5301  15B1  0008               	return
  5302  15B2                     __end_of___flsub:
  5303                           
  5304                           	psect	text17
  5305  03A2                     __ptext17:	
  5306 ;; *************** function ___fladd *****************
  5307 ;; Defined at:
  5308 ;;		line 10 in file "C:\Program Files\Microchip\xc8\v2.32\pic\sources\c90\common\sprcadd.c"
  5309 ;; Parameters:    Size  Location     Type
  5310 ;;  b               4    0[BANK0 ] void 
  5311 ;;  a               4    4[BANK0 ] void 
  5312 ;; Auto vars:     Size  Location     Type
  5313 ;;  grs             1    6[COMMON] unsigned char 
  5314 ;;  bexp            1    5[COMMON] unsigned char 
  5315 ;;  aexp            1    4[COMMON] unsigned char 
  5316 ;;  signs           1    3[COMMON] unsigned char 
  5317 ;; Return value:  Size  Location     Type
  5318 ;;                  4    0[BANK0 ] unsigned char 
  5319 ;; Registers used:
  5320 ;;		wreg, status,2, status,0, btemp+1
  5321 ;; Tracked objects:
  5322 ;;		On entry : 0/0
  5323 ;;		On exit  : 0/0
  5324 ;;		Unchanged: 0/0
  5325 ;; Data sizes:     COMMON   BANK0   BANK1   BANK3   BANK2
  5326 ;;      Params:         0       8       0       0       0
  5327 ;;      Locals:         4       0       0       0       0
  5328 ;;      Temps:          0       8       0       0       0
  5329 ;;      Totals:         4      16       0       0       0
  5330 ;;Total ram usage:       20 bytes
  5331 ;; Hardware stack levels used: 1
  5332 ;; Hardware stack levels required when called: 1
  5333 ;; This function calls:
  5334 ;;		Nothing
  5335 ;; This function is called by:
  5336 ;;		_main
  5337 ;;		_HandleKeypadReading
  5338 ;;		_ReadHumidity
  5339 ;;		___flsub
  5340 ;; This function uses a non-reentrant model
  5341 ;;
  5342                           
  5343                           
  5344                           ;psect for function ___fladd
  5345  03A2                     ___fladd:
  5346  03A2                     l2887:	
  5347                           ;incstack = 0
  5348                           ; Regs used in ___fladd: [wreg+status,2+status,0+btemp+1]
  5349                           
  5350  03A2  1283               	bcf	3,5	;RP0=0, select bank0
  5351  03A3  1303               	bcf	3,6	;RP1=0, select bank0
  5352  03A4  0823               	movf	___fladd@b+3,w
  5353  03A5  3980               	andlw	128
  5354  03A6  00A8               	movwf	??___fladd
  5355  03A7  0828               	movf	??___fladd,w
  5356  03A8  00F3               	movwf	___fladd@signs
  5357  03A9                     l2889:
  5358  03A9  0823               	movf	___fladd@b+3,w
  5359  03AA  00A8               	movwf	??___fladd
  5360  03AB  0728               	addwf	??___fladd,w
  5361  03AC  00A9               	movwf	??___fladd+1
  5362  03AD  0829               	movf	??___fladd+1,w
  5363  03AE  00F5               	movwf	___fladd@bexp
  5364  03AF                     l2891:
  5365  03AF  1FA2               	btfss	___fladd@b+2,7
  5366  03B0  2BB2               	goto	u4251
  5367  03B1  2BB3               	goto	u4250
  5368  03B2                     u4251:
  5369  03B2  2BB4               	goto	l2895
  5370  03B3                     u4250:
  5371  03B3                     l2893:
  5372  03B3  1475               	bsf	___fladd@bexp,0
  5373  03B4                     l2895:
  5374  03B4  0875               	movf	___fladd@bexp,w
  5375  03B5  1903               	btfsc	3,2
  5376  03B6  2BB8               	goto	u4261
  5377  03B7  2BB9               	goto	u4260
  5378  03B8                     u4261:
  5379  03B8  2BC9               	goto	l2905
  5380  03B9                     u4260:
  5381  03B9                     l2897:
  5382  03B9  0A75               	incf	___fladd@bexp,w
  5383  03BA  1D03               	btfss	3,2
  5384  03BB  2BBD               	goto	u4271
  5385  03BC  2BBE               	goto	u4270
  5386  03BD                     u4271:
  5387  03BD  2BC6               	goto	l2901
  5388  03BE                     u4270:
  5389  03BE                     l2899:
  5390  03BE  3000               	movlw	0
  5391  03BF  00A3               	movwf	___fladd@b+3
  5392  03C0  3000               	movlw	0
  5393  03C1  00A2               	movwf	___fladd@b+2
  5394  03C2  3000               	movlw	0
  5395  03C3  00A1               	movwf	___fladd@b+1
  5396  03C4  3000               	movlw	0
  5397  03C5  00A0               	movwf	___fladd@b
  5398  03C6                     l2901:
  5399  03C6  17A2               	bsf	___fladd@b+2,7
  5400  03C7                     l2903:
  5401  03C7  01A3               	clrf	___fladd@b+3
  5402  03C8  2BD1               	goto	l2907
  5403  03C9                     l2905:
  5404  03C9  3000               	movlw	0
  5405  03CA  00A3               	movwf	___fladd@b+3
  5406  03CB  3000               	movlw	0
  5407  03CC  00A2               	movwf	___fladd@b+2
  5408  03CD  3000               	movlw	0
  5409  03CE  00A1               	movwf	___fladd@b+1
  5410  03CF  3000               	movlw	0
  5411  03D0  00A0               	movwf	___fladd@b
  5412  03D1                     l2907:
  5413  03D1  0827               	movf	___fladd@a+3,w
  5414  03D2  3980               	andlw	128
  5415  03D3  00A8               	movwf	??___fladd
  5416  03D4  0828               	movf	??___fladd,w
  5417  03D5  00F4               	movwf	___fladd@aexp
  5418  03D6                     l2909:
  5419  03D6  0874               	movf	___fladd@aexp,w
  5420  03D7  0673               	xorwf	___fladd@signs,w
  5421  03D8  1903               	skipnz
  5422  03D9  2BDB               	goto	u4281
  5423  03DA  2BDC               	goto	u4280
  5424  03DB                     u4281:
  5425  03DB  2BDD               	goto	l2913
  5426  03DC                     u4280:
  5427  03DC                     l2911:
  5428  03DC  1773               	bsf	___fladd@signs,6
  5429  03DD                     l2913:
  5430  03DD  0827               	movf	___fladd@a+3,w
  5431  03DE  00A8               	movwf	??___fladd
  5432  03DF  0728               	addwf	??___fladd,w
  5433  03E0  00A9               	movwf	??___fladd+1
  5434  03E1  0829               	movf	??___fladd+1,w
  5435  03E2  00F4               	movwf	___fladd@aexp
  5436  03E3                     l2915:
  5437  03E3  1FA6               	btfss	___fladd@a+2,7
  5438  03E4  2BE6               	goto	u4291
  5439  03E5  2BE7               	goto	u4290
  5440  03E6                     u4291:
  5441  03E6  2BE8               	goto	l2919
  5442  03E7                     u4290:
  5443  03E7                     l2917:
  5444  03E7  1474               	bsf	___fladd@aexp,0
  5445  03E8                     l2919:
  5446  03E8  0874               	movf	___fladd@aexp,w
  5447  03E9  1903               	btfsc	3,2
  5448  03EA  2BEC               	goto	u4301
  5449  03EB  2BED               	goto	u4300
  5450  03EC                     u4301:
  5451  03EC  2BFD               	goto	l2929
  5452  03ED                     u4300:
  5453  03ED                     l2921:
  5454  03ED  0A74               	incf	___fladd@aexp,w
  5455  03EE  1D03               	btfss	3,2
  5456  03EF  2BF1               	goto	u4311
  5457  03F0  2BF2               	goto	u4310
  5458  03F1                     u4311:
  5459  03F1  2BFA               	goto	l2925
  5460  03F2                     u4310:
  5461  03F2                     l2923:
  5462  03F2  3000               	movlw	0
  5463  03F3  00A7               	movwf	___fladd@a+3
  5464  03F4  3000               	movlw	0
  5465  03F5  00A6               	movwf	___fladd@a+2
  5466  03F6  3000               	movlw	0
  5467  03F7  00A5               	movwf	___fladd@a+1
  5468  03F8  3000               	movlw	0
  5469  03F9  00A4               	movwf	___fladd@a
  5470  03FA                     l2925:
  5471  03FA  17A6               	bsf	___fladd@a+2,7
  5472  03FB                     l2927:
  5473  03FB  01A7               	clrf	___fladd@a+3
  5474  03FC  2C05               	goto	l654
  5475  03FD                     l2929:
  5476  03FD  3000               	movlw	0
  5477  03FE  00A7               	movwf	___fladd@a+3
  5478  03FF  3000               	movlw	0
  5479  0400  00A6               	movwf	___fladd@a+2
  5480  0401  3000               	movlw	0
  5481  0402  00A5               	movwf	___fladd@a+1
  5482  0403  3000               	movlw	0
  5483  0404  00A4               	movwf	___fladd@a
  5484  0405                     l654:
  5485  0405  0875               	movf	___fladd@bexp,w
  5486  0406  0274               	subwf	___fladd@aexp,w
  5487  0407  1803               	skipnc
  5488  0408  2C0A               	goto	u4321
  5489  0409  2C0B               	goto	u4320
  5490  040A                     u4321:
  5491  040A  2C4F               	goto	l2965
  5492  040B                     u4320:
  5493  040B                     l2931:
  5494  040B  1F73               	btfss	___fladd@signs,6
  5495  040C  2C0E               	goto	u4331
  5496  040D  2C0F               	goto	u4330
  5497  040E                     u4331:
  5498  040E  2C13               	goto	l2935
  5499  040F                     u4330:
  5500  040F                     l2933:
  5501  040F  3080               	movlw	128
  5502  0410  00A8               	movwf	??___fladd
  5503  0411  0828               	movf	??___fladd,w
  5504  0412  06F3               	xorwf	___fladd@signs,f
  5505  0413                     l2935:
  5506  0413  0875               	movf	___fladd@bexp,w
  5507  0414  00A8               	movwf	??___fladd
  5508  0415  0828               	movf	??___fladd,w
  5509  0416  00F6               	movwf	___fladd@grs
  5510  0417                     l2937:
  5511  0417  0874               	movf	___fladd@aexp,w
  5512  0418  00A8               	movwf	??___fladd
  5513  0419  0828               	movf	??___fladd,w
  5514  041A  00F5               	movwf	___fladd@bexp
  5515  041B                     l2939:
  5516  041B  0876               	movf	___fladd@grs,w
  5517  041C  00A8               	movwf	??___fladd
  5518  041D  0828               	movf	??___fladd,w
  5519  041E  00F4               	movwf	___fladd@aexp
  5520  041F                     l2941:
  5521  041F  0820               	movf	___fladd@b,w
  5522  0420  00A8               	movwf	??___fladd
  5523  0421  0828               	movf	??___fladd,w
  5524  0422  00F6               	movwf	___fladd@grs
  5525  0423                     l2943:
  5526  0423  0824               	movf	___fladd@a,w
  5527  0424  00A8               	movwf	??___fladd
  5528  0425  0828               	movf	??___fladd,w
  5529  0426  00A0               	movwf	___fladd@b
  5530  0427                     l2945:
  5531  0427  0876               	movf	___fladd@grs,w
  5532  0428  00A8               	movwf	??___fladd
  5533  0429  0828               	movf	??___fladd,w
  5534  042A  00A4               	movwf	___fladd@a
  5535  042B                     l2947:
  5536  042B  0821               	movf	___fladd@b+1,w
  5537  042C  00A8               	movwf	??___fladd
  5538  042D  0828               	movf	??___fladd,w
  5539  042E  00F6               	movwf	___fladd@grs
  5540  042F                     l2949:
  5541  042F  0825               	movf	___fladd@a+1,w
  5542  0430  00A8               	movwf	??___fladd
  5543  0431  0828               	movf	??___fladd,w
  5544  0432  00A1               	movwf	___fladd@b+1
  5545  0433                     l2951:
  5546  0433  0876               	movf	___fladd@grs,w
  5547  0434  00A8               	movwf	??___fladd
  5548  0435  0828               	movf	??___fladd,w
  5549  0436  00A5               	movwf	___fladd@a+1
  5550  0437                     l2953:
  5551  0437  0822               	movf	___fladd@b+2,w
  5552  0438  00A8               	movwf	??___fladd
  5553  0439  0828               	movf	??___fladd,w
  5554  043A  00F6               	movwf	___fladd@grs
  5555  043B                     l2955:
  5556  043B  0826               	movf	___fladd@a+2,w
  5557  043C  00A8               	movwf	??___fladd
  5558  043D  0828               	movf	??___fladd,w
  5559  043E  00A2               	movwf	___fladd@b+2
  5560  043F                     l2957:
  5561  043F  0876               	movf	___fladd@grs,w
  5562  0440  00A8               	movwf	??___fladd
  5563  0441  0828               	movf	??___fladd,w
  5564  0442  00A6               	movwf	___fladd@a+2
  5565  0443                     l2959:
  5566  0443  0823               	movf	___fladd@b+3,w
  5567  0444  00A8               	movwf	??___fladd
  5568  0445  0828               	movf	??___fladd,w
  5569  0446  00F6               	movwf	___fladd@grs
  5570  0447                     l2961:
  5571  0447  0827               	movf	___fladd@a+3,w
  5572  0448  00A8               	movwf	??___fladd
  5573  0449  0828               	movf	??___fladd,w
  5574  044A  00A3               	movwf	___fladd@b+3
  5575  044B                     l2963:
  5576  044B  0876               	movf	___fladd@grs,w
  5577  044C  00A8               	movwf	??___fladd
  5578  044D  0828               	movf	??___fladd,w
  5579  044E  00A7               	movwf	___fladd@a+3
  5580  044F                     l2965:
  5581  044F  01F6               	clrf	___fladd@grs
  5582  0450                     l2967:
  5583  0450  0874               	movf	___fladd@aexp,w
  5584  0451  00A8               	movwf	??___fladd
  5585  0452  01A9               	clrf	??___fladd+1
  5586  0453  0829               	movf	??___fladd+1,w
  5587  0454  00AB               	movwf	??___fladd+3
  5588  0455  0875               	movf	___fladd@bexp,w
  5589  0456  0228               	subwf	??___fladd,w
  5590  0457  00AA               	movwf	??___fladd+2
  5591  0458  1C03               	skipc
  5592  0459  03AB               	decf	??___fladd+3,f
  5593  045A  082B               	movf	??___fladd+3,w
  5594  045B  3A80               	xorlw	128
  5595  045C  00FF               	movwf	btemp+1
  5596  045D  3080               	movlw	128
  5597  045E  027F               	subwf	btemp+1,w
  5598  045F  1D03               	skipz
  5599  0460  2C63               	goto	u4345
  5600  0461  301A               	movlw	26
  5601  0462  022A               	subwf	??___fladd+2,w
  5602  0463                     u4345:
  5603  0463  1C03               	skipc
  5604  0464  2C66               	goto	u4341
  5605  0465  2C67               	goto	u4340
  5606  0466                     u4341:
  5607  0466  2CA8               	goto	l2983
  5608  0467                     u4340:
  5609  0467                     l2969:
  5610  0467  1283               	bcf	3,5	;RP0=0, select bank0
  5611  0468  1303               	bcf	3,6	;RP1=0, select bank0
  5612  0469  0823               	movf	___fladd@b+3,w
  5613  046A  0422               	iorwf	___fladd@b+2,w
  5614  046B  0421               	iorwf	___fladd@b+1,w
  5615  046C  0420               	iorwf	___fladd@b,w
  5616  046D  1D03               	skipz
  5617  046E  2C70               	goto	u4351
  5618  046F  2C72               	goto	u4350
  5619  0470                     u4351:
  5620  0470  3001               	movlw	1
  5621  0471  2C73               	goto	u4360
  5622  0472                     u4350:
  5623  0472  3000               	movlw	0
  5624  0473                     u4360:
  5625  0473  00A8               	movwf	??___fladd
  5626  0474  0828               	movf	??___fladd,w
  5627  0475  00F6               	movwf	___fladd@grs
  5628  0476  3000               	movlw	0
  5629  0477  00A3               	movwf	___fladd@b+3
  5630  0478  3000               	movlw	0
  5631  0479  00A2               	movwf	___fladd@b+2
  5632  047A  3000               	movlw	0
  5633  047B  00A1               	movwf	___fladd@b+1
  5634  047C  3000               	movlw	0
  5635  047D  00A0               	movwf	___fladd@b
  5636  047E  0874               	movf	___fladd@aexp,w
  5637  047F  00A8               	movwf	??___fladd
  5638  0480  0828               	movf	??___fladd,w
  5639  0481  00F5               	movwf	___fladd@bexp
  5640  0482  2CAE               	goto	l658
  5641  0483                     l660:
  5642  0483  1C76               	btfss	___fladd@grs,0
  5643  0484  2C86               	goto	u4371
  5644  0485  2C87               	goto	u4370
  5645  0486                     u4371:
  5646  0486  2C92               	goto	l2973
  5647  0487                     u4370:
  5648  0487                     l2971:
  5649  0487  0876               	movf	___fladd@grs,w
  5650  0488  1283               	bcf	3,5	;RP0=0, select bank0
  5651  0489  1303               	bcf	3,6	;RP1=0, select bank0
  5652  048A  00A8               	movwf	??___fladd
  5653  048B  1003               	clrc
  5654  048C  0C28               	rrf	??___fladd,w
  5655  048D  3801               	iorlw	1
  5656  048E  00A9               	movwf	??___fladd+1
  5657  048F  0829               	movf	??___fladd+1,w
  5658  0490  00F6               	movwf	___fladd@grs
  5659  0491  2C94               	goto	l2975
  5660  0492                     l2973:
  5661  0492  1003               	clrc
  5662  0493  0CF6               	rrf	___fladd@grs,f
  5663  0494                     l2975:
  5664  0494  1283               	bcf	3,5	;RP0=0, select bank0
  5665  0495  1303               	bcf	3,6	;RP1=0, select bank0
  5666  0496  1C20               	btfss	___fladd@b,0
  5667  0497  2C99               	goto	u4381
  5668  0498  2C9A               	goto	u4380
  5669  0499                     u4381:
  5670  0499  2C9B               	goto	l2979
  5671  049A                     u4380:
  5672  049A                     l2977:
  5673  049A  17F6               	bsf	___fladd@grs,7
  5674  049B                     l2979:
  5675  049B  3001               	movlw	1
  5676  049C  00A8               	movwf	??___fladd
  5677  049D                     u4395:
  5678  049D  0D23               	rlf	___fladd@b+3,w
  5679  049E  0CA3               	rrf	___fladd@b+3,f
  5680  049F  0CA2               	rrf	___fladd@b+2,f
  5681  04A0  0CA1               	rrf	___fladd@b+1,f
  5682  04A1  0CA0               	rrf	___fladd@b,f
  5683  04A2  0BA8               	decfsz	??___fladd& (0+127),f
  5684  04A3  2C9D               	goto	u4395
  5685  04A4                     l2981:
  5686  04A4  3001               	movlw	1
  5687  04A5  00A8               	movwf	??___fladd
  5688  04A6  0828               	movf	??___fladd,w
  5689  04A7  07F5               	addwf	___fladd@bexp,f
  5690  04A8                     l2983:
  5691  04A8  0874               	movf	___fladd@aexp,w
  5692  04A9  0275               	subwf	___fladd@bexp,w
  5693  04AA  1C03               	skipc
  5694  04AB  2CAD               	goto	u4401
  5695  04AC  2CAE               	goto	u4400
  5696  04AD                     u4401:
  5697  04AD  2C83               	goto	l660
  5698  04AE                     u4400:
  5699  04AE                     l658:
  5700  04AE  1B73               	btfsc	___fladd@signs,6
  5701  04AF  2CB1               	goto	u4411
  5702  04B0  2CB2               	goto	u4410
  5703  04B1                     u4411:
  5704  04B1  2D01               	goto	l3009
  5705  04B2                     u4410:
  5706  04B2                     l2985:
  5707  04B2  0875               	movf	___fladd@bexp,w
  5708  04B3  1D03               	btfss	3,2
  5709  04B4  2CB6               	goto	u4421
  5710  04B5  2CB7               	goto	u4420
  5711  04B6                     u4421:
  5712  04B6  2CC2               	goto	l2991
  5713  04B7                     u4420:
  5714  04B7                     l2987:
  5715  04B7  3000               	movlw	0
  5716  04B8  1283               	bcf	3,5	;RP0=0, select bank0
  5717  04B9  1303               	bcf	3,6	;RP1=0, select bank0
  5718  04BA  00A3               	movwf	?___fladd+3
  5719  04BB  3000               	movlw	0
  5720  04BC  00A2               	movwf	?___fladd+2
  5721  04BD  3000               	movlw	0
  5722  04BE  00A1               	movwf	?___fladd+1
  5723  04BF  3000               	movlw	0
  5724  04C0  00A0               	movwf	?___fladd
  5725  04C1  2E31               	goto	l667
  5726  04C2                     l2991:
  5727  04C2  1283               	bcf	3,5	;RP0=0, select bank0
  5728  04C3  1303               	bcf	3,6	;RP1=0, select bank0
  5729  04C4  0824               	movf	___fladd@a,w
  5730  04C5  07A0               	addwf	___fladd@b,f
  5731  04C6  0825               	movf	___fladd@a+1,w
  5732  04C7  1103               	clrz
  5733  04C8  1803               	skipnc
  5734  04C9  3E01               	addlw	1
  5735  04CA  1903               	skipnz
  5736  04CB  2CCD               	goto	u4431
  5737  04CC  07A1               	addwf	___fladd@b+1,f
  5738  04CD                     u4431:
  5739  04CD  0826               	movf	___fladd@a+2,w
  5740  04CE  1103               	clrz
  5741  04CF  1803               	skipnc
  5742  04D0  3E01               	addlw	1
  5743  04D1  1903               	skipnz
  5744  04D2  2CD4               	goto	u4432
  5745  04D3  07A2               	addwf	___fladd@b+2,f
  5746  04D4                     u4432:
  5747  04D4  0827               	movf	___fladd@a+3,w
  5748  04D5  1103               	clrz
  5749  04D6  1803               	skipnc
  5750  04D7  3E01               	addlw	1
  5751  04D8  1903               	skipnz
  5752  04D9  2CDB               	goto	u4433
  5753  04DA  07A3               	addwf	___fladd@b+3,f
  5754  04DB                     u4433:
  5755  04DB                     l2993:
  5756  04DB  1C23               	btfss	___fladd@b+3,0
  5757  04DC  2CDE               	goto	u4441
  5758  04DD  2CDF               	goto	u4440
  5759  04DE                     u4441:
  5760  04DE  2DB7               	goto	l3043
  5761  04DF                     u4440:
  5762  04DF                     l2995:
  5763  04DF  1C76               	btfss	___fladd@grs,0
  5764  04E0  2CE2               	goto	u4451
  5765  04E1  2CE3               	goto	u4450
  5766  04E2                     u4451:
  5767  04E2  2CEC               	goto	l2999
  5768  04E3                     u4450:
  5769  04E3                     l2997:
  5770  04E3  0876               	movf	___fladd@grs,w
  5771  04E4  00A8               	movwf	??___fladd
  5772  04E5  1003               	clrc
  5773  04E6  0C28               	rrf	??___fladd,w
  5774  04E7  3801               	iorlw	1
  5775  04E8  00A9               	movwf	??___fladd+1
  5776  04E9  0829               	movf	??___fladd+1,w
  5777  04EA  00F6               	movwf	___fladd@grs
  5778  04EB  2CEE               	goto	l3001
  5779  04EC                     l2999:
  5780  04EC  1003               	clrc
  5781  04ED  0CF6               	rrf	___fladd@grs,f
  5782  04EE                     l3001:
  5783  04EE  1C20               	btfss	___fladd@b,0
  5784  04EF  2CF1               	goto	u4461
  5785  04F0  2CF2               	goto	u4460
  5786  04F1                     u4461:
  5787  04F1  2CF3               	goto	l3005
  5788  04F2                     u4460:
  5789  04F2                     l3003:
  5790  04F2  17F6               	bsf	___fladd@grs,7
  5791  04F3                     l3005:
  5792  04F3  3001               	movlw	1
  5793  04F4  00A8               	movwf	??___fladd
  5794  04F5                     u4475:
  5795  04F5  0D23               	rlf	___fladd@b+3,w
  5796  04F6  0CA3               	rrf	___fladd@b+3,f
  5797  04F7  0CA2               	rrf	___fladd@b+2,f
  5798  04F8  0CA1               	rrf	___fladd@b+1,f
  5799  04F9  0CA0               	rrf	___fladd@b,f
  5800  04FA  0BA8               	decfsz	??___fladd& (0+127),f
  5801  04FB  2CF5               	goto	u4475
  5802  04FC                     l3007:
  5803  04FC  3001               	movlw	1
  5804  04FD  00A8               	movwf	??___fladd
  5805  04FE  0828               	movf	??___fladd,w
  5806  04FF  07F5               	addwf	___fladd@bexp,f
  5807  0500  2DB7               	goto	l3043
  5808  0501                     l3009:
  5809  0501  1283               	bcf	3,5	;RP0=0, select bank0
  5810  0502  1303               	bcf	3,6	;RP1=0, select bank0
  5811  0503  0823               	movf	___fladd@b+3,w
  5812  0504  3A80               	xorlw	128
  5813  0505  00FF               	movwf	btemp+1
  5814  0506  0827               	movf	___fladd@a+3,w
  5815  0507  3A80               	xorlw	128
  5816  0508  027F               	subwf	btemp+1,w
  5817  0509  1D03               	skipz
  5818  050A  2D15               	goto	u4483
  5819  050B  0826               	movf	___fladd@a+2,w
  5820  050C  0222               	subwf	___fladd@b+2,w
  5821  050D  1D03               	skipz
  5822  050E  2D15               	goto	u4483
  5823  050F  0825               	movf	___fladd@a+1,w
  5824  0510  0221               	subwf	___fladd@b+1,w
  5825  0511  1D03               	skipz
  5826  0512  2D15               	goto	u4483
  5827  0513  0824               	movf	___fladd@a,w
  5828  0514  0220               	subwf	___fladd@b,w
  5829  0515                     u4483:
  5830  0515  1803               	skipnc
  5831  0516  2D18               	goto	u4481
  5832  0517  2D19               	goto	u4480
  5833  0518                     u4481:
  5834  0518  2D71               	goto	l3019
  5835  0519                     u4480:
  5836  0519                     l3011:
  5837  0519  30FF               	movlw	255
  5838  051A  00A8               	movwf	??___fladd
  5839  051B  30FF               	movlw	255
  5840  051C  00A9               	movwf	??___fladd+1
  5841  051D  30FF               	movlw	255
  5842  051E  00AA               	movwf	??___fladd+2
  5843  051F  30FF               	movlw	255
  5844  0520  00AB               	movwf	??___fladd+3
  5845  0521  0824               	movf	___fladd@a,w
  5846  0522  00AC               	movwf	??___fladd+4
  5847  0523  0825               	movf	___fladd@a+1,w
  5848  0524  00AD               	movwf	??___fladd+5
  5849  0525  0826               	movf	___fladd@a+2,w
  5850  0526  00AE               	movwf	??___fladd+6
  5851  0527  0827               	movf	___fladd@a+3,w
  5852  0528  00AF               	movwf	??___fladd+7
  5853  0529  0820               	movf	___fladd@b,w
  5854  052A  02AC               	subwf	??___fladd+4,f
  5855  052B  0821               	movf	___fladd@b+1,w
  5856  052C  1C03               	skipc
  5857  052D  0F21               	incfsz	___fladd@b+1,w
  5858  052E  2D30               	goto	u4491
  5859  052F  2D31               	goto	u4492
  5860  0530                     u4491:
  5861  0530  02AD               	subwf	??___fladd+5,f
  5862  0531                     u4492:
  5863  0531  0822               	movf	___fladd@b+2,w
  5864  0532  1C03               	skipc
  5865  0533  0F22               	incfsz	___fladd@b+2,w
  5866  0534  2D36               	goto	u4493
  5867  0535  2D37               	goto	u4494
  5868  0536                     u4493:
  5869  0536  02AE               	subwf	??___fladd+6,f
  5870  0537                     u4494:
  5871  0537  0823               	movf	___fladd@b+3,w
  5872  0538  1C03               	skipc
  5873  0539  0F23               	incfsz	___fladd@b+3,w
  5874  053A  2D3C               	goto	u4495
  5875  053B  2D3D               	goto	u4496
  5876  053C                     u4495:
  5877  053C  02AF               	subwf	??___fladd+7,f
  5878  053D                     u4496:
  5879  053D  082C               	movf	??___fladd+4,w
  5880  053E  07A8               	addwf	??___fladd,f
  5881  053F  082D               	movf	??___fladd+5,w
  5882  0540  1803               	skipnc
  5883  0541  0F2D               	incfsz	??___fladd+5,w
  5884  0542  2D44               	goto	u4500
  5885  0543  2D45               	goto	u4501
  5886  0544                     u4500:
  5887  0544  07A9               	addwf	??___fladd+1,f
  5888  0545                     u4501:
  5889  0545  082E               	movf	??___fladd+6,w
  5890  0546  1803               	skipnc
  5891  0547  0F2E               	incfsz	??___fladd+6,w
  5892  0548  2D4A               	goto	u4502
  5893  0549  2D4B               	goto	u4503
  5894  054A                     u4502:
  5895  054A  07AA               	addwf	??___fladd+2,f
  5896  054B                     u4503:
  5897  054B  082F               	movf	??___fladd+7,w
  5898  054C  1803               	skipnc
  5899  054D  0A2F               	incf	??___fladd+7,w
  5900  054E  07AB               	addwf	??___fladd+3,f
  5901  054F  082B               	movf	??___fladd+3,w
  5902  0550  00A3               	movwf	___fladd@b+3
  5903  0551  082A               	movf	??___fladd+2,w
  5904  0552  00A2               	movwf	___fladd@b+2
  5905  0553  0829               	movf	??___fladd+1,w
  5906  0554  00A1               	movwf	___fladd@b+1
  5907  0555  0828               	movf	??___fladd,w
  5908  0556  00A0               	movwf	___fladd@b
  5909  0557                     l3013:
  5910  0557  3080               	movlw	128
  5911  0558  00A8               	movwf	??___fladd
  5912  0559  0828               	movf	??___fladd,w
  5913  055A  06F3               	xorwf	___fladd@signs,f
  5914  055B  09F6               	comf	___fladd@grs,f
  5915  055C  0AF6               	incf	___fladd@grs,f
  5916  055D                     l3015:
  5917  055D  0876               	movf	___fladd@grs,w
  5918  055E  1D03               	btfss	3,2
  5919  055F  2D61               	goto	u4511
  5920  0560  2D62               	goto	u4510
  5921  0561                     u4511:
  5922  0561  2D7F               	goto	l675
  5923  0562                     u4510:
  5924  0562                     l3017:
  5925  0562  3001               	movlw	1
  5926  0563  07A0               	addwf	___fladd@b,f
  5927  0564  3000               	movlw	0
  5928  0565  1803               	skipnc
  5929  0566  3001               	movlw	1
  5930  0567  07A1               	addwf	___fladd@b+1,f
  5931  0568  3000               	movlw	0
  5932  0569  1803               	skipnc
  5933  056A  3001               	movlw	1
  5934  056B  07A2               	addwf	___fladd@b+2,f
  5935  056C  3000               	movlw	0
  5936  056D  1803               	skipnc
  5937  056E  3001               	movlw	1
  5938  056F  07A3               	addwf	___fladd@b+3,f
  5939  0570  2D7F               	goto	l675
  5940  0571                     l3019:
  5941  0571  0824               	movf	___fladd@a,w
  5942  0572  02A0               	subwf	___fladd@b,f
  5943  0573  0825               	movf	___fladd@a+1,w
  5944  0574  1C03               	skipc
  5945  0575  0F25               	incfsz	___fladd@a+1,w
  5946  0576  02A1               	subwf	___fladd@b+1,f
  5947  0577  0826               	movf	___fladd@a+2,w
  5948  0578  1C03               	skipc
  5949  0579  0F26               	incfsz	___fladd@a+2,w
  5950  057A  02A2               	subwf	___fladd@b+2,f
  5951  057B  0827               	movf	___fladd@a+3,w
  5952  057C  1C03               	skipc
  5953  057D  0F27               	incfsz	___fladd@a+3,w
  5954  057E  02A3               	subwf	___fladd@b+3,f
  5955  057F                     l675:
  5956  057F  0823               	movf	___fladd@b+3,w
  5957  0580  0422               	iorwf	___fladd@b+2,w
  5958  0581  0421               	iorwf	___fladd@b+1,w
  5959  0582  0420               	iorwf	___fladd@b,w
  5960  0583  1D03               	skipz
  5961  0584  2D86               	goto	u4521
  5962  0585  2D87               	goto	u4520
  5963  0586                     u4521:
  5964  0586  2DB3               	goto	l3041
  5965  0587                     u4520:
  5966  0587                     l3021:
  5967  0587  0876               	movf	___fladd@grs,w
  5968  0588  1D03               	btfss	3,2
  5969  0589  2D8B               	goto	u4531
  5970  058A  2D8C               	goto	u4530
  5971  058B                     u4531:
  5972  058B  2DB3               	goto	l3041
  5973  058C                     u4530:
  5974  058C                     l3023:
  5975  058C  3000               	movlw	0
  5976  058D  00A3               	movwf	?___fladd+3
  5977  058E  3000               	movlw	0
  5978  058F  00A2               	movwf	?___fladd+2
  5979  0590  3000               	movlw	0
  5980  0591  00A1               	movwf	?___fladd+1
  5981  0592  3000               	movlw	0
  5982  0593  00A0               	movwf	?___fladd
  5983  0594  2E31               	goto	l667
  5984  0595                     l3027:
  5985  0595  3001               	movlw	1
  5986  0596  00A8               	movwf	??___fladd
  5987  0597                     u4545:
  5988  0597  1003               	clrc
  5989  0598  0DA0               	rlf	___fladd@b,f
  5990  0599  0DA1               	rlf	___fladd@b+1,f
  5991  059A  0DA2               	rlf	___fladd@b+2,f
  5992  059B  0DA3               	rlf	___fladd@b+3,f
  5993  059C  0BA8               	decfsz	??___fladd,f
  5994  059D  2D97               	goto	u4545
  5995  059E                     l3029:
  5996  059E  1FF6               	btfss	___fladd@grs,7
  5997  059F  2DA1               	goto	u4551
  5998  05A0  2DA2               	goto	u4550
  5999  05A1                     u4551:
  6000  05A1  2DA3               	goto	l679
  6001  05A2                     u4550:
  6002  05A2                     l3031:
  6003  05A2  1420               	bsf	___fladd@b,0
  6004  05A3                     l679:
  6005  05A3  1C76               	btfss	___fladd@grs,0
  6006  05A4  2DA6               	goto	u4561
  6007  05A5  2DA7               	goto	u4560
  6008  05A6                     u4561:
  6009  05A6  2DAA               	goto	l3035
  6010  05A7                     u4560:
  6011  05A7                     l3033:
  6012  05A7  1403               	setc
  6013  05A8  0DF6               	rlf	___fladd@grs,f
  6014  05A9  2DAC               	goto	l3037
  6015  05AA                     l3035:
  6016  05AA  1003               	clrc
  6017  05AB  0DF6               	rlf	___fladd@grs,f
  6018  05AC                     l3037:
  6019  05AC  0875               	movf	___fladd@bexp,w
  6020  05AD  1903               	btfsc	3,2
  6021  05AE  2DB0               	goto	u4571
  6022  05AF  2DB1               	goto	u4570
  6023  05B0                     u4571:
  6024  05B0  2DB3               	goto	l3041
  6025  05B1                     u4570:
  6026  05B1                     l3039:
  6027  05B1  3001               	movlw	1
  6028  05B2  02F5               	subwf	___fladd@bexp,f
  6029  05B3                     l3041:
  6030  05B3  1FA2               	btfss	___fladd@b+2,7
  6031  05B4  2DB6               	goto	u4581
  6032  05B5  2DB7               	goto	u4580
  6033  05B6                     u4581:
  6034  05B6  2D95               	goto	l3027
  6035  05B7                     u4580:
  6036  05B7                     l3043:
  6037  05B7  01F4               	clrf	___fladd@aexp
  6038  05B8                     l3045:
  6039  05B8  1FF6               	btfss	___fladd@grs,7
  6040  05B9  2DBB               	goto	u4591
  6041  05BA  2DBC               	goto	u4590
  6042  05BB                     u4591:
  6043  05BB  2DCA               	goto	l3053
  6044  05BC                     u4590:
  6045  05BC                     l3047:
  6046  05BC  0876               	movf	___fladd@grs,w
  6047  05BD  397F               	andlw	127
  6048  05BE  1903               	btfsc	3,2
  6049  05BF  2DC1               	goto	u4601
  6050  05C0  2DC2               	goto	u4600
  6051  05C1                     u4601:
  6052  05C1  2DC5               	goto	l685
  6053  05C2                     u4600:
  6054  05C2                     l3049:
  6055  05C2  01F4               	clrf	___fladd@aexp
  6056  05C3  0AF4               	incf	___fladd@aexp,f
  6057  05C4  2DCA               	goto	l3053
  6058  05C5                     l685:
  6059  05C5  1C20               	btfss	___fladd@b,0
  6060  05C6  2DC8               	goto	u4611
  6061  05C7  2DC9               	goto	u4610
  6062  05C8                     u4611:
  6063  05C8  2DCA               	goto	l3053
  6064  05C9                     u4610:
  6065  05C9  2DC2               	goto	l3049
  6066  05CA                     l3053:
  6067  05CA  0874               	movf	___fladd@aexp,w
  6068  05CB  1903               	btfsc	3,2
  6069  05CC  2DCE               	goto	u4621
  6070  05CD  2DCF               	goto	u4620
  6071  05CE                     u4621:
  6072  05CE  2E03               	goto	l688
  6073  05CF                     u4620:
  6074  05CF                     l3055:
  6075  05CF  3001               	movlw	1
  6076  05D0  07A0               	addwf	___fladd@b,f
  6077  05D1  3000               	movlw	0
  6078  05D2  1803               	skipnc
  6079  05D3  3001               	movlw	1
  6080  05D4  07A1               	addwf	___fladd@b+1,f
  6081  05D5  3000               	movlw	0
  6082  05D6  1803               	skipnc
  6083  05D7  3001               	movlw	1
  6084  05D8  07A2               	addwf	___fladd@b+2,f
  6085  05D9  3000               	movlw	0
  6086  05DA  1803               	skipnc
  6087  05DB  3001               	movlw	1
  6088  05DC  07A3               	addwf	___fladd@b+3,f
  6089  05DD                     l3057:
  6090  05DD  1C23               	btfss	___fladd@b+3,0
  6091  05DE  2DE0               	goto	u4631
  6092  05DF  2DE1               	goto	u4630
  6093  05E0                     u4631:
  6094  05E0  2E03               	goto	l688
  6095  05E1                     u4630:
  6096  05E1                     l3059:
  6097  05E1  0820               	movf	___fladd@b,w
  6098  05E2  00A8               	movwf	??___fladd
  6099  05E3  0821               	movf	___fladd@b+1,w
  6100  05E4  00A9               	movwf	??___fladd+1
  6101  05E5  0822               	movf	___fladd@b+2,w
  6102  05E6  00AA               	movwf	??___fladd+2
  6103  05E7  0823               	movf	___fladd@b+3,w
  6104  05E8  00AB               	movwf	??___fladd+3
  6105  05E9  3001               	movlw	1
  6106  05EA  00AC               	movwf	??___fladd+4
  6107  05EB                     u4645:
  6108  05EB  0D2B               	rlf	??___fladd+3,w
  6109  05EC  0CAB               	rrf	??___fladd+3,f
  6110  05ED  0CAA               	rrf	??___fladd+2,f
  6111  05EE  0CA9               	rrf	??___fladd+1,f
  6112  05EF  0CA8               	rrf	??___fladd,f
  6113  05F0                     u4640:
  6114  05F0  0BAC               	decfsz	??___fladd+4,f
  6115  05F1  2DEB               	goto	u4645
  6116  05F2  082B               	movf	??___fladd+3,w
  6117  05F3  00A3               	movwf	___fladd@b+3
  6118  05F4  082A               	movf	??___fladd+2,w
  6119  05F5  00A2               	movwf	___fladd@b+2
  6120  05F6  0829               	movf	??___fladd+1,w
  6121  05F7  00A1               	movwf	___fladd@b+1
  6122  05F8  0828               	movf	??___fladd,w
  6123  05F9  00A0               	movwf	___fladd@b
  6124  05FA  0A75               	incf	___fladd@bexp,w
  6125  05FB  1903               	btfsc	3,2
  6126  05FC  2DFE               	goto	u4651
  6127  05FD  2DFF               	goto	u4650
  6128  05FE                     u4651:
  6129  05FE  2E03               	goto	l688
  6130  05FF                     u4650:
  6131  05FF                     l3061:
  6132  05FF  3001               	movlw	1
  6133  0600  00A8               	movwf	??___fladd
  6134  0601  0828               	movf	??___fladd,w
  6135  0602  07F5               	addwf	___fladd@bexp,f
  6136  0603                     l688:
  6137  0603  0A75               	incf	___fladd@bexp,w
  6138  0604  1903               	btfsc	3,2
  6139  0605  2E07               	goto	u4661
  6140  0606  2E08               	goto	u4660
  6141  0607                     u4661:
  6142  0607  2E0D               	goto	l3065
  6143  0608                     u4660:
  6144  0608                     l3063:
  6145  0608  0875               	movf	___fladd@bexp,w
  6146  0609  1D03               	btfss	3,2
  6147  060A  2E0C               	goto	u4671
  6148  060B  2E0D               	goto	u4670
  6149  060C                     u4671:
  6150  060C  2E1B               	goto	l3071
  6151  060D                     u4670:
  6152  060D                     l3065:
  6153  060D  3000               	movlw	0
  6154  060E  00A3               	movwf	___fladd@b+3
  6155  060F  3000               	movlw	0
  6156  0610  00A2               	movwf	___fladd@b+2
  6157  0611  3000               	movlw	0
  6158  0612  00A1               	movwf	___fladd@b+1
  6159  0613  3000               	movlw	0
  6160  0614  00A0               	movwf	___fladd@b
  6161  0615                     l3067:
  6162  0615  0875               	movf	___fladd@bexp,w
  6163  0616  1D03               	btfss	3,2
  6164  0617  2E19               	goto	u4681
  6165  0618  2E1A               	goto	u4680
  6166  0619                     u4681:
  6167  0619  2E1B               	goto	l3071
  6168  061A                     u4680:
  6169  061A                     l3069:
  6170  061A  01F3               	clrf	___fladd@signs
  6171  061B                     l3071:
  6172  061B  1C75               	btfss	___fladd@bexp,0
  6173  061C  2E1E               	goto	u4691
  6174  061D  2E1F               	goto	u4690
  6175  061E                     u4691:
  6176  061E  2E21               	goto	l3075
  6177  061F                     u4690:
  6178  061F                     l3073:
  6179  061F  17A2               	bsf	___fladd@b+2,7
  6180  0620  2E25               	goto	l696
  6181  0621                     l3075:
  6182  0621  307F               	movlw	127
  6183  0622  00A8               	movwf	??___fladd
  6184  0623  0828               	movf	??___fladd,w
  6185  0624  05A2               	andwf	___fladd@b+2,f
  6186  0625                     l696:
  6187  0625  0875               	movf	___fladd@bexp,w
  6188  0626  00A8               	movwf	??___fladd
  6189  0627  1003               	clrc
  6190  0628  0C28               	rrf	??___fladd,w
  6191  0629  00A9               	movwf	??___fladd+1
  6192  062A  0829               	movf	??___fladd+1,w
  6193  062B  00A3               	movwf	___fladd@b+3
  6194  062C                     l3077:
  6195  062C  1FF3               	btfss	___fladd@signs,7
  6196  062D  2E2F               	goto	u4701
  6197  062E  2E30               	goto	u4700
  6198  062F                     u4701:
  6199  062F  2E31               	goto	l697
  6200  0630                     u4700:
  6201  0630                     l3079:
  6202  0630  17A3               	bsf	___fladd@b+3,7
  6203  0631                     l697:
  6204  0631                     l667:
  6205  0631  0008               	return
  6206  0632                     __end_of___fladd:
  6207                           
  6208                           	psect	text18
  6209  0AD4                     __ptext18:	
  6210 ;; *************** function ___flge *****************
  6211 ;; Defined at:
  6212 ;;		line 4 in file "C:\Program Files\Microchip\xc8\v2.32\pic\sources\c90\common\flge.c"
  6213 ;; Parameters:    Size  Location     Type
  6214 ;;  ff1             4   16[BANK0 ] unsigned char 
  6215 ;;  ff2             4   20[BANK0 ] unsigned char 
  6216 ;; Auto vars:     Size  Location     Type
  6217 ;;		None
  6218 ;; Return value:  Size  Location     Type
  6219 ;;		None               void
  6220 ;; Registers used:
  6221 ;;		wreg, status,2, status,0
  6222 ;; Tracked objects:
  6223 ;;		On entry : 0/0
  6224 ;;		On exit  : 0/0
  6225 ;;		Unchanged: 0/0
  6226 ;; Data sizes:     COMMON   BANK0   BANK1   BANK3   BANK2
  6227 ;;      Params:         0       8       0       0       0
  6228 ;;      Locals:         0       0       0       0       0
  6229 ;;      Temps:          0       4       0       0       0
  6230 ;;      Totals:         0      12       0       0       0
  6231 ;;Total ram usage:       12 bytes
  6232 ;; Hardware stack levels used: 1
  6233 ;; Hardware stack levels required when called: 1
  6234 ;; This function calls:
  6235 ;;		Nothing
  6236 ;; This function is called by:
  6237 ;;		_main
  6238 ;;		_HandleKeypadReading
  6239 ;;		_ReadHumidity
  6240 ;;		_UpdateLCDViewWithNumber
  6241 ;; This function uses a non-reentrant model
  6242 ;;
  6243                           
  6244                           
  6245                           ;psect for function ___flge
  6246  0AD4                     ___flge:
  6247  0AD4                     l2157:	
  6248                           ;incstack = 0
  6249                           ; Regs used in ___flge: [wreg+status,2+status,0]
  6250                           
  6251  0AD4  3000               	movlw	0
  6252  0AD5  1283               	bcf	3,5	;RP0=0, select bank0
  6253  0AD6  1303               	bcf	3,6	;RP1=0, select bank0
  6254  0AD7  0530               	andwf	___flge@ff1,w
  6255  0AD8  00B8               	movwf	??___flge
  6256  0AD9  3000               	movlw	0
  6257  0ADA  0531               	andwf	___flge@ff1+1,w
  6258  0ADB  00B9               	movwf	??___flge+1
  6259  0ADC  3080               	movlw	128
  6260  0ADD  0532               	andwf	___flge@ff1+2,w
  6261  0ADE  00BA               	movwf	??___flge+2
  6262  0ADF  307F               	movlw	127
  6263  0AE0  0533               	andwf	___flge@ff1+3,w
  6264  0AE1  00BB               	movwf	??___flge+3
  6265  0AE2  083B               	movf	??___flge+3,w
  6266  0AE3  043A               	iorwf	??___flge+2,w
  6267  0AE4  0439               	iorwf	??___flge+1,w
  6268  0AE5  0438               	iorwf	??___flge,w
  6269  0AE6  1D03               	skipz
  6270  0AE7  2AE9               	goto	u2711
  6271  0AE8  2AEA               	goto	u2710
  6272  0AE9                     u2711:
  6273  0AE9  2AF2               	goto	l535
  6274  0AEA                     u2710:
  6275  0AEA                     l2159:
  6276  0AEA  3000               	movlw	0
  6277  0AEB  00B3               	movwf	___flge@ff1+3
  6278  0AEC  3000               	movlw	0
  6279  0AED  00B2               	movwf	___flge@ff1+2
  6280  0AEE  3000               	movlw	0
  6281  0AEF  00B1               	movwf	___flge@ff1+1
  6282  0AF0  3000               	movlw	0
  6283  0AF1  00B0               	movwf	___flge@ff1
  6284  0AF2                     l535:
  6285  0AF2  3000               	movlw	0
  6286  0AF3  0534               	andwf	___flge@ff2,w
  6287  0AF4  00B8               	movwf	??___flge
  6288  0AF5  3000               	movlw	0
  6289  0AF6  0535               	andwf	___flge@ff2+1,w
  6290  0AF7  00B9               	movwf	??___flge+1
  6291  0AF8  3080               	movlw	128
  6292  0AF9  0536               	andwf	___flge@ff2+2,w
  6293  0AFA  00BA               	movwf	??___flge+2
  6294  0AFB  307F               	movlw	127
  6295  0AFC  0537               	andwf	___flge@ff2+3,w
  6296  0AFD  00BB               	movwf	??___flge+3
  6297  0AFE  083B               	movf	??___flge+3,w
  6298  0AFF  043A               	iorwf	??___flge+2,w
  6299  0B00  0439               	iorwf	??___flge+1,w
  6300  0B01  0438               	iorwf	??___flge,w
  6301  0B02  1D03               	skipz
  6302  0B03  2B05               	goto	u2721
  6303  0B04  2B06               	goto	u2720
  6304  0B05                     u2721:
  6305  0B05  2B0E               	goto	l2163
  6306  0B06                     u2720:
  6307  0B06                     l2161:
  6308  0B06  3000               	movlw	0
  6309  0B07  00B7               	movwf	___flge@ff2+3
  6310  0B08  3000               	movlw	0
  6311  0B09  00B6               	movwf	___flge@ff2+2
  6312  0B0A  3000               	movlw	0
  6313  0B0B  00B5               	movwf	___flge@ff2+1
  6314  0B0C  3000               	movlw	0
  6315  0B0D  00B4               	movwf	___flge@ff2
  6316  0B0E                     l2163:
  6317  0B0E  1FB3               	btfss	___flge@ff1+3,7
  6318  0B0F  2B11               	goto	u2731
  6319  0B10  2B12               	goto	u2730
  6320  0B11                     u2731:
  6321  0B11  2B36               	goto	l2167
  6322  0B12                     u2730:
  6323  0B12                     l2165:
  6324  0B12  3000               	movlw	0
  6325  0B13  00B8               	movwf	??___flge
  6326  0B14  3000               	movlw	0
  6327  0B15  00B9               	movwf	??___flge+1
  6328  0B16  3000               	movlw	0
  6329  0B17  00BA               	movwf	??___flge+2
  6330  0B18  3080               	movlw	128
  6331  0B19  00BB               	movwf	??___flge+3
  6332  0B1A  0830               	movf	___flge@ff1,w
  6333  0B1B  02B8               	subwf	??___flge,f
  6334  0B1C  0831               	movf	___flge@ff1+1,w
  6335  0B1D  1C03               	skipc
  6336  0B1E  0F31               	incfsz	___flge@ff1+1,w
  6337  0B1F  2B21               	goto	u2741
  6338  0B20  2B22               	goto	u2742
  6339  0B21                     u2741:
  6340  0B21  02B9               	subwf	??___flge+1,f
  6341  0B22                     u2742:
  6342  0B22  0832               	movf	___flge@ff1+2,w
  6343  0B23  1C03               	skipc
  6344  0B24  0F32               	incfsz	___flge@ff1+2,w
  6345  0B25  2B27               	goto	u2743
  6346  0B26  2B28               	goto	u2744
  6347  0B27                     u2743:
  6348  0B27  02BA               	subwf	??___flge+2,f
  6349  0B28                     u2744:
  6350  0B28  0833               	movf	___flge@ff1+3,w
  6351  0B29  1C03               	skipc
  6352  0B2A  0F33               	incfsz	___flge@ff1+3,w
  6353  0B2B  2B2D               	goto	u2745
  6354  0B2C  2B2E               	goto	u2746
  6355  0B2D                     u2745:
  6356  0B2D  02BB               	subwf	??___flge+3,f
  6357  0B2E                     u2746:
  6358  0B2E  083B               	movf	??___flge+3,w
  6359  0B2F  00B3               	movwf	___flge@ff1+3
  6360  0B30  083A               	movf	??___flge+2,w
  6361  0B31  00B2               	movwf	___flge@ff1+2
  6362  0B32  0839               	movf	??___flge+1,w
  6363  0B33  00B1               	movwf	___flge@ff1+1
  6364  0B34  0838               	movf	??___flge,w
  6365  0B35  00B0               	movwf	___flge@ff1
  6366  0B36                     l2167:
  6367  0B36  1FB7               	btfss	___flge@ff2+3,7
  6368  0B37  2B39               	goto	u2751
  6369  0B38  2B3A               	goto	u2750
  6370  0B39                     u2751:
  6371  0B39  2B5E               	goto	l538
  6372  0B3A                     u2750:
  6373  0B3A                     l2169:
  6374  0B3A  3000               	movlw	0
  6375  0B3B  00B8               	movwf	??___flge
  6376  0B3C  3000               	movlw	0
  6377  0B3D  00B9               	movwf	??___flge+1
  6378  0B3E  3000               	movlw	0
  6379  0B3F  00BA               	movwf	??___flge+2
  6380  0B40  3080               	movlw	128
  6381  0B41  00BB               	movwf	??___flge+3
  6382  0B42  0834               	movf	___flge@ff2,w
  6383  0B43  02B8               	subwf	??___flge,f
  6384  0B44  0835               	movf	___flge@ff2+1,w
  6385  0B45  1C03               	skipc
  6386  0B46  0F35               	incfsz	___flge@ff2+1,w
  6387  0B47  2B49               	goto	u2761
  6388  0B48  2B4A               	goto	u2762
  6389  0B49                     u2761:
  6390  0B49  02B9               	subwf	??___flge+1,f
  6391  0B4A                     u2762:
  6392  0B4A  0836               	movf	___flge@ff2+2,w
  6393  0B4B  1C03               	skipc
  6394  0B4C  0F36               	incfsz	___flge@ff2+2,w
  6395  0B4D  2B4F               	goto	u2763
  6396  0B4E  2B50               	goto	u2764
  6397  0B4F                     u2763:
  6398  0B4F  02BA               	subwf	??___flge+2,f
  6399  0B50                     u2764:
  6400  0B50  0837               	movf	___flge@ff2+3,w
  6401  0B51  1C03               	skipc
  6402  0B52  0F37               	incfsz	___flge@ff2+3,w
  6403  0B53  2B55               	goto	u2765
  6404  0B54  2B56               	goto	u2766
  6405  0B55                     u2765:
  6406  0B55  02BB               	subwf	??___flge+3,f
  6407  0B56                     u2766:
  6408  0B56  083B               	movf	??___flge+3,w
  6409  0B57  00B7               	movwf	___flge@ff2+3
  6410  0B58  083A               	movf	??___flge+2,w
  6411  0B59  00B6               	movwf	___flge@ff2+2
  6412  0B5A  0839               	movf	??___flge+1,w
  6413  0B5B  00B5               	movwf	___flge@ff2+1
  6414  0B5C  0838               	movf	??___flge,w
  6415  0B5D  00B4               	movwf	___flge@ff2
  6416  0B5E                     l538:
  6417  0B5E  3080               	movlw	128
  6418  0B5F  06B3               	xorwf	___flge@ff1+3,f
  6419  0B60  3080               	movlw	128
  6420  0B61  06B7               	xorwf	___flge@ff2+3,f
  6421  0B62  0837               	movf	___flge@ff2+3,w
  6422  0B63  0233               	subwf	___flge@ff1+3,w
  6423  0B64  1D03               	skipz
  6424  0B65  2B70               	goto	u2775
  6425  0B66  0836               	movf	___flge@ff2+2,w
  6426  0B67  0232               	subwf	___flge@ff1+2,w
  6427  0B68  1D03               	skipz
  6428  0B69  2B70               	goto	u2775
  6429  0B6A  0835               	movf	___flge@ff2+1,w
  6430  0B6B  0231               	subwf	___flge@ff1+1,w
  6431  0B6C  1D03               	skipz
  6432  0B6D  2B70               	goto	u2775
  6433  0B6E  0834               	movf	___flge@ff2,w
  6434  0B6F  0230               	subwf	___flge@ff1,w
  6435  0B70                     u2775:
  6436  0B70  1803               	skipnc
  6437  0B71  2B73               	goto	u2771
  6438  0B72  2B74               	goto	u2770
  6439  0B73                     u2771:
  6440  0B73  2B76               	goto	l2173
  6441  0B74                     u2770:
  6442  0B74                     l2171:
  6443  0B74  1003               	clrc
  6444  0B75  2B77               	goto	l539
  6445  0B76                     l2173:
  6446  0B76  1403               	setc
  6447  0B77                     l539:
  6448  0B77  0008               	return
  6449  0B78                     __end_of___flge:
  6450                           
  6451                           	psect	text19
  6452  154E                     __ptext19:	
  6453 ;; *************** function _ManageCooler *****************
  6454 ;; Defined at:
  6455 ;;		line 358 in file "main.c"
  6456 ;; Parameters:    Size  Location     Type
  6457 ;;  duty            1    wreg     unsigned char 
  6458 ;; Auto vars:     Size  Location     Type
  6459 ;;  duty            1    4[COMMON] unsigned char 
  6460 ;; Return value:  Size  Location     Type
  6461 ;;                  1    wreg      void 
  6462 ;; Registers used:
  6463 ;;		wreg, status,2, status,0
  6464 ;; Tracked objects:
  6465 ;;		On entry : 0/0
  6466 ;;		On exit  : 0/0
  6467 ;;		Unchanged: 0/0
  6468 ;; Data sizes:     COMMON   BANK0   BANK1   BANK3   BANK2
  6469 ;;      Params:         0       0       0       0       0
  6470 ;;      Locals:         1       0       0       0       0
  6471 ;;      Temps:          1       0       0       0       0
  6472 ;;      Totals:         2       0       0       0       0
  6473 ;;Total ram usage:        2 bytes
  6474 ;; Hardware stack levels used: 1
  6475 ;; Hardware stack levels required when called: 1
  6476 ;; This function calls:
  6477 ;;		Nothing
  6478 ;; This function is called by:
  6479 ;;		_main
  6480 ;; This function uses a non-reentrant model
  6481 ;;
  6482                           
  6483                           
  6484                           ;psect for function _ManageCooler
  6485  154E                     _ManageCooler:
  6486                           
  6487                           ;incstack = 0
  6488                           ; Regs used in _ManageCooler: [wreg+status,2+status,0]
  6489                           ;ManageCooler@duty stored from wreg
  6490  154E  00F4               	movwf	ManageCooler@duty
  6491  154F                     l2809:
  6492                           
  6493                           ;main.c: 358: void ManageCooler(char duty);main.c: 359: {;main.c: 360:     if(dutyCounte
      +                          r<duty)
  6494  154F  0874               	movf	ManageCooler@duty,w
  6495  1550  1283               	bcf	3,5	;RP0=0, select bank0
  6496  1551  1303               	bcf	3,6	;RP1=0, select bank0
  6497  1552  0263               	subwf	_dutyCounter,w
  6498  1553  1803               	skipnc
  6499  1554  2D56               	goto	u4151
  6500  1555  2D57               	goto	u4150
  6501  1556                     u4151:
  6502  1556  2D59               	goto	l2813
  6503  1557                     u4150:
  6504  1557                     l2811:
  6505                           
  6506                           ;main.c: 361:     {;main.c: 362:         PORTC |= 1<<2;
  6507  1557  1507               	bsf	7,2	;volatile
  6508                           
  6509                           ;main.c: 363:     }
  6510  1558  2D5D               	goto	l225
  6511  1559                     l2813:
  6512                           
  6513                           ;main.c: 365:     {;main.c: 366:         PORTC &= ~(1<<2);
  6514  1559  30FB               	movlw	251
  6515  155A  00F3               	movwf	??_ManageCooler
  6516  155B  0873               	movf	??_ManageCooler,w
  6517  155C  0587               	andwf	7,f	;volatile
  6518  155D                     l225:
  6519  155D  0008               	return
  6520  155E                     __end_of_ManageCooler:
  6521                           
  6522                           	psect	text20
  6523  1531                     __ptext20:	
  6524 ;; *************** function _InitPic *****************
  6525 ;; Defined at:
  6526 ;;		line 336 in file "main.c"
  6527 ;; Parameters:    Size  Location     Type
  6528 ;;		None
  6529 ;; Auto vars:     Size  Location     Type
  6530 ;;		None
  6531 ;; Return value:  Size  Location     Type
  6532 ;;                  1    wreg      void 
  6533 ;; Registers used:
  6534 ;;		wreg, status,2
  6535 ;; Tracked objects:
  6536 ;;		On entry : 0/0
  6537 ;;		On exit  : 0/0
  6538 ;;		Unchanged: 0/0
  6539 ;; Data sizes:     COMMON   BANK0   BANK1   BANK3   BANK2
  6540 ;;      Params:         0       0       0       0       0
  6541 ;;      Locals:         0       0       0       0       0
  6542 ;;      Temps:          0       0       0       0       0
  6543 ;;      Totals:         0       0       0       0       0
  6544 ;;Total ram usage:        0 bytes
  6545 ;; Hardware stack levels used: 1
  6546 ;; Hardware stack levels required when called: 1
  6547 ;; This function calls:
  6548 ;;		Nothing
  6549 ;; This function is called by:
  6550 ;;		_main
  6551 ;; This function uses a non-reentrant model
  6552 ;;
  6553                           
  6554                           
  6555                           ;psect for function _InitPic
  6556  1531                     _InitPic:
  6557  1531                     l2647:	
  6558                           ;incstack = 0
  6559                           ; Regs used in _InitPic: [wreg+status,2]
  6560                           
  6561                           
  6562                           ;main.c: 338:     TRISC = 0x00;
  6563  1531  1683               	bsf	3,5	;RP0=1, select bank1
  6564  1532  1303               	bcf	3,6	;RP1=0, select bank1
  6565  1533  0187               	clrf	7	;volatile
  6566                           
  6567                           ;main.c: 339:     TRISE = 0x00;
  6568  1534  0189               	clrf	9	;volatile
  6569  1535                     l2649:
  6570                           
  6571                           ;main.c: 340:     INTCON = 0xA0;
  6572  1535  30A0               	movlw	160
  6573  1536  008B               	movwf	11	;volatile
  6574  1537                     l2651:
  6575                           
  6576                           ;main.c: 341:     OPTION_REG = 0x06;
  6577  1537  3006               	movlw	6
  6578  1538  0081               	movwf	1	;volatile
  6579  1539                     l2653:
  6580                           
  6581                           ;main.c: 342:     TMR0 = 6;
  6582  1539  3006               	movlw	6
  6583  153A  1283               	bcf	3,5	;RP0=0, select bank0
  6584  153B  1303               	bcf	3,6	;RP1=0, select bank0
  6585  153C  0081               	movwf	1	;volatile
  6586  153D                     l215:
  6587  153D  0008               	return
  6588  153E                     __end_of_InitPic:
  6589                           
  6590                           	psect	text21
  6591  0893                     __ptext21:	
  6592 ;; *************** function _InitLCD *****************
  6593 ;; Defined at:
  6594 ;;		line 318 in file "main.c"
  6595 ;; Parameters:    Size  Location     Type
  6596 ;;		None
  6597 ;; Auto vars:     Size  Location     Type
  6598 ;;		None
  6599 ;; Return value:  Size  Location     Type
  6600 ;;                  1    wreg      void 
  6601 ;; Registers used:
  6602 ;;		wreg, status,2, status,0, pclath, cstack
  6603 ;; Tracked objects:
  6604 ;;		On entry : 0/0
  6605 ;;		On exit  : 0/0
  6606 ;;		Unchanged: 0/0
  6607 ;; Data sizes:     COMMON   BANK0   BANK1   BANK3   BANK2
  6608 ;;      Params:         0       0       0       0       0
  6609 ;;      Locals:         0       0       0       0       0
  6610 ;;      Temps:          0       2       0       0       0
  6611 ;;      Totals:         0       2       0       0       0
  6612 ;;Total ram usage:        2 bytes
  6613 ;; Hardware stack levels used: 1
  6614 ;; Hardware stack levels required when called: 2
  6615 ;; This function calls:
  6616 ;;		_SendLCD
  6617 ;; This function is called by:
  6618 ;;		_main
  6619 ;; This function uses a non-reentrant model
  6620 ;;
  6621                           
  6622                           
  6623                           ;psect for function _InitLCD
  6624  0893                     _InitLCD:
  6625  0893                     l3353:	
  6626                           ;incstack = 0
  6627                           ; Regs used in _InitLCD: [wreg+status,2+status,0+pclath+cstack]
  6628                           
  6629                           
  6630                           ;main.c: 320:     PORTE = PORTE & 0x02;
  6631  0893  1283               	bcf	3,5	;RP0=0, select bank0
  6632  0894  1303               	bcf	3,6	;RP1=0, select bank0
  6633  0895  0809               	movf	9,w	;volatile
  6634  0896  3902               	andlw	2
  6635  0897  0089               	movwf	9	;volatile
  6636                           
  6637                           ;main.c: 321:     PORTE = PORTE & 0x04;
  6638  0898  0809               	movf	9,w	;volatile
  6639  0899  3904               	andlw	4
  6640  089A  0089               	movwf	9	;volatile
  6641  089B                     l3355:
  6642                           
  6643                           ;main.c: 322:     _delay((unsigned long)((20)*(8000000/4000.0)));
  6644  089B  3034               	movlw	52
  6645  089C  1283               	bcf	3,5	;RP0=0, select bank0
  6646  089D  1303               	bcf	3,6	;RP1=0, select bank0
  6647  089E  00A1               	movwf	??_InitLCD+1
  6648  089F  30F1               	movlw	241
  6649  08A0  00A0               	movwf	??_InitLCD
  6650  08A1                     u5427:
  6651  08A1  0BA0               	decfsz	??_InitLCD,f
  6652  08A2  28A1               	goto	u5427
  6653  08A3  0BA1               	decfsz	??_InitLCD+1,f
  6654  08A4  28A1               	goto	u5427
  6655  08A5                     l3357:
  6656                           
  6657                           ;main.c: 323:     PORTE = PORTE | 0x02;
  6658  08A5  1283               	bcf	3,5	;RP0=0, select bank0
  6659  08A6  1303               	bcf	3,6	;RP1=0, select bank0
  6660  08A7  0809               	movf	9,w	;volatile
  6661  08A8  3802               	iorlw	2
  6662  08A9  0089               	movwf	9	;volatile
  6663  08AA                     l3359:
  6664                           
  6665                           ;main.c: 324:     SendLCD(0x38, 0x00);
  6666  08AA  01F3               	clrf	SendLCD@type
  6667  08AB  3038               	movlw	56
  6668  08AC  160A  118A  2632  120A  158A  	fcall	_SendLCD
  6669  08B1                     l3361:
  6670                           
  6671                           ;main.c: 325:     _delay((unsigned long)((5)*(8000000/4000.0)));
  6672  08B1  300D               	movlw	13
  6673  08B2  1283               	bcf	3,5	;RP0=0, select bank0
  6674  08B3  1303               	bcf	3,6	;RP1=0, select bank0
  6675  08B4  00A1               	movwf	??_InitLCD+1
  6676  08B5  30FB               	movlw	251
  6677  08B6  00A0               	movwf	??_InitLCD
  6678  08B7                     u5437:
  6679  08B7  0BA0               	decfsz	??_InitLCD,f
  6680  08B8  28B7               	goto	u5437
  6681  08B9  0BA1               	decfsz	??_InitLCD+1,f
  6682  08BA  28B7               	goto	u5437
  6683                           
  6684                           ;main.c: 326:     SendLCD(0x38, 0x00);
  6685  08BB  01F3               	clrf	SendLCD@type
  6686  08BC  3038               	movlw	56
  6687  08BD  160A  118A  2632  120A  158A  	fcall	_SendLCD
  6688  08C2                     l3363:
  6689                           
  6690                           ;main.c: 327:     _delay((unsigned long)((1)*(8000000/4000.0)));
  6691  08C2  3003               	movlw	3
  6692  08C3  1283               	bcf	3,5	;RP0=0, select bank0
  6693  08C4  1303               	bcf	3,6	;RP1=0, select bank0
  6694  08C5  00A1               	movwf	??_InitLCD+1
  6695  08C6  3097               	movlw	151
  6696  08C7  00A0               	movwf	??_InitLCD
  6697  08C8                     u5447:
  6698  08C8  0BA0               	decfsz	??_InitLCD,f
  6699  08C9  28C8               	goto	u5447
  6700  08CA  0BA1               	decfsz	??_InitLCD+1,f
  6701  08CB  28C8               	goto	u5447
  6702  08CC                     l3365:
  6703                           
  6704                           ;main.c: 328:     SendLCD(0x38, 0x00);
  6705  08CC  01F3               	clrf	SendLCD@type
  6706  08CD  3038               	movlw	56
  6707  08CE  160A  118A  2632  120A  158A  	fcall	_SendLCD
  6708  08D3                     l3367:
  6709                           
  6710                           ;main.c: 329:     SendLCD(0x0F, 0x00);
  6711  08D3  01F3               	clrf	SendLCD@type
  6712  08D4  300F               	movlw	15
  6713  08D5  160A  118A  2632  120A  158A  	fcall	_SendLCD
  6714  08DA                     l3369:
  6715                           
  6716                           ;main.c: 330:     SendLCD(0x01, 0x00);
  6717  08DA  01F3               	clrf	SendLCD@type
  6718  08DB  3001               	movlw	1
  6719  08DC  160A  118A  2632  120A  158A  	fcall	_SendLCD
  6720  08E1                     l3371:
  6721                           
  6722                           ;main.c: 331:     SendLCD(0x0E, 0x00);
  6723  08E1  01F3               	clrf	SendLCD@type
  6724  08E2  300E               	movlw	14
  6725  08E3  160A  118A  2632  120A  158A  	fcall	_SendLCD
  6726  08E8                     l3373:
  6727                           
  6728                           ;main.c: 332:     SendLCD(0x80, 0x00);
  6729  08E8  01F3               	clrf	SendLCD@type
  6730  08E9  3080               	movlw	128
  6731  08EA  160A  118A  2632  120A  158A  	fcall	_SendLCD
  6732  08EF                     l3375:
  6733                           
  6734                           ;main.c: 333:     SendLCD(0x0C, 0x00);
  6735  08EF  01F3               	clrf	SendLCD@type
  6736  08F0  300C               	movlw	12
  6737  08F1  160A  118A  2632  120A  158A  	fcall	_SendLCD
  6738  08F6                     l212:
  6739  08F6  0008               	return
  6740  08F7                     __end_of_InitLCD:
  6741                           
  6742                           	psect	text22
  6743  1632                     __ptext22:	
  6744 ;; *************** function _SendLCD *****************
  6745 ;; Defined at:
  6746 ;;		line 417 in file "main.c"
  6747 ;; Parameters:    Size  Location     Type
  6748 ;;  data            1    wreg     unsigned char 
  6749 ;;  type            1    3[COMMON] unsigned char 
  6750 ;; Auto vars:     Size  Location     Type
  6751 ;;  data            1    6[COMMON] unsigned char 
  6752 ;; Return value:  Size  Location     Type
  6753 ;;                  1    wreg      void 
  6754 ;; Registers used:
  6755 ;;		wreg, status,2, status,0
  6756 ;; Tracked objects:
  6757 ;;		On entry : 0/0
  6758 ;;		On exit  : 0/0
  6759 ;;		Unchanged: 0/0
  6760 ;; Data sizes:     COMMON   BANK0   BANK1   BANK3   BANK2
  6761 ;;      Params:         1       0       0       0       0
  6762 ;;      Locals:         1       0       0       0       0
  6763 ;;      Temps:          2       0       0       0       0
  6764 ;;      Totals:         4       0       0       0       0
  6765 ;;Total ram usage:        4 bytes
  6766 ;; Hardware stack levels used: 1
  6767 ;; Hardware stack levels required when called: 1
  6768 ;; This function calls:
  6769 ;;		Nothing
  6770 ;; This function is called by:
  6771 ;;		_InitLCD
  6772 ;;		_ManageDisplays
  6773 ;;		_SendLCDString
  6774 ;;		_UpdateLCDViewWithNumber
  6775 ;; This function uses a non-reentrant model
  6776 ;;
  6777                           
  6778                           
  6779                           ;psect for function _SendLCD
  6780  1632                     _SendLCD:
  6781                           
  6782                           ;incstack = 0
  6783                           ; Regs used in _SendLCD: [wreg+status,2+status,0]
  6784                           ;SendLCD@data stored from wreg
  6785  1632  00F6               	movwf	SendLCD@data
  6786  1633                     l3081:
  6787                           
  6788                           ;main.c: 417: void SendLCD(char data,char type);main.c: 418: {;main.c: 419:     TRISD = 
      +                          0x00;
  6789  1633  1683               	bsf	3,5	;RP0=1, select bank1
  6790  1634  1303               	bcf	3,6	;RP1=0, select bank1
  6791  1635  0188               	clrf	8	;volatile
  6792                           
  6793                           ;main.c: 420:     TRISE = 0x00;
  6794  1636  0189               	clrf	9	;volatile
  6795  1637                     l3083:
  6796                           
  6797                           ;main.c: 421:     PORTE |= 0x02;
  6798  1637  1283               	bcf	3,5	;RP0=0, select bank0
  6799  1638  1303               	bcf	3,6	;RP1=0, select bank0
  6800  1639  1489               	bsf	9,1	;volatile
  6801  163A                     l3085:
  6802                           
  6803                           ;main.c: 422:     PORTD = data;
  6804  163A  0876               	movf	SendLCD@data,w
  6805  163B  0088               	movwf	8	;volatile
  6806  163C                     l3087:
  6807                           
  6808                           ;main.c: 423:     if(type) PORTE |= 0x04;
  6809  163C  0873               	movf	SendLCD@type,w
  6810  163D  1903               	btfsc	3,2
  6811  163E  2E40               	goto	u4711
  6812  163F  2E41               	goto	u4710
  6813  1640                     u4711:
  6814  1640  2E43               	goto	l3091
  6815  1641                     u4710:
  6816  1641                     l3089:
  6817  1641  1509               	bsf	9,2	;volatile
  6818  1642  2E47               	goto	l3093
  6819  1643                     l3091:
  6820  1643  30FB               	movlw	251
  6821  1644  00F4               	movwf	??_SendLCD
  6822  1645  0874               	movf	??_SendLCD,w
  6823  1646  0589               	andwf	9,f	;volatile
  6824  1647                     l3093:
  6825                           
  6826                           ;main.c: 425:     _delay((unsigned long)((3)*(8000000/4000.0)));
  6827  1647  3008               	movlw	8
  6828  1648  00F5               	movwf	??_SendLCD+1
  6829  1649  30C9               	movlw	201
  6830  164A  00F4               	movwf	??_SendLCD
  6831  164B                     u5457:
  6832  164B  0BF4               	decfsz	??_SendLCD,f
  6833  164C  2E4B               	goto	u5457
  6834  164D  0BF5               	decfsz	??_SendLCD+1,f
  6835  164E  2E4B               	goto	u5457
  6836  164F  2E50               	nop2
  6837  1650                     l3095:
  6838                           
  6839                           ;main.c: 426:     PORTE &= ~0x02;
  6840  1650  30FD               	movlw	253
  6841  1651  00F4               	movwf	??_SendLCD
  6842  1652  0874               	movf	??_SendLCD,w
  6843  1653  1283               	bcf	3,5	;RP0=0, select bank0
  6844  1654  1303               	bcf	3,6	;RP1=0, select bank0
  6845  1655  0589               	andwf	9,f	;volatile
  6846                           
  6847                           ;main.c: 427:     _delay((unsigned long)((3)*(8000000/4000.0)));
  6848  1656  3008               	movlw	8
  6849  1657  00F5               	movwf	??_SendLCD+1
  6850  1658  30C9               	movlw	201
  6851  1659  00F4               	movwf	??_SendLCD
  6852  165A                     u5467:
  6853  165A  0BF4               	decfsz	??_SendLCD,f
  6854  165B  2E5A               	goto	u5467
  6855  165C  0BF5               	decfsz	??_SendLCD+1,f
  6856  165D  2E5A               	goto	u5467
  6857  165E  2E5F               	nop2
  6858  165F                     l3097:
  6859                           
  6860                           ;main.c: 428:     PORTE |= 0x02;
  6861  165F  1283               	bcf	3,5	;RP0=0, select bank0
  6862  1660  1303               	bcf	3,6	;RP1=0, select bank0
  6863  1661  1489               	bsf	9,1	;volatile
  6864  1662                     l256:
  6865  1662  0008               	return
  6866  1663                     __end_of_SendLCD:
  6867                           
  6868                           	psect	text23
  6869  153E                     __ptext23:	
  6870 ;; *************** function _InitADC *****************
  6871 ;; Defined at:
  6872 ;;		line 310 in file "main.c"
  6873 ;; Parameters:    Size  Location     Type
  6874 ;;		None
  6875 ;; Auto vars:     Size  Location     Type
  6876 ;;		None
  6877 ;; Return value:  Size  Location     Type
  6878 ;;                  1    wreg      void 
  6879 ;; Registers used:
  6880 ;;		wreg
  6881 ;; Tracked objects:
  6882 ;;		On entry : 0/0
  6883 ;;		On exit  : 0/0
  6884 ;;		Unchanged: 0/0
  6885 ;; Data sizes:     COMMON   BANK0   BANK1   BANK3   BANK2
  6886 ;;      Params:         0       0       0       0       0
  6887 ;;      Locals:         0       0       0       0       0
  6888 ;;      Temps:          1       0       0       0       0
  6889 ;;      Totals:         1       0       0       0       0
  6890 ;;Total ram usage:        1 bytes
  6891 ;; Hardware stack levels used: 1
  6892 ;; Hardware stack levels required when called: 1
  6893 ;; This function calls:
  6894 ;;		Nothing
  6895 ;; This function is called by:
  6896 ;;		_main
  6897 ;; This function uses a non-reentrant model
  6898 ;;
  6899                           
  6900                           
  6901                           ;psect for function _InitADC
  6902  153E                     _InitADC:
  6903  153E                     l2679:	
  6904                           ;incstack = 0
  6905                           ; Regs used in _InitADC: [wreg]
  6906                           
  6907                           
  6908                           ;main.c: 312:     TRISA |= 0x04;
  6909  153E  1683               	bsf	3,5	;RP0=1, select bank1
  6910  153F  1303               	bcf	3,6	;RP1=0, select bank1
  6911  1540  1505               	bsf	5,2	;volatile
  6912  1541                     l2681:
  6913                           
  6914                           ;main.c: 313:     ADCON0 = 0x01;
  6915  1541  3001               	movlw	1
  6916  1542  1283               	bcf	3,5	;RP0=0, select bank0
  6917  1543  1303               	bcf	3,6	;RP1=0, select bank0
  6918  1544  009F               	movwf	31	;volatile
  6919                           
  6920                           ;main.c: 314:     ADCON1 = 0x80;
  6921  1545  3080               	movlw	128
  6922  1546  1683               	bsf	3,5	;RP0=1, select bank1
  6923  1547  1303               	bcf	3,6	;RP1=0, select bank1
  6924  1548  009F               	movwf	31	;volatile
  6925                           
  6926                           ;main.c: 315:     _delay((unsigned long)((20)*(8000000/4000000.0)));
  6927  1549  300D               	movlw	13
  6928  154A  00F3               	movwf	??_InitADC
  6929  154B                     u5477:
  6930  154B  0BF3               	decfsz	??_InitADC,f
  6931  154C  2D4B               	goto	u5477
  6932  154D                     l209:
  6933  154D  0008               	return
  6934  154E                     __end_of_InitADC:
  6935                           
  6936                           	psect	text24
  6937  08F7                     __ptext24:	
  6938 ;; *************** function _CheckOpenDoorButton *****************
  6939 ;; Defined at:
  6940 ;;		line 234 in file "main.c"
  6941 ;; Parameters:    Size  Location     Type
  6942 ;;		None
  6943 ;; Auto vars:     Size  Location     Type
  6944 ;;		None
  6945 ;; Return value:  Size  Location     Type
  6946 ;;                  1    wreg      void 
  6947 ;; Registers used:
  6948 ;;		wreg, fsr0l, fsr0h, status,2, status,0, pclath, cstack
  6949 ;; Tracked objects:
  6950 ;;		On entry : 0/0
  6951 ;;		On exit  : 0/0
  6952 ;;		Unchanged: 0/0
  6953 ;; Data sizes:     COMMON   BANK0   BANK1   BANK3   BANK2
  6954 ;;      Params:         0       0       0       0       0
  6955 ;;      Locals:         0       0       0       0       0
  6956 ;;      Temps:          0       2       0       0       0
  6957 ;;      Totals:         0       2       0       0       0
  6958 ;;Total ram usage:        2 bytes
  6959 ;; Hardware stack levels used: 1
  6960 ;; Hardware stack levels required when called: 4
  6961 ;; This function calls:
  6962 ;;		_MotorRotation
  6963 ;; This function is called by:
  6964 ;;		_main
  6965 ;; This function uses a non-reentrant model
  6966 ;;
  6967                           
  6968                           
  6969                           ;psect for function _CheckOpenDoorButton
  6970  08F7                     _CheckOpenDoorButton:
  6971  08F7                     l3387:	
  6972                           ;incstack = 0
  6973                           ; Regs used in _CheckOpenDoorButton: [wreg-fsr0h+status,2+status,0+pclath+cstack]
  6974                           
  6975                           
  6976                           ;main.c: 236:     TRISB |= 0x08;
  6977  08F7  1683               	bsf	3,5	;RP0=1, select bank1
  6978  08F8  1303               	bcf	3,6	;RP1=0, select bank1
  6979  08F9  1586               	bsf	6,3	;volatile
  6980                           
  6981                           ;main.c: 237:     if(!(PORTB & 0x08) && oldRB3)
  6982  08FA  1283               	bcf	3,5	;RP0=0, select bank0
  6983  08FB  1303               	bcf	3,6	;RP1=0, select bank0
  6984  08FC  1986               	btfsc	6,3	;volatile
  6985  08FD  28FF               	goto	u5241
  6986  08FE  2900               	goto	u5240
  6987  08FF                     u5241:
  6988  08FF  290F               	goto	l179
  6989  0900                     u5240:
  6990  0900                     l3389:
  6991  0900  085F               	movf	_oldRB3,w
  6992  0901  1903               	btfsc	3,2
  6993  0902  2904               	goto	u5251
  6994  0903  2905               	goto	u5250
  6995  0904                     u5251:
  6996  0904  290F               	goto	l179
  6997  0905                     u5250:
  6998  0905                     l3391:
  6999                           
  7000                           ;main.c: 238:     {;main.c: 239:         oldRB3 = 0;
  7001  0905  01DF               	clrf	_oldRB3
  7002  0906                     l3393:
  7003                           
  7004                           ;main.c: 240:         if(doorOpen)
  7005  0906  085E               	movf	_doorOpen,w
  7006  0907  1903               	btfsc	3,2
  7007  0908  290A               	goto	u5261
  7008  0909  290B               	goto	u5260
  7009  090A                     u5261:
  7010  090A  290D               	goto	l180
  7011  090B                     u5260:
  7012  090B                     l3395:
  7013                           
  7014                           ;main.c: 241:         {;main.c: 242:             doorOpen = 0;
  7015  090B  01DE               	clrf	_doorOpen
  7016                           
  7017                           ;main.c: 243:         }
  7018  090C  290F               	goto	l179
  7019  090D                     l180:	
  7020                           ;main.c: 244:         else doorOpen = 1;
  7021                           
  7022  090D  01DE               	clrf	_doorOpen
  7023  090E  0ADE               	incf	_doorOpen,f
  7024  090F                     l179:	
  7025                           ;main.c: 245:     }
  7026                           
  7027                           
  7028                           ;main.c: 246:     if((PORTB & 0x08) && !oldRB3)
  7029  090F  1D86               	btfss	6,3	;volatile
  7030  0910  2912               	goto	u5271
  7031  0911  2913               	goto	u5270
  7032  0912                     u5271:
  7033  0912  2930               	goto	l3407
  7034  0913                     u5270:
  7035  0913                     l3397:
  7036  0913  085F               	movf	_oldRB3,w
  7037  0914  1D03               	btfss	3,2
  7038  0915  2917               	goto	u5281
  7039  0916  2918               	goto	u5280
  7040  0917                     u5281:
  7041  0917  2930               	goto	l3407
  7042  0918                     u5280:
  7043  0918                     l3399:
  7044                           
  7045                           ;main.c: 247:     {;main.c: 248:         _delay((unsigned long)((10)*(8000000/4000.0)));
  7046  0918  301A               	movlw	26
  7047  0919  1283               	bcf	3,5	;RP0=0, select bank0
  7048  091A  1303               	bcf	3,6	;RP1=0, select bank0
  7049  091B  00A5               	movwf	??_CheckOpenDoorButton+1
  7050  091C  30F7               	movlw	247
  7051  091D  00A4               	movwf	??_CheckOpenDoorButton
  7052  091E                     u5487:
  7053  091E  0BA4               	decfsz	??_CheckOpenDoorButton,f
  7054  091F  291E               	goto	u5487
  7055  0920  0BA5               	decfsz	??_CheckOpenDoorButton+1,f
  7056  0921  291E               	goto	u5487
  7057  0922  2923               	nop2
  7058  0923                     l3401:
  7059                           
  7060                           ;main.c: 249:         if((PORTB & 0x08) && !oldRB3) oldRB3 = 1;
  7061  0923  1283               	bcf	3,5	;RP0=0, select bank0
  7062  0924  1303               	bcf	3,6	;RP1=0, select bank0
  7063  0925  1D86               	btfss	6,3	;volatile
  7064  0926  2928               	goto	u5291
  7065  0927  2929               	goto	u5290
  7066  0928                     u5291:
  7067  0928  2930               	goto	l3407
  7068  0929                     u5290:
  7069  0929                     l3403:
  7070  0929  085F               	movf	_oldRB3,w
  7071  092A  1D03               	btfss	3,2
  7072  092B  292D               	goto	u5301
  7073  092C  292E               	goto	u5300
  7074  092D                     u5301:
  7075  092D  2930               	goto	l3407
  7076  092E                     u5300:
  7077  092E                     l3405:
  7078  092E  01DF               	clrf	_oldRB3
  7079  092F  0ADF               	incf	_oldRB3,f
  7080  0930                     l3407:
  7081                           
  7082                           ;main.c: 251:     if(!oldDoorOpen && doorOpen)
  7083  0930  085D               	movf	_oldDoorOpen,w
  7084  0931  1D03               	btfss	3,2
  7085  0932  2934               	goto	u5311
  7086  0933  2935               	goto	u5310
  7087  0934                     u5311:
  7088  0934  2948               	goto	l3415
  7089  0935                     u5310:
  7090  0935                     l3409:
  7091  0935  085E               	movf	_doorOpen,w
  7092  0936  1903               	btfsc	3,2
  7093  0937  2939               	goto	u5321
  7094  0938  293A               	goto	u5320
  7095  0939                     u5321:
  7096  0939  2948               	goto	l3415
  7097  093A                     u5320:
  7098  093A                     l3411:
  7099                           
  7100                           ;main.c: 252:     {;main.c: 253:         MotorRotation(0x00, 25);
  7101  093A  3019               	movlw	25
  7102  093B  00A4               	movwf	??_CheckOpenDoorButton
  7103  093C  0824               	movf	??_CheckOpenDoorButton,w
  7104  093D  00A0               	movwf	MotorRotation@amplitude
  7105  093E  3000               	movlw	0
  7106  093F  160A  118A  256E  120A  158A  	fcall	_MotorRotation
  7107  0944                     l3413:
  7108                           
  7109                           ;main.c: 254:         oldDoorOpen = 1;
  7110  0944  1283               	bcf	3,5	;RP0=0, select bank0
  7111  0945  1303               	bcf	3,6	;RP1=0, select bank0
  7112  0946  01DD               	clrf	_oldDoorOpen
  7113  0947  0ADD               	incf	_oldDoorOpen,f
  7114  0948                     l3415:
  7115                           
  7116                           ;main.c: 256:     if(oldDoorOpen && !doorOpen)
  7117  0948  085D               	movf	_oldDoorOpen,w
  7118  0949  1903               	btfsc	3,2
  7119  094A  294C               	goto	u5331
  7120  094B  294D               	goto	u5330
  7121  094C                     u5331:
  7122  094C  295F               	goto	l186
  7123  094D                     u5330:
  7124  094D                     l3417:
  7125  094D  085E               	movf	_doorOpen,w
  7126  094E  1D03               	btfss	3,2
  7127  094F  2951               	goto	u5341
  7128  0950  2952               	goto	u5340
  7129  0951                     u5341:
  7130  0951  295F               	goto	l186
  7131  0952                     u5340:
  7132  0952                     l3419:
  7133                           
  7134                           ;main.c: 257:     {;main.c: 258:         MotorRotation(0x01, 25);
  7135  0952  3019               	movlw	25
  7136  0953  00A4               	movwf	??_CheckOpenDoorButton
  7137  0954  0824               	movf	??_CheckOpenDoorButton,w
  7138  0955  00A0               	movwf	MotorRotation@amplitude
  7139  0956  3001               	movlw	1
  7140  0957  160A  118A  256E  120A  158A  	fcall	_MotorRotation
  7141  095C                     l3421:
  7142                           
  7143                           ;main.c: 259:         oldDoorOpen = 0;
  7144  095C  1283               	bcf	3,5	;RP0=0, select bank0
  7145  095D  1303               	bcf	3,6	;RP1=0, select bank0
  7146  095E  01DD               	clrf	_oldDoorOpen
  7147  095F                     l186:
  7148  095F  0008               	return
  7149  0960                     __end_of_CheckOpenDoorButton:
  7150                           
  7151                           	psect	text25
  7152  156E                     __ptext25:	
  7153 ;; *************** function _MotorRotation *****************
  7154 ;; Defined at:
  7155 ;;		line 382 in file "main.c"
  7156 ;; Parameters:    Size  Location     Type
  7157 ;;  direction       1    wreg     unsigned char 
  7158 ;;  amplitude       1    0[BANK0 ] unsigned char 
  7159 ;; Auto vars:     Size  Location     Type
  7160 ;;  direction       1    2[BANK0 ] unsigned char 
  7161 ;;  i               1    3[BANK0 ] unsigned char 
  7162 ;; Return value:  Size  Location     Type
  7163 ;;                  1    wreg      void 
  7164 ;; Registers used:
  7165 ;;		wreg, fsr0l, fsr0h, status,2, status,0, pclath, cstack
  7166 ;; Tracked objects:
  7167 ;;		On entry : 0/0
  7168 ;;		On exit  : 0/0
  7169 ;;		Unchanged: 0/0
  7170 ;; Data sizes:     COMMON   BANK0   BANK1   BANK3   BANK2
  7171 ;;      Params:         0       1       0       0       0
  7172 ;;      Locals:         0       2       0       0       0
  7173 ;;      Temps:          0       1       0       0       0
  7174 ;;      Totals:         0       4       0       0       0
  7175 ;;Total ram usage:        4 bytes
  7176 ;; Hardware stack levels used: 1
  7177 ;; Hardware stack levels required when called: 3
  7178 ;; This function calls:
  7179 ;;		_DriveMotor
  7180 ;; This function is called by:
  7181 ;;		_CheckOpenDoorButton
  7182 ;; This function uses a non-reentrant model
  7183 ;;
  7184                           
  7185                           
  7186                           ;psect for function _MotorRotation
  7187  156E                     _MotorRotation:
  7188                           
  7189                           ;incstack = 0
  7190                           ; Regs used in _MotorRotation: [wreg-fsr0h+status,2+status,0+pclath+cstack]
  7191                           ;MotorRotation@direction stored from wreg
  7192  156E  1283               	bcf	3,5	;RP0=0, select bank0
  7193  156F  1303               	bcf	3,6	;RP1=0, select bank0
  7194  1570  00A2               	movwf	MotorRotation@direction
  7195  1571                     l3283:
  7196                           
  7197                           ;main.c: 382: void MotorRotation(char direction, char amplitude);main.c: 383: {;main.c: 
      +                          384:     TRISD &= 0b00001111;
  7198  1571  300F               	movlw	15
  7199  1572  00A1               	movwf	??_MotorRotation
  7200  1573  0821               	movf	??_MotorRotation,w
  7201  1574  1683               	bsf	3,5	;RP0=1, select bank1
  7202  1575  1303               	bcf	3,6	;RP1=0, select bank1
  7203  1576  0588               	andwf	8,f	;volatile
  7204  1577                     l3285:
  7205                           
  7206                           ;main.c: 385:     for(char i = 0; i<amplitude; i++)
  7207  1577  1283               	bcf	3,5	;RP0=0, select bank0
  7208  1578  1303               	bcf	3,6	;RP1=0, select bank0
  7209  1579  01A3               	clrf	MotorRotation@i
  7210  157A  2D87               	goto	l3291
  7211  157B                     l3287:
  7212                           
  7213                           ;main.c: 386:     {;main.c: 387:         DriveMotor(direction);
  7214  157B  0822               	movf	MotorRotation@direction,w
  7215  157C  160A  118A  2758  160A  118A  	fcall	_DriveMotor
  7216  1581                     l3289:
  7217                           
  7218                           ;main.c: 388:     }
  7219  1581  3001               	movlw	1
  7220  1582  1283               	bcf	3,5	;RP0=0, select bank0
  7221  1583  1303               	bcf	3,6	;RP1=0, select bank0
  7222  1584  00A1               	movwf	??_MotorRotation
  7223  1585  0821               	movf	??_MotorRotation,w
  7224  1586  07A3               	addwf	MotorRotation@i,f
  7225  1587                     l3291:
  7226  1587  0820               	movf	MotorRotation@amplitude,w
  7227  1588  0223               	subwf	MotorRotation@i,w
  7228  1589  1C03               	skipc
  7229  158A  2D8C               	goto	u5081
  7230  158B  2D8D               	goto	u5080
  7231  158C                     u5081:
  7232  158C  2D7B               	goto	l3287
  7233  158D                     u5080:
  7234  158D                     l236:
  7235  158D  0008               	return
  7236  158E                     __end_of_MotorRotation:
  7237                           
  7238                           	psect	text26
  7239  1758                     __ptext26:	
  7240 ;; *************** function _DriveMotor *****************
  7241 ;; Defined at:
  7242 ;;		line 263 in file "main.c"
  7243 ;; Parameters:    Size  Location     Type
  7244 ;;  direction       1    wreg     unsigned char 
  7245 ;; Auto vars:     Size  Location     Type
  7246 ;;  direction       1    5[COMMON] unsigned char 
  7247 ;;  i               1    7[COMMON] unsigned char 
  7248 ;;  i               1    6[COMMON] unsigned char 
  7249 ;; Return value:  Size  Location     Type
  7250 ;;                  1    wreg      void 
  7251 ;; Registers used:
  7252 ;;		wreg, fsr0l, fsr0h, status,2, status,0, pclath
  7253 ;; Tracked objects:
  7254 ;;		On entry : 0/0
  7255 ;;		On exit  : 0/0
  7256 ;;		Unchanged: 0/0
  7257 ;; Data sizes:     COMMON   BANK0   BANK1   BANK3   BANK2
  7258 ;;      Params:         0       0       0       0       0
  7259 ;;      Locals:         3       0       0       0       0
  7260 ;;      Temps:          2       0       0       0       0
  7261 ;;      Totals:         5       0       0       0       0
  7262 ;;Total ram usage:        5 bytes
  7263 ;; Hardware stack levels used: 2
  7264 ;; Hardware stack levels required when called: 1
  7265 ;; This function calls:
  7266 ;;		Nothing
  7267 ;; This function is called by:
  7268 ;;		_MotorRotation
  7269 ;; This function uses a non-reentrant model
  7270 ;;
  7271                           
  7272                           
  7273                           ;psect for function _DriveMotor
  7274  1758                     _DriveMotor:
  7275                           
  7276                           ;incstack = 0
  7277                           ; Regs used in _DriveMotor: [wreg-fsr0h+status,2+status,0+pclath]
  7278                           ;DriveMotor@direction stored from wreg
  7279  1758  00F5               	movwf	DriveMotor@direction
  7280  1759                     l2093:
  7281                           
  7282                           ;main.c: 263: void DriveMotor(char direction);main.c: 264: {;main.c: 265:     if (direct
      +                          ion == 0x00)
  7283  1759  0875               	movf	DriveMotor@direction,w
  7284  175A  1D03               	btfss	3,2
  7285  175B  2F5D               	goto	u2621
  7286  175C  2F5E               	goto	u2620
  7287  175D                     u2621:
  7288  175D  2F7D               	goto	l2109
  7289  175E                     u2620:
  7290  175E                     l2095:
  7291                           
  7292                           ;main.c: 266:     {;main.c: 267:         for (char i = 0; i<5; i++)
  7293  175E  01F6               	clrf	DriveMotor@i
  7294  175F                     l2101:
  7295                           
  7296                           ;main.c: 268:         {;main.c: 269:             PORTD = clockWise[i];
  7297  175F  0876               	movf	DriveMotor@i,w
  7298  1760  3E12               	addlw	low ((_clockWise-__stringbase)| (0+32768))
  7299  1761  0084               	movwf	4
  7300  1762  120A  158A  2000  160A  118A  	fcall	stringdir
  7301  1767  1283               	bcf	3,5	;RP0=0, select bank0
  7302  1768  1303               	bcf	3,6	;RP1=0, select bank0
  7303  1769  0088               	movwf	8	;volatile
  7304  176A                     l2103:
  7305                           
  7306                           ;main.c: 270:             _delay((unsigned long)((10)*(8000000/4000.0)));
  7307  176A  301A               	movlw	26
  7308  176B  00F4               	movwf	??_DriveMotor+1
  7309  176C  30F8               	movlw	248
  7310  176D  00F3               	movwf	??_DriveMotor
  7311  176E                     u5497:
  7312  176E  0BF3               	decfsz	??_DriveMotor,f
  7313  176F  2F6E               	goto	u5497
  7314  1770  0BF4               	decfsz	??_DriveMotor+1,f
  7315  1771  2F6E               	goto	u5497
  7316  1772  0000               	nop
  7317  1773                     l2105:
  7318                           
  7319                           ;main.c: 271:         }
  7320  1773  3001               	movlw	1
  7321  1774  00F3               	movwf	??_DriveMotor
  7322  1775  0873               	movf	??_DriveMotor,w
  7323  1776  07F6               	addwf	DriveMotor@i,f
  7324  1777                     l2107:
  7325  1777  3005               	movlw	5
  7326  1778  0276               	subwf	DriveMotor@i,w
  7327  1779  1C03               	skipc
  7328  177A  2F7C               	goto	u2631
  7329  177B  2F7D               	goto	u2630
  7330  177C                     u2631:
  7331  177C  2F5F               	goto	l2101
  7332  177D                     u2630:
  7333  177D                     l2109:
  7334                           
  7335                           ;main.c: 273:     if (direction == 0x01)
  7336  177D  0375               	decf	DriveMotor@direction,w
  7337  177E  1D03               	btfss	3,2
  7338  177F  2F81               	goto	u2641
  7339  1780  2F82               	goto	u2640
  7340  1781                     u2641:
  7341  1781  2FA1               	goto	l195
  7342  1782                     u2640:
  7343  1782                     l2111:
  7344                           
  7345                           ;main.c: 274:     {;main.c: 275:         for (char i = 0; i<5; i++)
  7346  1782  01F7               	clrf	DriveMotor@i_172
  7347  1783                     l2117:
  7348                           
  7349                           ;main.c: 276:         {;main.c: 277:             PORTD = counterClockWise[i];
  7350  1783  0877               	movf	DriveMotor@i_172,w
  7351  1784  3E0D               	addlw	low ((_counterClockWise-__stringbase)| (0+32768))
  7352  1785  0084               	movwf	4
  7353  1786  120A  158A  2000  160A  118A  	fcall	stringdir
  7354  178B  1283               	bcf	3,5	;RP0=0, select bank0
  7355  178C  1303               	bcf	3,6	;RP1=0, select bank0
  7356  178D  0088               	movwf	8	;volatile
  7357  178E                     l2119:
  7358                           
  7359                           ;main.c: 278:             _delay((unsigned long)((10)*(8000000/4000.0)));
  7360  178E  301A               	movlw	26
  7361  178F  00F4               	movwf	??_DriveMotor+1
  7362  1790  30F8               	movlw	248
  7363  1791  00F3               	movwf	??_DriveMotor
  7364  1792                     u5507:
  7365  1792  0BF3               	decfsz	??_DriveMotor,f
  7366  1793  2F92               	goto	u5507
  7367  1794  0BF4               	decfsz	??_DriveMotor+1,f
  7368  1795  2F92               	goto	u5507
  7369  1796  0000               	nop
  7370  1797                     l2121:
  7371                           
  7372                           ;main.c: 279:         }
  7373  1797  3001               	movlw	1
  7374  1798  00F3               	movwf	??_DriveMotor
  7375  1799  0873               	movf	??_DriveMotor,w
  7376  179A  07F7               	addwf	DriveMotor@i_172,f
  7377  179B                     l2123:
  7378  179B  3005               	movlw	5
  7379  179C  0277               	subwf	DriveMotor@i_172,w
  7380  179D  1C03               	skipc
  7381  179E  2FA0               	goto	u2651
  7382  179F  2FA1               	goto	u2650
  7383  17A0                     u2651:
  7384  17A0  2F83               	goto	l2117
  7385  17A1                     u2650:
  7386  17A1                     l195:
  7387  17A1  0008               	return
  7388  17A2                     __end_of_DriveMotor:
  7389                           
  7390                           	psect	text27
  7391  0960                     __ptext27:	
  7392 ;; *************** function _CheckKeypad *****************
  7393 ;; Defined at:
  7394 ;;		line 206 in file "main.c"
  7395 ;; Parameters:    Size  Location     Type
  7396 ;;		None
  7397 ;; Auto vars:     Size  Location     Type
  7398 ;;		None
  7399 ;; Return value:  Size  Location     Type
  7400 ;;                  1    wreg      unsigned char 
  7401 ;; Registers used:
  7402 ;;		wreg, fsr0l, fsr0h, status,2, status,0, btemp+1, pclath
  7403 ;; Tracked objects:
  7404 ;;		On entry : 0/0
  7405 ;;		On exit  : 0/0
  7406 ;;		Unchanged: 0/0
  7407 ;; Data sizes:     COMMON   BANK0   BANK1   BANK3   BANK2
  7408 ;;      Params:         0       0       0       0       0
  7409 ;;      Locals:         0       0       0       0       0
  7410 ;;      Temps:          2       0       0       0       0
  7411 ;;      Totals:         2       0       0       0       0
  7412 ;;Total ram usage:        2 bytes
  7413 ;; Hardware stack levels used: 2
  7414 ;; Hardware stack levels required when called: 1
  7415 ;; This function calls:
  7416 ;;		Nothing
  7417 ;; This function is called by:
  7418 ;;		_main
  7419 ;; This function uses a non-reentrant model
  7420 ;;
  7421                           
  7422                           
  7423                           ;psect for function _CheckKeypad
  7424  0960                     _CheckKeypad:
  7425  0960                     l2683:	
  7426                           ;incstack = 0
  7427                           ; Regs used in _CheckKeypad: [wreg-fsr0h+status,2+status,0+btemp+1+pclath]
  7428                           
  7429                           
  7430                           ;main.c: 208:     TRISB &= ~0x07;
  7431  0960  30F8               	movlw	248
  7432  0961  00F3               	movwf	??_CheckKeypad
  7433  0962  0873               	movf	??_CheckKeypad,w
  7434  0963  1683               	bsf	3,5	;RP0=1, select bank1
  7435  0964  1303               	bcf	3,6	;RP1=0, select bank1
  7436  0965  0586               	andwf	6,f	;volatile
  7437                           
  7438                           ;main.c: 209:     TRISD |= 0x0F;
  7439  0966  300F               	movlw	15
  7440  0967  00F3               	movwf	??_CheckKeypad
  7441  0968  0873               	movf	??_CheckKeypad,w
  7442  0969  0488               	iorwf	8,f	;volatile
  7443  096A                     l2685:
  7444                           
  7445                           ;main.c: 210:     for(colScan = 0; colScan < 3; colScan++)
  7446  096A  01F9               	clrf	_colScan
  7447  096B                     l2691:
  7448                           
  7449                           ;main.c: 211:     {;main.c: 212:         PORTB |= 0x07;
  7450  096B  3007               	movlw	7
  7451  096C  00F3               	movwf	??_CheckKeypad
  7452  096D  0873               	movf	??_CheckKeypad,w
  7453  096E  1283               	bcf	3,5	;RP0=0, select bank0
  7454  096F  0486               	iorwf	6,f	;volatile
  7455  0970                     l2693:
  7456                           
  7457                           ;main.c: 213:         PORTB &= colMask[colScan];
  7458  0970  0879               	movf	_colScan,w
  7459  0971  3E1B               	addlw	low ((_colMask-__stringbase)| (0+32768))
  7460  0972  0084               	movwf	4
  7461  0973  120A  158A  2000  120A  158A  	fcall	stringdir
  7462  0978  00F3               	movwf	??_CheckKeypad
  7463  0979  0873               	movf	??_CheckKeypad,w
  7464  097A  0586               	andwf	6,f	;volatile
  7465  097B                     l2695:
  7466                           
  7467                           ;main.c: 214:         _delay((unsigned long)((15)*(8000000/4000000.0)));
  7468  097B  3009               	movlw	9
  7469  097C  00F3               	movwf	??_CheckKeypad
  7470  097D                     u5517:
  7471  097D  0BF3               	decfsz	??_CheckKeypad,f
  7472  097E  297D               	goto	u5517
  7473  097F  2980               	nop2
  7474  0980                     l2697:
  7475                           
  7476                           ;main.c: 215:         for( rowScan = 0; rowScan < 4; rowScan++)
  7477  0980  1283               	bcf	3,5	;RP0=0, select bank0
  7478  0981  1303               	bcf	3,6	;RP1=0, select bank0
  7479  0982  01E7               	clrf	_rowScan
  7480  0983                     l2703:
  7481                           
  7482                           ;main.c: 216:         {;main.c: 217:             if(!(PORTD & rowMask[rowScan]))
  7483  0983  0867               	movf	_rowScan,w
  7484  0984  3E17               	addlw	low ((_rowMask-__stringbase)| (0+32768))
  7485  0985  0084               	movwf	4
  7486  0986  120A  158A  2000  120A  158A  	fcall	stringdir
  7487  098B  0508               	andwf	8,w	;volatile
  7488  098C  1D03               	btfss	3,2
  7489  098D  298F               	goto	u3881
  7490  098E  2990               	goto	u3880
  7491  098F                     u3881:
  7492  098F  29B4               	goto	l2715
  7493  0990                     u3880:
  7494  0990                     l2705:
  7495                           
  7496                           ;main.c: 218:             {;main.c: 219:                 flags |= 0x02;
  7497  0990  14FA               	bsf	_flags,1
  7498  0991                     l2707:
  7499                           
  7500                           ;main.c: 220:                 if(counterAntibouncing > 10)
  7501  0991  085C               	movf	_counterAntibouncing+1,w
  7502  0992  3A80               	xorlw	128
  7503  0993  00FF               	movwf	btemp+1
  7504  0994  3080               	movlw	128
  7505  0995  027F               	subwf	btemp+1,w
  7506  0996  1D03               	skipz
  7507  0997  299A               	goto	u3895
  7508  0998  300B               	movlw	11
  7509  0999  025B               	subwf	_counterAntibouncing,w
  7510  099A                     u3895:
  7511  099A  1C03               	skipc
  7512  099B  299D               	goto	u3891
  7513  099C  299E               	goto	u3890
  7514  099D                     u3891:
  7515  099D  29B4               	goto	l2715
  7516  099E                     u3890:
  7517  099E                     l2709:
  7518                           
  7519                           ;main.c: 221:                 {;main.c: 222:                     keyValue = rowScan+(4*c
      +                          olScan);
  7520  099E  0879               	movf	_colScan,w
  7521  099F  00F3               	movwf	??_CheckKeypad
  7522  09A0  3002               	movlw	2
  7523  09A1                     u3905:
  7524  09A1  1003               	clrc
  7525  09A2  0DF3               	rlf	??_CheckKeypad,f
  7526  09A3  3EFF               	addlw	-1
  7527  09A4  1D03               	skipz
  7528  09A5  29A1               	goto	u3905
  7529  09A6  1283               	bcf	3,5	;RP0=0, select bank0
  7530  09A7  1303               	bcf	3,6	;RP1=0, select bank0
  7531  09A8  0867               	movf	_rowScan,w
  7532  09A9  0773               	addwf	??_CheckKeypad,w
  7533  09AA  00F4               	movwf	??_CheckKeypad+1
  7534  09AB  0874               	movf	??_CheckKeypad+1,w
  7535  09AC  00EF               	movwf	_keyValue
  7536                           
  7537                           ;main.c: 223:                     flags &= ~0x02;
  7538  09AD  30FD               	movlw	253
  7539  09AE  00F3               	movwf	??_CheckKeypad
  7540  09AF  0873               	movf	??_CheckKeypad,w
  7541  09B0  05FA               	andwf	_flags,f
  7542  09B1                     l2711:
  7543                           
  7544                           ;main.c: 224:                     counterAntibouncing = 0;
  7545  09B1  01DB               	clrf	_counterAntibouncing
  7546  09B2  01DC               	clrf	_counterAntibouncing+1
  7547  09B3                     l2713:
  7548                           
  7549                           ;main.c: 225:                     flags |= 0x01;
  7550  09B3  147A               	bsf	_flags,0
  7551  09B4                     l2715:
  7552                           
  7553                           ;main.c: 228:         }
  7554  09B4  3001               	movlw	1
  7555  09B5  00F3               	movwf	??_CheckKeypad
  7556  09B6  0873               	movf	??_CheckKeypad,w
  7557  09B7  1283               	bcf	3,5	;RP0=0, select bank0
  7558  09B8  1303               	bcf	3,6	;RP1=0, select bank0
  7559  09B9  07E7               	addwf	_rowScan,f
  7560  09BA                     l2717:
  7561  09BA  3004               	movlw	4
  7562  09BB  0267               	subwf	_rowScan,w
  7563  09BC  1C03               	skipc
  7564  09BD  29BF               	goto	u3911
  7565  09BE  29C0               	goto	u3910
  7566  09BF                     u3911:
  7567  09BF  2983               	goto	l2703
  7568  09C0                     u3910:
  7569  09C0                     l2719:
  7570                           
  7571                           ;main.c: 229:     }
  7572  09C0  3001               	movlw	1
  7573  09C1  00F3               	movwf	??_CheckKeypad
  7574  09C2  0873               	movf	??_CheckKeypad,w
  7575  09C3  07F9               	addwf	_colScan,f
  7576  09C4                     l2721:
  7577  09C4  3003               	movlw	3
  7578  09C5  0279               	subwf	_colScan,w
  7579  09C6  1C03               	skipc
  7580  09C7  29C9               	goto	u3921
  7581  09C8  29CA               	goto	u3920
  7582  09C9                     u3921:
  7583  09C9  296B               	goto	l2691
  7584  09CA                     u3920:
  7585  09CA                     l2723:
  7586                           
  7587                           ;main.c: 230:     return keypad[keyValue];
  7588  09CA  086F               	movf	_keyValue,w
  7589  09CB  3E01               	addlw	low ((_keypad-__stringbase)| (0+32768))
  7590  09CC  0084               	movwf	4
  7591  09CD  120A  158A  2000  120A  158A  	fcall	stringdir
  7592  09D2                     l176:
  7593  09D2  0008               	return
  7594  09D3                     __end_of_CheckKeypad:
  7595                           
  7596                           	psect	text28
  7597  1714                     __ptext28:	
  7598 ;; *************** function _CheckAlarmButton *****************
  7599 ;; Defined at:
  7600 ;;		line 182 in file "main.c"
  7601 ;; Parameters:    Size  Location     Type
  7602 ;;		None
  7603 ;; Auto vars:     Size  Location     Type
  7604 ;;		None
  7605 ;; Return value:  Size  Location     Type
  7606 ;;                  1    wreg      void 
  7607 ;; Registers used:
  7608 ;;		wreg, status,2, status,0
  7609 ;; Tracked objects:
  7610 ;;		On entry : 0/0
  7611 ;;		On exit  : 0/0
  7612 ;;		Unchanged: 0/0
  7613 ;; Data sizes:     COMMON   BANK0   BANK1   BANK3   BANK2
  7614 ;;      Params:         0       0       0       0       0
  7615 ;;      Locals:         0       0       0       0       0
  7616 ;;      Temps:          2       0       0       0       0
  7617 ;;      Totals:         2       0       0       0       0
  7618 ;;Total ram usage:        2 bytes
  7619 ;; Hardware stack levels used: 1
  7620 ;; Hardware stack levels required when called: 1
  7621 ;; This function calls:
  7622 ;;		Nothing
  7623 ;; This function is called by:
  7624 ;;		_main
  7625 ;; This function uses a non-reentrant model
  7626 ;;
  7627                           
  7628                           
  7629                           ;psect for function _CheckAlarmButton
  7630  1714                     _CheckAlarmButton:
  7631  1714                     l2739:	
  7632                           ;incstack = 0
  7633                           ; Regs used in _CheckAlarmButton: [wreg+status,2+status,0]
  7634                           
  7635                           
  7636                           ;main.c: 184:     TRISB |= 0x04;
  7637  1714  1683               	bsf	3,5	;RP0=1, select bank1
  7638  1715  1303               	bcf	3,6	;RP1=0, select bank1
  7639  1716  1506               	bsf	6,2	;volatile
  7640  1717                     l2741:
  7641                           
  7642                           ;main.c: 185:     TRISC = 0x00;
  7643  1717  0187               	clrf	7	;volatile
  7644  1718                     l2743:
  7645                           
  7646                           ;main.c: 187:     if(!(PORTB & 0x04) && oldRB2)
  7647  1718  1283               	bcf	3,5	;RP0=0, select bank0
  7648  1719  1303               	bcf	3,6	;RP1=0, select bank0
  7649  171A  1906               	btfsc	6,2	;volatile
  7650  171B  2F1D               	goto	u3951
  7651  171C  2F1E               	goto	u3950
  7652  171D                     u3951:
  7653  171D  2F2E               	goto	l160
  7654  171E                     u3950:
  7655  171E                     l2745:
  7656  171E  0860               	movf	_oldRB2,w
  7657  171F  1903               	btfsc	3,2
  7658  1720  2F22               	goto	u3961
  7659  1721  2F23               	goto	u3960
  7660  1722                     u3961:
  7661  1722  2F2E               	goto	l160
  7662  1723                     u3960:
  7663  1723                     l2747:
  7664                           
  7665                           ;main.c: 188:     {;main.c: 189:         oldRB2 = 0;
  7666  1723  01E0               	clrf	_oldRB2
  7667  1724                     l2749:
  7668                           
  7669                           ;main.c: 190:         if(flags & 0x04)
  7670  1724  1D7A               	btfss	_flags,2
  7671  1725  2F27               	goto	u3971
  7672  1726  2F28               	goto	u3970
  7673  1727                     u3971:
  7674  1727  2F2D               	goto	l161
  7675  1728                     u3970:
  7676  1728                     l2751:
  7677                           
  7678                           ;main.c: 191:         {;main.c: 192:             flags &= ~0x04;
  7679  1728  30FB               	movlw	251
  7680  1729  00F3               	movwf	??_CheckAlarmButton
  7681  172A  0873               	movf	??_CheckAlarmButton,w
  7682  172B  05FA               	andwf	_flags,f
  7683                           
  7684                           ;main.c: 193:         }
  7685  172C  2F2E               	goto	l160
  7686  172D                     l161:	
  7687                           ;main.c: 194:         else flags |= 0x04;
  7688                           
  7689  172D  157A               	bsf	_flags,2
  7690  172E                     l160:	
  7691                           ;main.c: 195:     }
  7692                           
  7693                           
  7694                           ;main.c: 196:     if((PORTB & 0x04) && !oldRB2)
  7695  172E  1D06               	btfss	6,2	;volatile
  7696  172F  2F31               	goto	u3981
  7697  1730  2F32               	goto	u3980
  7698  1731                     u3981:
  7699  1731  2F4D               	goto	l163
  7700  1732                     u3980:
  7701  1732                     l2753:
  7702  1732  0860               	movf	_oldRB2,w
  7703  1733  1D03               	btfss	3,2
  7704  1734  2F36               	goto	u3991
  7705  1735  2F37               	goto	u3990
  7706  1736                     u3991:
  7707  1736  2F4D               	goto	l163
  7708  1737                     u3990:
  7709  1737                     l2755:
  7710                           
  7711                           ;main.c: 197:     {;main.c: 198:         _delay((unsigned long)((10)*(8000000/4000.0)));
  7712  1737  301A               	movlw	26
  7713  1738  00F4               	movwf	??_CheckAlarmButton+1
  7714  1739  30F8               	movlw	248
  7715  173A  00F3               	movwf	??_CheckAlarmButton
  7716  173B                     u5527:
  7717  173B  0BF3               	decfsz	??_CheckAlarmButton,f
  7718  173C  2F3B               	goto	u5527
  7719  173D  0BF4               	decfsz	??_CheckAlarmButton+1,f
  7720  173E  2F3B               	goto	u5527
  7721  173F  0000               	nop
  7722  1740                     l2757:
  7723                           
  7724                           ;main.c: 199:         if((PORTB & 0x04) && !oldRB2) oldRB2 = 1;
  7725  1740  1283               	bcf	3,5	;RP0=0, select bank0
  7726  1741  1303               	bcf	3,6	;RP1=0, select bank0
  7727  1742  1D06               	btfss	6,2	;volatile
  7728  1743  2F45               	goto	u4001
  7729  1744  2F46               	goto	u4000
  7730  1745                     u4001:
  7731  1745  2F4D               	goto	l163
  7732  1746                     u4000:
  7733  1746                     l2759:
  7734  1746  0860               	movf	_oldRB2,w
  7735  1747  1D03               	btfss	3,2
  7736  1748  2F4A               	goto	u4011
  7737  1749  2F4B               	goto	u4010
  7738  174A                     u4011:
  7739  174A  2F4D               	goto	l163
  7740  174B                     u4010:
  7741  174B                     l2761:
  7742  174B  01E0               	clrf	_oldRB2
  7743  174C  0AE0               	incf	_oldRB2,f
  7744  174D                     l163:	
  7745                           ;main.c: 201:     }
  7746                           
  7747                           
  7748                           ;main.c: 202:     if(flags & 0x04) PORTC |= 0x02;
  7749  174D  1D7A               	btfss	_flags,2
  7750  174E  2F50               	goto	u4021
  7751  174F  2F51               	goto	u4020
  7752  1750                     u4021:
  7753  1750  2F53               	goto	l2765
  7754  1751                     u4020:
  7755  1751                     l2763:
  7756  1751  1487               	bsf	7,1	;volatile
  7757  1752  2F57               	goto	l167
  7758  1753                     l2765:
  7759  1753  30FD               	movlw	253
  7760  1754  00F3               	movwf	??_CheckAlarmButton
  7761  1755  0873               	movf	??_CheckAlarmButton,w
  7762  1756  0587               	andwf	7,f	;volatile
  7763  1757                     l167:
  7764  1757  0008               	return
  7765  1758                     __end_of_CheckAlarmButton:
  7766                           
  7767                           	psect	text29
  7768  1663                     __ptext29:	
  7769 ;; *************** function _ISR *****************
  7770 ;; Defined at:
  7771 ;;		line 164 in file "main.c"
  7772 ;; Parameters:    Size  Location     Type
  7773 ;;		None
  7774 ;; Auto vars:     Size  Location     Type
  7775 ;;		None
  7776 ;; Return value:  Size  Location     Type
  7777 ;;                  1    wreg      void 
  7778 ;; Registers used:
  7779 ;;		wreg, status,2, status,0
  7780 ;; Tracked objects:
  7781 ;;		On entry : 0/0
  7782 ;;		On exit  : 0/0
  7783 ;;		Unchanged: 0/0
  7784 ;; Data sizes:     COMMON   BANK0   BANK1   BANK3   BANK2
  7785 ;;      Params:         0       0       0       0       0
  7786 ;;      Locals:         0       0       0       0       0
  7787 ;;      Temps:          3       0       0       0       0
  7788 ;;      Totals:         3       0       0       0       0
  7789 ;;Total ram usage:        3 bytes
  7790 ;; Hardware stack levels used: 1
  7791 ;; This function calls:
  7792 ;;		Nothing
  7793 ;; This function is called by:
  7794 ;;		Interrupt level 1
  7795 ;; This function uses a non-reentrant model
  7796 ;;
  7797                           
  7798                           
  7799                           ;psect for function _ISR
  7800  1663                     _ISR:
  7801  1663                     i1l2869:
  7802                           
  7803                           ;main.c: 166:     if(INTCON & 0x04)
  7804  1663  1D0B               	btfss	11,2	;volatile
  7805  1664  2E66               	goto	u422_21
  7806  1665  2E67               	goto	u422_20
  7807  1666                     u422_21:
  7808  1666  2E94               	goto	i1l157
  7809  1667                     u422_20:
  7810  1667                     i1l2871:
  7811                           
  7812                           ;main.c: 167:     {;main.c: 168:         if(flags & 0x02)
  7813  1667  1CFA               	btfss	_flags,1
  7814  1668  2E6A               	goto	u423_21
  7815  1669  2E6B               	goto	u423_20
  7816  166A                     u423_21:
  7817  166A  2E73               	goto	i1l2875
  7818  166B                     u423_20:
  7819  166B                     i1l2873:
  7820                           
  7821                           ;main.c: 169:             counterAntibouncing++;
  7822  166B  3001               	movlw	1
  7823  166C  1283               	bcf	3,5	;RP0=0, select bank0
  7824  166D  1303               	bcf	3,6	;RP1=0, select bank0
  7825  166E  07DB               	addwf	_counterAntibouncing,f
  7826  166F  1803               	skipnc
  7827  1670  0ADC               	incf	_counterAntibouncing+1,f
  7828  1671  3000               	movlw	0
  7829  1672  07DC               	addwf	_counterAntibouncing+1,f
  7830  1673                     i1l2875:
  7831                           
  7832                           ;main.c: 171:         if(dutyCounter >= 255) dutyCounter = 0;
  7833  1673  1283               	bcf	3,5	;RP0=0, select bank0
  7834  1674  1303               	bcf	3,6	;RP1=0, select bank0
  7835  1675  0A63               	incf	_dutyCounter,w
  7836  1676  1D03               	btfss	3,2
  7837  1677  2E79               	goto	u424_21
  7838  1678  2E7A               	goto	u424_20
  7839  1679                     u424_21:
  7840  1679  2E7C               	goto	i1l2879
  7841  167A                     u424_20:
  7842  167A                     i1l2877:
  7843  167A  01E3               	clrf	_dutyCounter
  7844  167B  2E80               	goto	i1l156
  7845  167C                     i1l2879:
  7846  167C  3001               	movlw	1
  7847  167D  00F0               	movwf	??_ISR
  7848  167E  0870               	movf	??_ISR,w
  7849  167F  07E3               	addwf	_dutyCounter,f
  7850  1680                     i1l156:
  7851                           
  7852                           ;main.c: 174:         INTCON &= ~0x04;
  7853  1680  30FB               	movlw	251
  7854  1681  00F0               	movwf	??_ISR
  7855  1682  0870               	movf	??_ISR,w
  7856  1683  058B               	andwf	11,f	;volatile
  7857  1684                     i1l2881:
  7858                           
  7859                           ;main.c: 175:         TMR0 = 6;
  7860  1684  3006               	movlw	6
  7861  1685  0081               	movwf	1	;volatile
  7862  1686                     i1l2883:
  7863                           
  7864                           ;main.c: 176:         postScalerTemp++;
  7865  1686  3001               	movlw	1
  7866  1687  1683               	bsf	3,5	;RP0=1, select bank1
  7867  1688  1303               	bcf	3,6	;RP1=0, select bank1
  7868  1689  07AE               	addwf	_postScalerTemp^(0+128),f
  7869  168A  1803               	skipnc
  7870  168B  0AAF               	incf	(_postScalerTemp+1)^(0+128),f
  7871  168C  3000               	movlw	0
  7872  168D  07AF               	addwf	(_postScalerTemp+1)^(0+128),f
  7873  168E                     i1l2885:
  7874                           
  7875                           ;main.c: 177:         postScalerHum++;
  7876  168E  3001               	movlw	1
  7877  168F  07AC               	addwf	_postScalerHum^(0+128),f
  7878  1690  1803               	skipnc
  7879  1691  0AAD               	incf	(_postScalerHum+1)^(0+128),f
  7880  1692  3000               	movlw	0
  7881  1693  07AD               	addwf	(_postScalerHum+1)^(0+128),f
  7882  1694                     i1l157:
  7883  1694  0872               	movf	??_ISR+2,w
  7884  1695  008A               	movwf	10
  7885  1696  0E71               	swapf	??_ISR+1,w
  7886  1697  0083               	movwf	3
  7887  1698  0EFE               	swapf	btemp,f
  7888  1699  0E7E               	swapf	btemp,w
  7889  169A  0009               	retfie
  7890  169B                     __end_of_ISR:
  7891  007E                     btemp	set	126	;btemp
  7892  007E                     wtemp0	set	126
  7893                           
  7894                           	psect	intentry
  7895  0004                     __pintentry:	
  7896                           ;incstack = 0
  7897                           ; Regs used in _ISR: [wreg+status,2+status,0]
  7898                           
  7899  0004                     interrupt_function:
  7900  007E                     saved_w	set	btemp
  7901  0004  00FE               	movwf	btemp
  7902  0005  0E03               	swapf	3,w
  7903  0006  00F1               	movwf	??_ISR+1
  7904  0007  080A               	movf	10,w
  7905  0008  00F2               	movwf	??_ISR+2
  7906  0009  160A  118A  2E63   	ljmp	_ISR
  7907                           
  7908                           	psect	config
  7909                           
  7910                           ;Config register CONFIG @ 0x2007
  7911                           ;	Oscillator Selection bits
  7912                           ;	FOSC = HS, HS oscillator
  7913                           ;	Watchdog Timer Enable bit
  7914                           ;	WDTE = OFF, WDT disabled
  7915                           ;	Power-up Timer Enable bit
  7916                           ;	PWRTE = ON, PWRT enabled
  7917                           ;	Brown-out Reset Enable bit
  7918                           ;	BOREN = ON, BOR enabled
  7919                           ;	Low-Voltage (Single-Supply) In-Circuit Serial Programming Enable bit
  7920                           ;	LVP = ON, RB3/PGM pin has PGM function; low-voltage programming enabled
  7921                           ;	Data EEPROM Memory Code Protection bit
  7922                           ;	CPD = OFF, Data EEPROM code protection off
  7923                           ;	Flash Program Memory Write Enable bits
  7924                           ;	WRT = OFF, Write protection off; all program memory may be written to by EECON control
  7925                           ;	In-Circuit Debugger Mode bit
  7926                           ;	DEBUG = 0x1, unprogrammed default
  7927                           ;	Flash Program Memory Code Protection bit
  7928                           ;	CP = OFF, Code protection off
  7929  2007                     	org	8199
  7930  2007  3FF2               	dw	16370

Data Sizes:
    Strings     93
    Constant    29
    Data        20
    BSS         30
    Persistent  0
    Stack       0

Auto Spaces:
    Space          Size  Autos    Used
    COMMON           14      8      11
    BANK0            80     55      80
    BANK1            80      2      24
    BANK3            96      0       0
    BANK2            96      0       0

Pointer List with Targets:

    SendLCDString@string	PTR const unsigned char  size(1) Largest target is 33
		 -> STR_5(CODE[17]), STR_4(CODE[33]), STR_3(CODE[28]), STR_2(CODE[1]), 
		 -> STR_1(CODE[15]), 

    displays	PTR const unsigned char [4] size(1) Largest target is 33
		 -> STR_5(CODE[17]), STR_4(CODE[33]), STR_3(CODE[28]), STR_2(CODE[1]), 

    startDisplay	PTR const unsigned char  size(1) Largest target is 15
		 -> STR_1(CODE[15]), 


Critical Paths under _main in COMMON

    _main->_SendLCDString
    _ReadTemperature->_ReadADC
    _ReadHumidity->___fladd
    _ManageDisplays->_SendLCDString
    _UpdateLCDViewWithNumber->___fldiv
    ___xxtofl->_ReadADC
    ___fltol->___fldiv
    ___flmul->_ReadADC
    _SendLCDString->_SendLCD
    ___flge->___fladd
    _InitLCD->_SendLCD
    _MotorRotation->_DriveMotor

Critical Paths under _ISR in COMMON

    None.

Critical Paths under _main in BANK0

    _UpdateTempHumDisplay->_UpdateLCDViewWithNumber
    _ReadTemperature->___flmul
    _ReadHumidity->___flge
    _ManageDisplays->_UpdateLCDViewWithNumber
    _UpdateLCDViewWithNumber->___flmul
    ___xxtofl->___wmul
    ___fltol->___fldiv
    ___flmul->___xxtofl
    _HandleKeypadReading->___flge
    ___flsub->___fladd
    ___flsub->___xxtofl
    ___flge->___fladd
    _CheckOpenDoorButton->_MotorRotation

Critical Paths under _ISR in BANK0

    None.

Critical Paths under _main in BANK1

    _main->_ManageDisplays

Critical Paths under _ISR in BANK1

    None.

Critical Paths under _main in BANK3

    None.

Critical Paths under _ISR in BANK3

    None.

Critical Paths under _main in BANK2

    None.

Critical Paths under _ISR in BANK2

    None.

Call Graph Tables:

 ---------------------------------------------------------------------------------
 (Depth) Function   	        Calls       Base Space   Used Autos Params    Refs
 ---------------------------------------------------------------------------------
 (0) _main                                                 1     1      0   62281
                                              1 BANK1      1     1      0
                   _CheckAlarmButton
                        _CheckKeypad
                _CheckOpenDoorButton
                            _InitADC
                            _InitLCD
                            _InitPic
                       _ManageCooler
                     _ManageDisplays
                       _ManageHeater
                       _ReadHumidity
                    _ReadTemperature
                      _SendLCDString
               _UpdateTempHumDisplay
                            ___fladd
                             ___flge
 ---------------------------------------------------------------------------------
 (1) _UpdateTempHumDisplay                                 0     0      0   15475
            _UpdateLCDViewWithNumber
 ---------------------------------------------------------------------------------
 (1) _ReadTemperature                                      0     0      0    3489
                            _ReadADC
                            ___flmul
                           ___xxtofl
 ---------------------------------------------------------------------------------
 (2) _ReadADC                                              5     3      2      22
                                              3 COMMON     5     3      2
 ---------------------------------------------------------------------------------
 (1) _ReadHumidity                                         0     0      0    4784
                            ___fladd
                             ___flge
 ---------------------------------------------------------------------------------
 (1) _ManageHeater                                         2     2      0      22
                                              3 COMMON     2     2      0
 ---------------------------------------------------------------------------------
 (1) _ManageDisplays                                       1     1      0   29128
                                              0 BANK1      1     1      0
                _HandleKeypadReading
                            _SendLCD
                      _SendLCDString
            _UpdateLCDViewWithNumber
 ---------------------------------------------------------------------------------
 (2) _UpdateLCDViewWithNumber                             13     9      4   15475
                                             42 BANK0     13     9      4
                            _SendLCD
                            ___fldiv
                             ___flge
                            ___flmul
                            ___flsub
                            ___fltol
                             ___wmul
                           ___xxtofl
 ---------------------------------------------------------------------------------
 (3) ___xxtofl                                            14    10      4     898
                                              2 BANK0     14    10      4
                            _ReadADC (ARG)
                             ___wmul (ARG)
 ---------------------------------------------------------------------------------
 (3) ___wmul                                               6     2      4     606
                                              3 COMMON     4     0      4
                                              0 BANK0      2     2      0
 ---------------------------------------------------------------------------------
 (3) ___fltol                                             11     7      4     533
                                             21 BANK0     11     7      4
                            ___fldiv (ARG)
 ---------------------------------------------------------------------------------
 (3) ___flmul                                             26    18      8    2569
                                             16 BANK0     26    18      8
                            _ReadADC (ARG)
                          __Umul8_16
                           ___xxtofl (ARG)
 ---------------------------------------------------------------------------------
 (4) __Umul8_16                                            9     7      2     799
                                              3 COMMON     4     2      2
                                              0 BANK0      5     5      0
 ---------------------------------------------------------------------------------
 (3) ___fldiv                                             26    18      8    2403
                                              3 COMMON     5     5      0
                                              0 BANK0     21    13      8
 ---------------------------------------------------------------------------------
 (1) _SendLCDString                                        3     3      0    2256
                                              7 COMMON     1     1      0
                                              0 BANK0      2     2      0
                            _SendLCD
 ---------------------------------------------------------------------------------
 (2) _HandleKeypadReading                                  2     2      0    9535
                                             28 BANK0      2     2      0
                            ___fladd
                             ___flge
                            ___flsub
 ---------------------------------------------------------------------------------
 (3) ___flsub                                              8     0      8    4627
                                             16 BANK0      8     0      8
                            ___fladd
                             ___wmul (ARG)
                           ___xxtofl (ARG)
 ---------------------------------------------------------------------------------
 (1) ___fladd                                             20    12      8    3690
                                              3 COMMON     4     4      0
                                              0 BANK0     16     8      8
 ---------------------------------------------------------------------------------
 (1) ___flge                                              12     4      8    1094
                                             16 BANK0     12     4      8
                            ___fladd (ARG)
 ---------------------------------------------------------------------------------
 (1) _ManageCooler                                         2     2      0      22
                                              3 COMMON     2     2      0
 ---------------------------------------------------------------------------------
 (1) _InitPic                                              0     0      0       0
 ---------------------------------------------------------------------------------
 (1) _InitLCD                                              2     2      0    1862
                                              0 BANK0      2     2      0
                            _SendLCD
 ---------------------------------------------------------------------------------
 (3) _SendLCD                                              4     3      1    1862
                                              3 COMMON     4     3      1
 ---------------------------------------------------------------------------------
 (1) _InitADC                                              1     1      0       0
                                              3 COMMON     1     1      0
 ---------------------------------------------------------------------------------
 (1) _CheckOpenDoorButton                                  2     2      0     459
                                              4 BANK0      2     2      0
                      _MotorRotation
 ---------------------------------------------------------------------------------
 (2) _MotorRotation                                        4     3      1     459
                                              0 BANK0      4     3      1
                         _DriveMotor
 ---------------------------------------------------------------------------------
 (4) _DriveMotor                                           5     5      0     180
                                              3 COMMON     5     5      0
 ---------------------------------------------------------------------------------
 (2) _CheckKeypad                                          2     2      0       0
                                              3 COMMON     2     2      0
 ---------------------------------------------------------------------------------
 (1) _CheckAlarmButton                                     2     2      0       0
                                              3 COMMON     2     2      0
 ---------------------------------------------------------------------------------
 Estimated maximum stack depth 4
 ---------------------------------------------------------------------------------
 (Depth) Function   	        Calls       Base Space   Used Autos Params    Refs
 ---------------------------------------------------------------------------------
 (5) _ISR                                                  3     3      0       0
                                              0 COMMON     3     3      0
 ---------------------------------------------------------------------------------
 Estimated maximum stack depth 5
 ---------------------------------------------------------------------------------

 Call Graph Graphs:

 _main (ROOT)
   _CheckAlarmButton
   _CheckKeypad
   _CheckOpenDoorButton
     _MotorRotation
       _DriveMotor
   _InitADC
   _InitLCD
     _SendLCD
   _InitPic
   _ManageCooler
   _ManageDisplays
     _HandleKeypadReading
       ___fladd
       ___flge
         ___fladd (ARG)
       ___flsub
         ___fladd
         ___wmul (ARG)
         ___xxtofl (ARG)
           _ReadADC (ARG)
           ___wmul (ARG)
     _SendLCD
     _SendLCDString
       _SendLCD
     _UpdateLCDViewWithNumber
       _SendLCD
       ___fldiv
       ___flge
       ___flmul
         _ReadADC (ARG)
         __Umul8_16 (ARG)
         ___xxtofl (ARG)
       ___flsub
       ___fltol
         ___fldiv (ARG)
       ___wmul
       ___xxtofl
   _ManageHeater
   _ReadHumidity
     ___fladd
     ___flge
   _ReadTemperature
     _ReadADC
     ___flmul
     ___xxtofl
   _SendLCDString
   _UpdateTempHumDisplay
     _UpdateLCDViewWithNumber
   ___fladd
   ___flge

 _ISR (ROOT)

 Address spaces:
Name               Size   Autos  Total    Cost      Usage
BANK3               60      0       0       9        0.0%
BITBANK3            60      0       0       8        0.0%
SFR3                 0      0       0       4        0.0%
BITSFR3              0      0       0       4        0.0%
BANK2               60      0       0      11        0.0%
BITBANK2            60      0       0      10        0.0%
SFR2                 0      0       0       5        0.0%
BITSFR2              0      0       0       5        0.0%
BANK1               50      2      18       7       30.0%
BITBANK1            50      0       0       6        0.0%
SFR1                 0      0       0       2        0.0%
BITSFR1              0      0       0       2        0.0%
BANK0               50     37      50       5      100.0%
BITBANK0            50      0       0       4        0.0%
SFR0                 0      0       0       1        0.0%
BITSFR0              0      0       0       1        0.0%
COMMON               E      8       B       1       78.6%
BITCOMMON            E      0       0       0        0.0%
CODE                 0      0       0       0        0.0%
DATA                 0      0      73      12        0.0%
ABS                  0      0      73       3        0.0%
NULL                 0      0       0       0        0.0%
STACK                0      0       0       2        0.0%
EEDATA             100      0       0       0        0.0%


Microchip Technology PIC Macro Assembler V2.32 build 20210201212658 
Symbol Table                                                                                   Sun Jul 03 11:58:08 2022

                    ___fldiv@aexp 0034                      ___fldiv@bexp 0033                                 pc 0002  
                    ___fldiv@sign 002C     UpdateLCDViewWithNumber@number 004A                                fsr 0004  
             ___wmul@multiplicand 0075               __Umul8_16@word_mpld 0022                               l212 08F6  
                             l220 1713                               l206 07D3                               l230 156D  
                             l215 153D                               l160 172E                               l161 172D  
                             l209 154D                               l225 155D                               l242 15D9  
                             l163 174D                               l251 16D5                               l236 158D  
                             l180 090D                               l167 1757                               l239 15CF  
                             l176 09D2                               l256 1662                               l272 0FFF  
                             l248 0AD3                               l361 07E4                               l186 095F  
                             l266 17FF                               l195 17A1                               l179 090F  
                             l363 07FE                               l275 1631                               l700 15B1  
                             l198 071C                               l710 0C90                               l535 0AF2  
                             l199 0724                               l712 0E10                               l800 0BE1  
                             l538 0B5E                               l554 0A39                               l539 0B77  
                             l547 0A4E                               l660 0483                               l732 0DF4  
                             l557 0A4E                               l654 0405                               l734 0E04  
                             l726 0D82                               l750 03A1                               l807 0BFD  
                             l808 0C09              _UpdateTempHumDisplay 1603                               l658 04AE  
                             l762 0395                               l675 057F                               l667 0631  
                             l771 1602                               l756 030D                               l685 05C5  
                             l679 05A3                               l696 0625                               l688 0603  
                             l697 0631                               l769 15F0                               l794 0B9C  
                             l796 0C33                               _ISR 1663                      _startDisplay 006C  
                             fsr0 0004                               indf 0000                       DriveMotor@i 0076  
                    ___flmul@aexp 0042                      ___flmul@bexp 0043                    ??_ManageHeater 0073  
                    ___flmul@sign 003D                      ___flmul@temp 0048                      ___flmul@prod 0044  
                  ??_ManageCooler 0073                              ?_ISR 0070                      ___fltol@exp1 003F  
                            l2101 175F                              l2111 1782                              l2103 176A  
                            l2121 1797                              l2105 1773                              l3001 04EE  
                            l2201 0A27                              l2123 179B                              l2107 1777  
                            l3011 0519                              l3003 04F2                              l2211 0A43  
                            l2117 1783                              l2109 177D                              l3021 0587  
                            l3013 0557                              l3005 04F3                              l3101 07D8  
                            l2119 178E                              l3031 05A2                              l3023 058C  
                            l3015 055D                              l3007 04FC                              l2207 0A2E  
                            l3103 07DC                              l2161 0B06                              l3033 05A7  
                            l3041 05B3                              l3017 0562                              l3009 0501  
                            l3113 158E                              l3201 0D35                              l3121 0C3B  
                            l2081 15DF                              l2401 00A5                              l2209 0A3E  
                            l3105 07EB                              l2171 0B74                              l2163 0B0E  
                            l3035 05AA                              l3027 0595                              l3019 0571  
                            l3043 05B7                              l3115 1592                              l3211 0D52  
                            l3203 0D3B                              l3131 0C50                              l3123 0C41  
                            l2083 15E6                              l2411 00E8                              l3107 07F2  
                            l2093 1759                              l2173 0B76                              l2165 0B12  
                            l2157 0AD4                              l3061 05FF                              l3053 05CA  
                            l3045 05B8                              l3037 05AC                              l3029 059E  
                            l3301 0730                              l3221 0D67                              l3213 0D53  
                            l3205 0D43                              l3141 0C68                              l3133 0C58  
                            l3125 0C45                              l2085 15EA                              l2421 0171  
                            l2413 0104                              l2405 00AE                              l3109 07F8  
                            l2501 0B7B                              l2095 175E                              l2167 0B36  
                            l2159 0AEA                              l3071 061B                              l3063 0608  
                            l3055 05CF                              l3047 05BC                              l3039 05B1  
                            l3311 0780                              l3303 074F                              l3231 0D8C  
                            l3223 0D6B                              l3215 0D5C                              l3207 0D45  
                            l3151 0C7D                              l3143 0C6E                              l3135 0C59  
                            l3127 0C46                              l3119 0C34                              l2087 15F9  
                            l2079 15DD                              l2431 01E4                              l2423 0181  
                            l2415 0130                              l2407 00BE                              l2191 0A09  
                            l2183 09E9                              l2503 0B80                              l3401 0923  
                            l3081 1633                              l2169 0B3A                              l3073 061F  
                            l3065 060D                              l3057 05DD                              l3049 05C2  
                            l3321 07AE                              l3313 0782                              l3305 0755  
                            l3241 0DCA                              l3233 0D9A                              l3225 0D7F  
                            l3209 0D4E                              l3217 0D62                              l3161 0CA4  
                            l3153 0C85                              l3145 0C72                              l3129 0C4B  
                            l3137 0C5B                              l2089 15FE                              l2441 0291  
                            l2433 0201                              l2425 019E                              l2417 014C  
                            l2409 00CB                              l2361 0041                              l2193 0A0D  
                            l2185 09FE                              l2177 09D3                              l2521 0BCA  
                            l2513 0BAD                              l2505 0B84                              l3411 093A  
                            l3403 0929                              l3091 1643                              l3083 1637  
                            l3075 0621                              l3067 0615                              l3059 05E1  
                            l3323 07C9                              l3315 0787                              l3307 075B  
                            l3251 0DFA                              l3243 0DD8                              l3235 0D9E  
                            l3219 0D66                              l3163 0CA8                              l3155 0C86  
                            l3147 0C73                              l3139 0C63                              l2451 02DD  
                            l2443 02B9                              l2435 022E                              l2427 01AE  
                            l2419 0168                              l2371 0058                              l2363 0048  
                            l2187 09FF                              l2179 09E0                              l2531 0C01  
                            l2523 0BD8                              l2515 0BB2                              l2507 0B94  
                            l3331 0E5F                              l3421 095C                              l3413 0944  
                            l3405 092E                              l3093 1647                              l3085 163A  
                            l3077 062C                              l3069 061A                              l3317 078B  
                            l3309 077A                              l3261 17A5                              l3253 0DFE  
                            l3245 0DE7                              l3237 0DB7                              l3229 0D87  
                            l3181 0CE9                              l3173 0CBF                              l3149 0C78  
                            l3157 0C88                              l2461 02F2                              l2453 02DE  
                            l2445 02C2                              l2437 023E                              l2429 01CB  
                            l2381 0074                              l2373 005D                              l2365 004E  
                            l2189 0A07                              l2541 0C2B                              l2533 0C0B  
                            l2525 0BE8                              l2517 0BBF                              l2509 0BA4  
                            l3341 0F07                              l3333 0E8B                              l3325 0E14  
                            l2711 09B1                              l2703 0983                              l3415 0948  
                            l3407 0930                              l3095 1650                              l3087 163C  
                            l3079 0630                              l3319 07A4                              l3271 17C9  
                            l3263 17A7                              l3255 0E00                              l3247 0DEB  
                            l3239 0DBD                              l3191 0D07                              l3183 0CEB  
                            l3175 0CD1                              l3159 0C98                              l3167 0CB1  
                            l2471 0317                              l2463 02F6                              l2455 02E7  
                            l2447 02D0                              l2439 026B                              l2391 0089  
                            l2383 007A                              l2375 0065                              l2367 0052  
                            l2199 0A15                              l2535 0C21                              l2527 0BF3  
                            l2519 0BC6                              l3351 0FC2                              l3343 0F0C  
                            l3335 0E90                              l3327 0E36                              l3431 16ED  
                            l3423 1603                              l2721 09C4                              l2713 09B3  
                            l2705 0990                              l3417 094D                              l3409 0935  
                            l3097 165F                              l3089 1641                              l3361 08B1  
                            l3353 0893                              l3273 17D0                              l3265 17AD  
                            l3281 17F2                              l3249 0DF3                              l3185 0CF0  
                            l3193 0D10                              l3177 0CD9                              l3169 0CB6  
                            l2481 0355                              l2473 0325                              l2465 030A  
                            l2449 02D9                              l2457 02ED                              l2393 0091  
                            l2385 007E                              l2377 0067                              l2369 0053  
                            l2537 0C26                              l2529 0BF7                              l3345 0F15  
                            l3337 0E99                              l3329 0E3E                              l3433 16F7  
                            l3425 16D6                              l2641 15CC                              l3441 0641  
                            l2723 09CA                              l2707 0991                              l2715 09B4  
                            l3291 1587                              l3283 1571                              l3419 0952  
                            l3371 08E1                              l3363 08C2                              l3355 089B  
                            l2651 1537                              l2811 1557                              l3267 17BC  
                            l3195 0D22                              l3187 0D02                              l3179 0CE1  
                            l2491 0389                              l2483 0360                              l2475 0329  
                            l2459 02F1                              l2395 0093                              l2387 007F  
                            l2379 006F                              l3099 07D4                              l2539 0C2A  
                            l3347 0F59                              l3339 0EDD                              l3435 16FF  
                            l3427 16DE                              l2803 155F                              l2643 15D3  
                            l3451 0699                              l3443 0647                              l2741 1717  
                            l2717 09BA                              l2709 099E                              l3285 1577  
                            l3373 08E8                              l3365 08CC                              l3357 08A5  
                            l2653 1539                              l2813 1559                              l2901 03C6  
                            l3293 0712                              l3277 17E2                              l3269 17C3  
                            l3197 0D23                              l3189 0D06                              l2493 038D  
                            l2485 036F                              l2477 0342                              l2469 0312  
                            l2397 009B                              l2389 0084                              l3349 0F8C  
                            l3437 1705                              l3429 16E6                              l2805 1567  
                            l3381 0A87                              l2637 15B3                              l3461 06DF  
                            l3453 06A1                              l3445 065D                              l2751 1728  
                            l2743 1718                              l2719 09C0                              l3287 157B  
                            l3391 0905                              l3375 08EF                              l3367 08D3  
                            l3359 08AA                              l2647 1531                              l2911 03DC  
                            l2903 03C7                              l3295 0718                              l3199 0D31  
                            l2495 038E                              l2487 0379                              l2479 0348  
                            l2399 00A0                              l2807 1569                              l3383 0A92  
                            l2639 15C7                              l3471 06FC                              l3463 06E3  
                            l3455 06A3                              l3447 0662                              l3439 0632  
                            l2761 174B                              l2753 1732                              l2745 171E  
                            l3289 1581                              l3393 0906                              l2681 1541  
                            l3369 08DA                              l2649 1535                              l2809 154F  
                            l2921 03ED                              l2913 03DD                              l2905 03C9  
                            l3297 0722                              l2497 0399                              l2489 037B  
                            l3385 0AD1                              l3377 0A4F                              l2737 169B  
                            l3473 0700                              l3465 06E9                              l3457 06D5  
                            l3449 0667                              l2763 1751                              l2755 1737  
                            l2747 1723                              l2739 1714                              l2691 096B  
                            l2683 0960                              l3395 090B                              l3387 08F7  
                            l2931 040B                              l2923 03F2                              l2915 03E3  
                            l2907 03D1                              l3299 072A                              l3379 0A5E  
                            l3475 0705                              l3467 06F1                              l3459 06DD  
                            l2765 1753                              l2757 1740                              l2749 1724  
                            l2693 0970                              l2685 096A                              l3397 0913  
                            l3389 0900                              l2941 041F                              l2933 040F  
                            l2925 03FA                              l2917 03E7                              l2909 03D6  
                            l3469 06F7                              l2759 1746                              l2695 097B  
                            l3399 0918                              l2679 153E                              l2951 0433  
                            l2943 0423                              l2935 0413                              l2927 03FB  
                            l2919 03E8                              l2697 0980                              l2961 0447  
                            l2953 0437                              l2945 0427                              l2937 0417  
                            l2929 03FD                              l2971 0487                              l2963 044B  
                            l2955 043B                              l2947 042B                              l2939 041B  
                            l2891 03AF                              l2981 04A4                              l2973 0492  
                            l2957 043F                              l2949 042F                              l2965 044F  
                            l2893 03B3                              l2991 04C2                              l2975 0494  
                            l2983 04A8                              l2967 0450                              l2959 0443  
                            l2895 03B4                              l2887 03A2                              l2993 04DB  
                            l2985 04B2                              l2977 049A                              l2969 0467  
                            l2897 03B9                              l2889 03A9                              l2995 04DF  
                            l2987 04B7                              l2979 049B                              l2899 03BE  
                            l2997 04E3                              l2999 04EC                              STR_1 0871  
                            STR_2 0843                              STR_3 0844                              STR_4 0823  
                            STR_5 0860                              u4000 1746                              u3200 005D  
                            u4001 1745                              u3201 005C                              u4010 174B  
                            u3210 007E                              u4011 174A                              u3211 007D  
                            u4020 1751                              u3220 0084                              u4021 1750  
                            u3221 0083                              u3230 0089                              u3311 0190  
                            u3231 0088                              u5000 0D9E                              u3312 0197  
                            u3240 00A0                              u5001 0D9D                              u3401 02AB  
                            u3321 01BD                              u3313 019E                              u3305 016A  
                            u3241 009F                              u5010 0DAD                              u2610 15FE  
                            u3402 02B2                              u3322 01C4                              u3250 00A5  
                            u2611 15FD                              u3403 02B9                              u3323 01CB  
                            u3251 00A4                              u2620 175E                              u4300 03ED  
                            u5100 0722                              u5020 0DCA                              u3500 0329  
                            u3180 0052                              u4140 1567                              u2621 175D  
                            u4301 03EC                              u5101 0721                              u5021 0DC9  
                            u2605 15F1                              u3501 0328                              u3341 01F3  
                            u3261 00F6                              u3181 0051                              u4141 1566  
                            u2630 177D                              u4150 1557                              u2710 0AEA  
                            u4310 03F2                              u5110 072A                              u5030 0DE7  
                            u3510 0338                              u3430 02DD                              u3342 01FA  
                            u3262 00FD                              u3190 0058                              u2631 177C  
                            u4151 1556                              u2711 0AE9                              u4311 03F1  
                            u5111 0729                              u5031 0DE6                              u5015 0DA8  
                            u3431 02DC                              u3415 02BB                              u3351 0220  
                            u3343 0201                              u3335 01CD                              u3271 0112  
                            u3263 0104                              u3191 0057                              u2640 1782  
                            u2720 0B06                              u4400 04AE                              u4320 040B  
                            u5120 0730                              u5040 0DFE                              u3520 0355  
                            u3352 0227                              u3272 0119                              u2800 0A0D  
                            u5200 0E90                              u2641 1781                              u2721 0B05  
                            u4401 04AD                              u4321 040A                              u5121 072F  
                            u5041 0DFD                              u5025 0DC6                              u3521 0354  
                            u3425 02D2                              u3361 024D                              u3353 022E  
                            u3281 013E                              u3273 0120                              u2801 0A0C  
                            u5201 0E8F                              u2650 17A1                              u2730 0B12  
                            u4410 04B2                              u4330 040F                              u4250 03B3  
                            u5130 0755                              u5050 17AD                              u3530 036F  
                            u3450 02F1                              u3370 0277                              u3362 0254  
                            u3282 0145                              u2810 0A14                              u3610 0BE7  
                            u5210 0F0C                              u2651 17A0                              u2731 0B11  
                            u4411 04B1                              u4331 040E                              u4251 03B2  
                            u5131 0754                              u5051 17AC                              u5035 0DE3  
                            u3531 036E                              u3515 0333                              u3451 02F0  
                            u3363 025B                              u3291 015A                              u3283 014C  
                            u2811 0A13                              u3611 0BE6                              u5211 0F0B  
                            u5300 092E                              u4500 0544                              u4420 04B7  
                            u4340 0467                              u4260 03B9                              u5140 075B  
                            u5060 17C9                              u3540 038D                              u3460 02F6  
                            u3292 0161                              u5220 0A5E                              u5301 092D  
                            u2741 0B21                              u4501 0545                              u4421 04B6  
                            u4341 0466                              u4261 03B8                              u5141 075A  
                            u5061 17C8                              u3541 038C                              u3525 0351  
                            u3461 02F5                              u3445 02E0                              u3381 0283  
                            u3293 0168                              u3605 0BD9                              u5221 0A5D  
                            u5310 0935                              u2750 0B3A                              u2742 0B22  
                            u4510 0562                              u4502 054A                              u4350 0472  
                            u4270 03BE                              u5150 0780                              u5070 17FF  
                            u2590 15EA                              u3470 030A                              u3390 029F  
                            u3382 028A                              u2830 0A26                              u3630 0BF7  
                            u3550 0B80                              u5230 0A87                              u5311 0934  
                            u2751 0B39                              u2743 0B27                              u4511 0561  
                            u4503 054B                              u4431 04CD                              u4351 0470  
                            u4271 03BD                              u5151 077F                              u5071 17FE  
                            u2591 15E9                              u3535 036B                              u3471 0309  
                            u3383 0291                              u3375 0272                              u2831 0A25  
                            u3631 0BF6                              u3551 0B7F                              u5231 0A86  
                            u5080 158D                              u5320 093A                              u5240 0900  
                            u2744 0B28                              u4600 05C2                              u4520 0587  
                            u4440 04DF                              u4432 04D4                              u4360 0473  
                            u4280 03DC                              u5160 0787                              u3480 0311  
                            u2840 0A2D                              u3640 0BFD                              u3560 0B84  
                            u5400 0700                              u5081 158C                              u5321 0939  
                            u5241 08FF                              u2761 0B49                              u2745 0B2D  
                            u4601 05C1                              u4521 0586                              u4441 04DE  
                            u4433 04DB                              u4345 0463                              u4281 03DB  
                            u5161 0786                              u3481 0310                              u2841 0A2C  
                            u2825 0A16                              u3641 0BFC                              u3625 0BEC  
                            u3561 0B83                              u5225 0A5A                              u5401 06FF  
                            u5330 094D                              u5250 0905                              u2770 0B74  
                            u2762 0B4A                              u2746 0B2E                              u4610 05C9  
                            u4530 058C                              u4450 04E3                              u4370 0487  
                            u4290 03E7                              u5170 07A4                              u5090 0718  
                            u3490 0317                              u3650 0C01                              u3570 0BA4  
                            u5331 094C                              u5251 0904                              u2771 0B73  
                            u2763 0B4F                              u4611 05C8                              u4531 058B  
                            u4451 04E2                              u4371 0486                              u4291 03E6  
                            u5171 07A3                              u5091 0717                              u3491 0316  
                            u3395 029A                              u3651 0C00                              u3571 0BA3  
                            u5340 0952                              u5260 090B                              u2764 0B50  
                            u4700 0630                              u4620 05CF                              u4460 04F2  
                            u4380 049A                              u5180 07C9                              u2860 0A3E  
                            u2780 09E0                              u3660 0C16                              u5341 0951  
                            u5261 090A                              u2765 0B55                              u4701 062F  
                            u4621 05CE                              u4461 04F1                              u4381 0499  
                            u5181 07C8                              u2861 0A3D                              u2781 09DF  
                            u3910 09C0                              u5270 0913                              u4710 1641  
                            u2766 0B56                              u4630 05E1                              u4550 05A2  
                            u2870 0A43                              u2790 09F7                              u3670 0C26  
                            u3590 0BC5                              u5190 0E36                              u5350 16E6  
                            u3911 09BF                              u5271 0912                              u4711 1640  
                            u2775 0B70                              u4631 05E0                              u4551 05A1  
                            u2871 0A42                              u2855 0A30                              u3671 0C25  
                            u3591 0BC4                              u5191 0E35                              u5351 16E5  
                            u3920 09CA                              u5280 0918                              u4640 05F0  
                            u4560 05A7                              u4480 0519                              u4800 0C78  
                            u4720 07DC                              u3680 0C2A                              u5360 1705  
                            u3921 09C9                              u3905 09A1                              u5281 0917  
                            u4561 05A6                              u4545 0597                              u4481 0518  
                            u4801 0C77                              u4721 07DB                              u3681 0C29  
                            u3665 0C11                              u3585 0BB7                              u5361 1704  
                            u5417 15C9                              u5290 0929                              u4650 05FF  
                            u4570 05B1                              u4810 0C7D                              u5370 0699  
                            u5507 1792                              u5291 0928                              u5427 08A1  
                            u4651 05FE                              u4571 05B0                              u4491 0530  
                            u4483 0515                              u4475 04F5                              u4395 049D  
                            u4811 0C7C                              u2795 09F2                              u5371 0698  
                            u4660 0608                              u4580 05B7                              u4492 0531  
                            u4900 0D3B                              u4820 0C98                              u5380 06D5  
                            u5517 097D                              u5437 08B7                              u4661 0607  
                            u4645 05EB                              u4581 05B6                              u4493 0536  
                            u4901 0D3A                              u4821 0C97                              u5381 06D4  
                            u3950 171E                              u4670 060D                              u4590 05BC  
                            u4494 0537                              u4910 0D43                              u4830 0CB6  
                            u4750 07F8                              u3870 15D3                              u5390 06F7  
                            u5527 173B                              u3951 171D                              u5447 08C8  
                            u4671 060C                              u4591 05BB                              u4495 053C  
                            u4911 0D42                              u4831 0CB5                              u4751 07F7  
                            u4735 07E5                              u3871 15D2                              u5391 06F6  
                            u3960 1723                              u3880 0990                              u4680 061A  
                            u4496 053D                              u4840 0CF0                              u4760 0C45  
                            u3961 1722                              u3881 098F                              u5457 164B  
                            u4681 0619                              u4841 0CEF                              u4761 0C44  
                            u4745 07EC                              u3865 15BD                              u3970 1728  
                            u3890 099E                              u4690 061F                              u4930 0D52  
                            u4770 0C4B                              u3971 1727                              u3891 099D  
                            u5467 165A                              u4691 061E                              u4931 0D51  
                            u4771 0C4A                              u3980 1732                              u4780 0C50  
                            u3981 1731                              u5477 154B                              u4925 0D47  
                            u4781 0C4F                              u3990 1737                              u4950 0D66  
                            u4870 0D06                              u4790 0C72                              u3991 1736  
                            u3895 099A                              u5487 091E                              u4951 0D65  
                            u4871 0D05                              u4855 0CF2                              u4791 0C71  
                            u4960 0D6B                              u5497 176E                              u4961 0D6A  
                            u4945 0D55                              u4865 0CFB                              u4970 0D7F  
                            u4890 0D22                              u4971 0D7E                              u4891 0D21  
                            u4980 0D86                              u4981 0D85                              u4885 0D09  
                            u4990 0D8C                              u4991 0D8B                              u4895 0D1E  
                            _TMR0 0001                              _main 0632                              btemp 007E  
                  MotorRotation@i 0023                              start 000C       UpdateLCDViewWithNumber@tens 0056  
       __size_of_CheckAlarmButton 0044       UpdateLCDViewWithNumber@unit 0054                   ___fldiv@new_exp 002D  
                 __end_of_InitADC 154E                   __end_of_ReadADC 15DA                   __end_of_InitLCD 08F7  
                 __end_of_InitPic 153E                             ??_ISR 0070                   __end_of_SendLCD 1663  
                     _CheckKeypad 0960                     ?_ReadHumidity 0070                     ___fltol@sign1 003E  
           ?_UpdateTempHumDisplay 0070                   __end_of___fladd 0632                             ?_main 0070  
                 __end_of___fldiv 0E11                   __end_of___flmul 03A2                   __end_of___flsub 15B2  
                 __end_of___fltol 0A4F                             i1l156 1680                             i1l157 1694  
                           _PORTB 0006                             _PORTC 0007                             _PORTD 0008  
                           _PORTE 0009                             _TRISA 0085                             _TRISB 0086  
                           _TRISC 0087                             _TRISD 0088                             _TRISE 0089  
                 __end_of_colMask 0823          __size_of_ReadTemperature 003B   __end_of_UpdateLCDViewWithNumber 1000  
                           _flags 007A                             pclath 000A               _HandleKeypadReading 070F  
                 __end_of_rowMask 0820                        _DriveMotor 1758                             status 0003  
                           wtemp0 007E               _CheckOpenDoorButton 08F7                   __initialization 000F  
                    __end_of_main 070F                  ??_ManageDisplays 00B6                    ??_ReadHumidity 0077  
            ?_HandleKeypadReading 0070                    ReadADC@channel 0077                            ??_main 00B7  
          __size_of_SendLCDString 005E              ?_CheckOpenDoorButton 0070             __end_of_MotorRotation 158E  
               _temperatureBuffer 00A8                            _ADCON0 001F                            _ADCON1 009F  
                          _ADRESH 001E                            _ADRESL 009E                            i1l2871 1667  
                          i1l2881 1684                            i1l2873 166B                            i1l2883 1686  
                          i1l2875 1673                            i1l2885 168E                            i1l2877 167A  
                          i1l2869 1663                            i1l2879 167C                            _INTCON 000B  
                          u422_20 1667                            u422_21 1666                            u423_20 166B  
                          u423_21 166A                            u424_20 167A                            u424_21 1679  
                     SendLCD@data 0076                  __end_of___xxtofl 0C34                         ??_InitADC 0073  
                     SendLCD@type 0073                         ??_ReadADC 0075                         ??_InitLCD 0020  
                       ??_InitPic 0073                         ??_SendLCD 0074                            ___flge 0AD4  
            __end_of_ManageHeater 156E              __end_of_ManageCooler 155E                         ??___fladd 0028  
                          ___wmul 07D4                         ??___fldiv 0073                         ??___flmul 0038  
                       ??___flsub 0078                         ??___fltol 0039             ??_HandleKeypadReading 003C  
                          _oldRB2 0060                            _oldRB3 005F                            _keypad 0806  
          ??_UpdateTempHumDisplay 0078             ??_CheckOpenDoorButton 0024                  ManageHeater@duty 0074  
              __size_of__Umul8_16 0029                            saved_w 007E                  _counterClockWise 0812  
                      ___flge@ff1 0030                        ___flge@ff2 0034                      ___xxtofl@arg 002C  
                    ___xxtofl@exp 002B                      ___xxtofl@val 0022                       ?_DriveMotor 0070  
         __end_of__initialization 003D                     _SendLCDString 17A2                 ??_ReadTemperature 0078  
                      ___fltol@f1 0035                  _CheckAlarmButton 1714               DriveMotor@direction 0075  
                ManageCooler@duty 0074                    __pcstackCOMMON 0070                      __pidataBANK0 151D  
                    __pidataBANK1 1525  __size_of_UpdateLCDViewWithNumber 01EF                        __pbssBANK0 0057  
                      __pbssBANK1 00AC                    ?_SendLCDString 0070              __end_of_ReadHumidity 0AD4  
               __end_of__Umul8_16 1603                        __pmaintext 0632                           ?___flge 0030  
                         ?___wmul 0073                     _keypadReading 0064                        __pintentry 0004  
                    ?_CheckKeypad 0070               __size_of_DriveMotor 004A                         ?___xxtofl 0022  
                      __stringtab 0800           _counterAntibouncingDoor 00B2                           _InitADC 153E  
                         _ReadADC 15B2                           _InitLCD 0893             __size_of_ManageHeater 0010  
                         _InitPic 1531             __size_of_ManageCooler 0010                        _maxSetTemp 006D  
                         _SendLCD 1632                 __end_of_clockWise 081C                        _oldDisplay 0062  
                      _minSetTemp 006E                   __size_of___flge 00A4                           ___fladd 03A2  
                         ___fldiv 0C34                           ___flmul 0041                           ___flsub 158E  
                         ___fltol 09D3                   __size_of___wmul 002B                           _alarmOn 0061  
                      _dutyHeater 0066                        _dutyCooler 0065                           _colMask 0820  
                         _colScan 0079                           __ptext1 1603                           __ptext2 169B  
                         __ptext3 15B2                           __ptext4 0A4F                           __ptext5 155E  
                         __ptext6 16D6                           __ptext7 0E11                           __ptext8 0B78  
                         __ptext9 07D4                      __size_of_ISR 0038                        ??___xxtofl 0026  
                         _setTemp 0068                           _rowMask 081C                           _rowScan 0067  
                    _ManageHeater 155E                   ??_SendLCDString 0077                           clrloop0 1516  
                    _ManageCooler 154E              end_of_initialization 003D               SendLCDString@string 0020  
         _UpdateLCDViewWithNumber 0E11          HandleKeypadReading@value 003D          __end_of_counterClockWise 0817  
                     ___fladd@grs 0076          __end_of_CheckAlarmButton 1758                     ___xxtofl@sign 002A  
                 _ReadTemperature 169B             __size_of_ReadHumidity 0085                       ___fldiv@grs 002F  
                     ___fldiv@rem 0028                   DriveMotor@i_172 0077                      ??_DriveMotor 0073  
                     ___flmul@grs 003E       __end_of_HandleKeypadReading 07D4            __size_of_MotorRotation 0020  
     __end_of_CheckOpenDoorButton 0960                    __end_of___flge 0B78                    SendLCDString@i 0021  
                  __end_of___wmul 07FF                      _ReadHumidity 0A4F              __size_of_CheckKeypad 0073  
                  __end_of_keypad 0812     __size_of_UpdateTempHumDisplay 002F                __end_of_DriveMotor 17A2  
             start_initialization 000F                       __end_of_ISR 169B           __size_of_ManageDisplays 003E  
          MotorRotation@amplitude 0020            MotorRotation@direction 0022         ??_UpdateLCDViewWithNumber 004E  
  UpdateLCDViewWithNumber@decimal 0053                    _currentDisplay 0078                          ??___flge 0038  
                        ??___wmul 0077                        init_fetch0 0880                         __Umul8_16 15DA  
                     __pdataBANK0 0068                       __pdataBANK1 00A0           __end_of_ReadTemperature 16D6  
                       ___fladd@a 0024                         ___fladd@b 0020                         ___fldiv@a 0020  
                       ___fldiv@b 0024                         ___flmul@a 0034                         ___flmul@b 0030  
                     __pbssCOMMON 0078                     _MotorRotation 156E                         ___flsub@a 0030  
                       ___flsub@b 0034                         ___latbits 0002                     __pcstackBANK0 0020  
                   __pcstackBANK1 00B6                 __size_of___xxtofl 00BC                          ?_InitADC 0070  
                        ?_ReadADC 0073                          ?_InitLCD 0070                          ?_InitPic 0070  
                        ?_SendLCD 0073                          ?___fladd 0020                          ?___fldiv 0020  
                        ?___flmul 0030                          ?___flsub 0030                          ?___fltol 0035  
                       _clockWise 0817                        ?__Umul8_16 0073                         __pstrings 0800  
                  ?_MotorRotation 0020                 interrupt_function 0004                    ___wmul@product 0020  
                       clear_ram0 1515                  ?_ReadTemperature 0070                       __stringbase 0805  
               ___wmul@multiplier 0073          _counterAntibouncingAlarm 00B4                    _ManageDisplays 16D6  
               ?_CheckAlarmButton 0070                ??_CheckAlarmButton 0073                        _ADCReading 00B0  
           __end_of_SendLCDString 1800                  __size_of_InitADC 0010                  __size_of_ReadADC 0028  
                __size_of_InitLCD 0064                  __size_of_InitPic 000D                  __size_of_SendLCD 0031  
                     _oldDoorOpen 005D                       ??__Umul8_16 0075                  __size_of___fladd 0290  
                __size_of___fldiv 01DD                  __size_of___flmul 0361                  __size_of___flsub 0024  
                __size_of___fltol 007C   UpdateLCDViewWithNumber@hundreds 0055                   ??_MotorRotation 0021  
              __end_of__stringtab 0806                    _postScalerTemp 00AE            __end_of_ManageDisplays 1714  
                        ___xxtofl 0B78   UpdateLCDViewWithNumber@position 0052                       _dutyCounter 0063  
                        __ptext10 09D3                          __ptext11 0041                          __ptext20 1531  
                        __ptext12 15DA                          __ptext21 0893                          __ptext13 0C34  
                        __ptext22 1632                          __ptext14 17A2                          __ptext23 153E  
                        __ptext15 070F                          __ptext24 08F7                          __ptext16 158E  
                        __ptext25 156E                          __ptext17 03A2                          __ptext26 1758  
                        __ptext18 0AD4                          __ptext27 0960                          __ptext19 154E  
                        __ptext28 1714                          __ptext29 1663                          _displays 00A0  
                        _doorOpen 005E                          _keyValue 006F      __end_of_UpdateTempHumDisplay 1632  
                   __size_of_main 00DD                          _humidity 00A4                     ??_CheckKeypad 0073  
    __size_of_HandleKeypadReading 00C5                   ?_ManageDisplays 0070      __size_of_CheckOpenDoorButton 0069  
                        init_ram0 0884                     _postScalerHum 00AC                          intlevel1 0000  
                       stringcode 0800            __Umul8_16@multiplicand 0073                        _OPTION_REG 0081  
                     _temperature 0057               __end_of_CheckKeypad 09D3               _counterAntibouncing 005B  
                        stringdir 0800                          stringtab 0800                     ?_ManageHeater 0070  
                   ?_ManageCooler 0070                     ___fladd@signs 0073          ?_UpdateLCDViewWithNumber 004A  
                    ___fladd@aexp 0074                      ___fladd@bexp 0075              __Umul8_16@multiplier 0024  
               __Umul8_16@product 0020  
