

Microchip MPLAB XC8 Assembler V2.32 build 20210201212658 
                                                                                               Wed Jun 15 17:08:06 2022

Microchip MPLAB XC8 C Compiler v2.32 (Free license) build 20210201212658 Og1 
     1                           	processor	16F877A
     2                           	pagewidth 120
     3                           	opt	flic
     4                           	psect	idataBANK0,global,class=CODE,delta=2,noexec
     5                           	psect	idataBANK1,global,class=CODE,delta=2,noexec
     6                           	psect	strings,global,class=STRING,delta=2,noexec
     7                           	psect	cinit,global,class=CODE,merge=1,delta=2
     8                           	psect	bssCOMMON,global,class=COMMON,space=1,delta=1,noexec
     9                           	psect	bssBANK0,global,class=BANK0,space=1,delta=1,noexec
    10                           	psect	dataBANK0,global,class=BANK0,space=1,delta=1,noexec
    11                           	psect	dataBANK1,global,class=BANK1,space=1,delta=1,noexec
    12                           	psect	inittext,global,class=CODE,delta=2
    13                           	psect	clrtext,global,class=CODE,delta=2
    14                           	psect	cstackCOMMON,global,class=COMMON,space=1,delta=1,noexec
    15                           	psect	cstackBANK0,global,class=BANK0,space=1,delta=1,noexec
    16                           	psect	maintext,global,class=CODE,split=1,delta=2
    17                           	psect	text1,local,class=CODE,merge=1,delta=2
    18                           	psect	text2,local,class=CODE,merge=1,delta=2,group=1
    19                           	psect	text3,local,class=CODE,merge=1,delta=2
    20                           	psect	text4,local,class=CODE,merge=1,delta=2
    21                           	psect	text5,local,class=CODE,merge=1,delta=2
    22                           	psect	text6,local,class=CODE,merge=1,delta=2
    23                           	psect	text7,local,class=CODE,merge=1,delta=2,group=1
    24                           	psect	text8,local,class=CODE,merge=1,delta=2,group=1
    25                           	psect	text9,local,class=CODE,merge=1,delta=2,group=1
    26                           	psect	text10,local,class=CODE,merge=1,delta=2,group=1
    27                           	psect	text11,local,class=CODE,merge=1,delta=2,group=1
    28                           	psect	text12,local,class=CODE,merge=1,delta=2,group=1
    29                           	psect	text13,local,class=CODE,merge=1,delta=2
    30                           	psect	text14,local,class=CODE,merge=1,delta=2
    31                           	psect	text15,local,class=CODE,merge=1,delta=2,group=1
    32                           	psect	text16,local,class=CODE,merge=1,delta=2,group=1
    33                           	psect	text17,local,class=CODE,merge=1,delta=2,group=1
    34                           	psect	text18,local,class=CODE,merge=1,delta=2
    35                           	psect	text19,local,class=CODE,merge=1,delta=2
    36                           	psect	text20,local,class=CODE,merge=1,delta=2
    37                           	psect	text21,local,class=CODE,merge=1,delta=2
    38                           	psect	text22,local,class=CODE,merge=1,delta=2
    39                           	psect	text23,local,class=CODE,merge=1,delta=2
    40                           	psect	intentry,global,class=CODE,delta=2
    41                           	psect	config,global,abs,ovrld,class=CONFIG,space=4,delta=2,noexec
    42                           	dabs	1,0x7E,2
    43  0000                     
    44                           ; Version 2.20
    45                           ; Generated 12/02/2020 GMT
    46                           ; 
    47                           ; Copyright © 2020, Microchip Technology Inc. and its subsidiaries ("Microchip")
    48                           ; All rights reserved.
    49                           ; 
    50                           ; This software is developed by Microchip Technology Inc. and its subsidiaries ("Microch
      +                          ip").
    51                           ; 
    52                           ; Redistribution and use in source and binary forms, with or without modification, are
    53                           ; permitted provided that the following conditions are met:
    54                           ; 
    55                           ;     1. Redistributions of source code must retain the above copyright notice, this lis
      +                          t of
    56                           ;        conditions and the following disclaimer.
    57                           ; 
    58                           ;     2. Redistributions in binary form must reproduce the above copyright notice, this 
      +                          list
    59                           ;        of conditions and the following disclaimer in the documentation and/or other
    60                           ;        materials provided with the distribution.
    61                           ; 
    62                           ;     3. Microchip's name may not be used to endorse or promote products derived from th
      +                          is
    63                           ;        software without specific prior written permission.
    64                           ; 
    65                           ; THIS SOFTWARE IS PROVIDED BY MICROCHIP "AS IS" AND ANY EXPRESS OR IMPLIED WARRANTIES,
    66                           ; INCLUDING, BUT NOT LIMITED TO, THE IMPLIED WARRANTIES OF MERCHANTABILITY AND FITNESS F
      +                          OR
    67                           ; PURPOSE ARE DISCLAIMED.  IN NO EVENT SHALL MICROCHIP BE LIABLE FOR ANY DIRECT, INDIREC
      +                          T,
    68                           ; INCIDENTAL, SPECIAL, EXEMPLARY, OR CONSEQUENTIAL DAMAGES (INCLUDING BUT NOT LIMITED TO
    69                           ; PROCUREMENT OF SUBSTITUTE GOODS OR SERVICES; LOSS OF USE, DATA OR PROFITS; OR BUSINESS
    70                           ; INTERRUPTION) HOWSOEVER CAUSED AND ON ANY THEORY OF LIABILITY, WHETHER IN CONTRACT, ST
      +                          RICT
    71                           ; LIABILITY, OR TORT (INCLUDING NEGLIGENCE OR OTHERWISE) ARISING IN ANY WAY OUT OF THE U
      +                          SE OF
    72                           ; THIS SOFTWARE, EVEN IF ADVISED OF THE POSSIBILITY OF SUCH DAMAGE.
    73                           ; 
    74                           ; 
    75                           ; Code-generator required, PIC16F877A Definitions
    76                           ; 
    77                           ; SFR Addresses
    78  0000                     	;# 
    79  0001                     	;# 
    80  0002                     	;# 
    81  0003                     	;# 
    82  0004                     	;# 
    83  0005                     	;# 
    84  0006                     	;# 
    85  0007                     	;# 
    86  0008                     	;# 
    87  0009                     	;# 
    88  000A                     	;# 
    89  000B                     	;# 
    90  000C                     	;# 
    91  000D                     	;# 
    92  000E                     	;# 
    93  000E                     	;# 
    94  000F                     	;# 
    95  0010                     	;# 
    96  0011                     	;# 
    97  0012                     	;# 
    98  0013                     	;# 
    99  0014                     	;# 
   100  0015                     	;# 
   101  0015                     	;# 
   102  0016                     	;# 
   103  0017                     	;# 
   104  0018                     	;# 
   105  0019                     	;# 
   106  001A                     	;# 
   107  001B                     	;# 
   108  001B                     	;# 
   109  001C                     	;# 
   110  001D                     	;# 
   111  001E                     	;# 
   112  001F                     	;# 
   113  0081                     	;# 
   114  0085                     	;# 
   115  0086                     	;# 
   116  0087                     	;# 
   117  0088                     	;# 
   118  0089                     	;# 
   119  008C                     	;# 
   120  008D                     	;# 
   121  008E                     	;# 
   122  0091                     	;# 
   123  0092                     	;# 
   124  0093                     	;# 
   125  0094                     	;# 
   126  0098                     	;# 
   127  0099                     	;# 
   128  009C                     	;# 
   129  009D                     	;# 
   130  009E                     	;# 
   131  009F                     	;# 
   132  010C                     	;# 
   133  010D                     	;# 
   134  010E                     	;# 
   135  010F                     	;# 
   136  018C                     	;# 
   137  018D                     	;# 
   138  0000                     	;# 
   139  0001                     	;# 
   140  0002                     	;# 
   141  0003                     	;# 
   142  0004                     	;# 
   143  0005                     	;# 
   144  0006                     	;# 
   145  0007                     	;# 
   146  0008                     	;# 
   147  0009                     	;# 
   148  000A                     	;# 
   149  000B                     	;# 
   150  000C                     	;# 
   151  000D                     	;# 
   152  000E                     	;# 
   153  000E                     	;# 
   154  000F                     	;# 
   155  0010                     	;# 
   156  0011                     	;# 
   157  0012                     	;# 
   158  0013                     	;# 
   159  0014                     	;# 
   160  0015                     	;# 
   161  0015                     	;# 
   162  0016                     	;# 
   163  0017                     	;# 
   164  0018                     	;# 
   165  0019                     	;# 
   166  001A                     	;# 
   167  001B                     	;# 
   168  001B                     	;# 
   169  001C                     	;# 
   170  001D                     	;# 
   171  001E                     	;# 
   172  001F                     	;# 
   173  0081                     	;# 
   174  0085                     	;# 
   175  0086                     	;# 
   176  0087                     	;# 
   177  0088                     	;# 
   178  0089                     	;# 
   179  008C                     	;# 
   180  008D                     	;# 
   181  008E                     	;# 
   182  0091                     	;# 
   183  0092                     	;# 
   184  0093                     	;# 
   185  0094                     	;# 
   186  0098                     	;# 
   187  0099                     	;# 
   188  009C                     	;# 
   189  009D                     	;# 
   190  009E                     	;# 
   191  009F                     	;# 
   192  010C                     	;# 
   193  010D                     	;# 
   194  010E                     	;# 
   195  010F                     	;# 
   196  018C                     	;# 
   197  018D                     	;# 
   198                           
   199                           	psect	idataBANK0
   200  1659                     __pidataBANK0:
   201                           
   202                           ;initializer for _humidity
   203  1659  3400               	retlw	0
   204  165A  3400               	retlw	0
   205  165B  3448               	retlw	72
   206  165C  3442               	retlw	66
   207                           
   208                           ;initializer for _setTemp
   209  165D  3400               	retlw	0
   210  165E  3400               	retlw	0
   211  165F  34B0               	retlw	176
   212  1660  3441               	retlw	65
   213                           
   214                           ;initializer for _startDisplay
   215  1661  346C               	retlw	low ((STR_1-__stringbase)| (0+32768))
   216                           
   217                           ;initializer for _maxSetTemp
   218  1662  3423               	retlw	35
   219                           
   220                           ;initializer for _minSetTemp
   221  1663  340C               	retlw	12
   222                           
   223                           ;initializer for _keyValue
   224  1664  3463               	retlw	99
   225                           
   226                           	psect	idataBANK1
   227  1651                     __pidataBANK1:
   228                           
   229                           ;initializer for _displays
   230  1651  343E               	retlw	low (((STR_4+32)-__stringbase)| (0+32768))
   231  1652  343F               	retlw	low ((STR_3-__stringbase)| (0+32768))
   232  1653  341E               	retlw	low ((STR_4-__stringbase)| (0+32768))
   233  1654  345B               	retlw	low ((STR_5-__stringbase)| (0+32768))
   234                           
   235                           ;initializer for _oldHumidity
   236  1655  3400               	retlw	0
   237  1656  3400               	retlw	0
   238  1657  3448               	retlw	72
   239  1658  3442               	retlw	66
   240                           
   241                           	psect	strings
   242  0800                     __pstrings:
   243  0800                     stringtab:
   244  0800                     __stringtab:
   245  0800                     stringcode:	
   246                           ;	String table - string pointers are 1 byte each
   247                           
   248  0800                     stringdir:
   249  0800  3008               	movlw	high stringdir
   250  0801  008A               	movwf	10
   251  0802  0804               	movf	4,w
   252  0803  0A84               	incf	4,f
   253  0804  0782               	addwf	2,f
   254  0805                     __stringbase:
   255  0805  3400               	retlw	0
   256  0806                     __end_of__stringtab:
   257  0806                     _keypad:
   258  0806  3401               	retlw	1
   259  0807  3404               	retlw	4
   260  0808  3407               	retlw	7
   261  0809  342A               	retlw	42
   262  080A  3402               	retlw	2
   263  080B  3405               	retlw	5
   264  080C  3408               	retlw	8
   265  080D  3400               	retlw	0
   266  080E  3403               	retlw	3
   267  080F  3406               	retlw	6
   268  0810  3409               	retlw	9
   269  0811  3423               	retlw	35
   270  0812                     __end_of_keypad:
   271  0812                     _counterClockWise:
   272  0812  3409               	retlw	9
   273  0813  340C               	retlw	12
   274  0814  3406               	retlw	6
   275  0815  3403               	retlw	3
   276  0816  3409               	retlw	9
   277  0817                     __end_of_counterClockWise:
   278  0817                     _clockWise:
   279  0817  3403               	retlw	3
   280  0818  3406               	retlw	6
   281  0819  340C               	retlw	12
   282  081A  3409               	retlw	9
   283  081B  3403               	retlw	3
   284  081C                     __end_of_clockWise:
   285  081C                     _rowMask:
   286  081C  3408               	retlw	8
   287  081D  3404               	retlw	4
   288  081E  3402               	retlw	2
   289  081F  3401               	retlw	1
   290  0820                     __end_of_rowMask:
   291  0820                     _colMask:
   292  0820  34FE               	retlw	254
   293  0821  34FD               	retlw	253
   294  0822  34FB               	retlw	251
   295  0823                     __end_of_colMask:
   296  0009                     _PORTE	set	9
   297  0008                     _PORTD	set	8
   298  0007                     _PORTC	set	7
   299  0006                     _PORTB	set	6
   300  0001                     _TMR0	set	1
   301  000B                     _INTCON	set	11
   302  0081                     _OPTION_REG	set	129
   303  0089                     _TRISE	set	137
   304  0088                     _TRISD	set	136
   305  0087                     _TRISC	set	135
   306  0086                     _TRISB	set	134
   307  0823                     STR_4:
   308  0823  3454               	retlw	84	;'T'
   309  0824  3465               	retlw	101	;'e'
   310  0825  346D               	retlw	109	;'m'
   311  0826  3470               	retlw	112	;'p'
   312  0827  3420               	retlw	32	;' '
   313  0828  3420               	retlw	32	;' '
   314  0829  3420               	retlw	32	;' '
   315  082A  3420               	retlw	32	;' '
   316  082B  343A               	retlw	58	;':'
   317  082C  3420               	retlw	32	;' '
   318  082D  3432               	retlw	50	;'2'
   319  082E  3432               	retlw	50	;'2'
   320  082F  342E               	retlw	46	;'.'
   321  0830  3433               	retlw	51	;'3'
   322  0831  3420               	retlw	32	;' '
   323  0832  3420               	retlw	32	;' '
   324  0833  3448               	retlw	72	;'H'
   325  0834  3475               	retlw	117	;'u'
   326  0835  346D               	retlw	109	;'m'
   327  0836  3469               	retlw	105	;'i'
   328  0837  3464               	retlw	100	;'d'
   329  0838  3469               	retlw	105	;'i'
   330  0839  3474               	retlw	116	;'t'
   331  083A  3479               	retlw	121	;'y'
   332  083B  343A               	retlw	58	;':'
   333  083C  3420               	retlw	32	;' '
   334  083D  3438               	retlw	56	;'8'
   335  083E  3430               	retlw	48	;'0'
   336  083F  342E               	retlw	46	;'.'
   337  0840  3433               	retlw	51	;'3'
   338  0841  3420               	retlw	32	;' '
   339  0842  3425               	retlw	37	;'%'
   340  0843  3400               	retlw	0
   341  0844                     STR_3:
   342  0844  3420               	retlw	32	;' '
   343  0845  3420               	retlw	32	;' '
   344  0846  3457               	retlw	87	;'W'
   345  0847  3465               	retlw	101	;'e'
   346  0848  346C               	retlw	108	;'l'
   347  0849  3463               	retlw	99	;'c'
   348  084A  346F               	retlw	111	;'o'
   349  084B  346D               	retlw	109	;'m'
   350  084C  3465               	retlw	101	;'e'
   351  084D  3420               	retlw	32	;' '
   352  084E  3454               	retlw	84	;'T'
   353  084F  346F               	retlw	111	;'o'
   354  0850  3420               	retlw	32	;' '
   355  0851  3420               	retlw	32	;' '
   356  0852  3420               	retlw	32	;' '
   357  0853  3420               	retlw	32	;' '
   358  0854  3420               	retlw	32	;' '
   359  0855  3420               	retlw	32	;' '
   360  0856  3420               	retlw	32	;' '
   361  0857  3420               	retlw	32	;' '
   362  0858  3443               	retlw	67	;'C'
   363  0859  346F               	retlw	111	;'o'
   364  085A  3461               	retlw	97	;'a'
   365  085B  3463               	retlw	99	;'c'
   366  085C  3468               	retlw	104	;'h'
   367  085D  3420               	retlw	32	;' '
   368  085E  3431               	retlw	49	;'1'
   369  085F  3400               	retlw	0
   370  0860                     STR_5:
   371  0860  3453               	retlw	83	;'S'
   372  0861  3465               	retlw	101	;'e'
   373  0862  3474               	retlw	116	;'t'
   374  0863  3420               	retlw	32	;' '
   375  0864  3454               	retlw	84	;'T'
   376  0865  3465               	retlw	101	;'e'
   377  0866  346D               	retlw	109	;'m'
   378  0867  3470               	retlw	112	;'p'
   379  0868  3465               	retlw	101	;'e'
   380  0869  3472               	retlw	114	;'r'
   381  086A  3461               	retlw	97	;'a'
   382  086B  3474               	retlw	116	;'t'
   383  086C  3475               	retlw	117	;'u'
   384  086D  3472               	retlw	114	;'r'
   385  086E  3465               	retlw	101	;'e'
   386  086F  343A               	retlw	58	;':'
   387  0870  3400               	retlw	0
   388  0871                     STR_1:
   389  0871  3453               	retlw	83	;'S'
   390  0872  3479               	retlw	121	;'y'
   391  0873  3473               	retlw	115	;'s'
   392  0874  3474               	retlw	116	;'t'
   393  0875  3465               	retlw	101	;'e'
   394  0876  346D               	retlw	109	;'m'
   395  0877  3420               	retlw	32	;' '
   396  0878  3453               	retlw	83	;'S'
   397  0879  3474               	retlw	116	;'t'
   398  087A  3461               	retlw	97	;'a'
   399  087B  3472               	retlw	114	;'r'
   400  087C  3474               	retlw	116	;'t'
   401  087D  3465               	retlw	101	;'e'
   402  087E  3464               	retlw	100	;'d'
   403  087F  3400               	retlw	0
   404  0843                     
   405                           	psect	cinit
   406  000F                     start_initialization:	
   407                           ; #config settings
   408                           
   409  000F                     __initialization:
   410                           
   411                           ; Initialize objects allocated to BANK1
   412  000F  1383               	bcf	3,7	;select IRP bank0
   413  0010  30A8               	movlw	low (__pdataBANK1+8)
   414  0011  00FD               	movwf	btemp+-1
   415  0012  3016               	movlw	high __pidataBANK1
   416  0013  00FE               	movwf	btemp
   417  0014  3051               	movlw	low __pidataBANK1
   418  0015  00FF               	movwf	btemp+1
   419  0016  30A0               	movlw	low __pdataBANK1
   420  0017  0084               	movwf	4
   421  0018  120A  158A  2093  120A  118A  	fcall	init_ram0
   422                           
   423                           ; Initialize objects allocated to BANK0
   424  001D  306E               	movlw	low (__pdataBANK0+12)
   425  001E  00FD               	movwf	btemp+-1
   426  001F  3016               	movlw	high __pidataBANK0
   427  0020  00FE               	movwf	btemp
   428  0021  3059               	movlw	low __pidataBANK0
   429  0022  00FF               	movwf	btemp+1
   430  0023  3062               	movlw	low __pdataBANK0
   431  0024  0084               	movwf	4
   432  0025  120A  158A  2093  120A  118A  	fcall	init_ram0
   433                           
   434                           ; Clear objects allocated to BANK0
   435  002A  304F               	movlw	low __pbssBANK0
   436  002B  0084               	movwf	4
   437  002C  3062               	movlw	low (__pbssBANK0+19)
   438  002D  160A  118A  2649  120A  118A  	fcall	clear_ram0
   439                           
   440                           ; Clear objects allocated to COMMON
   441  0032  01F8               	clrf	__pbssCOMMON& (0+127)
   442  0033  01F9               	clrf	(__pbssCOMMON+1)& (0+127)
   443  0034  01FA               	clrf	(__pbssCOMMON+2)& (0+127)
   444  0035                     end_of_initialization:	
   445                           ;End of C runtime variable initialization code
   446                           
   447  0035                     __end_of__initialization:
   448  0035  0183               	clrf	3
   449  0036  160A  118A  2FB7   	ljmp	_main	;jump to C main() function
   450                           
   451                           	psect	bssCOMMON
   452  0078                     __pbssCOMMON:
   453  0078                     _currentDisplay:
   454  0078                     	ds	1
   455  0079                     _rowScan:
   456  0079                     	ds	1
   457  007A                     _colScan:
   458  007A                     	ds	1
   459                           
   460                           	psect	bssBANK0
   461  004F                     __pbssBANK0:
   462  004F                     _oldTemperature:
   463  004F                     	ds	4
   464  0053                     _temperature:
   465  0053                     	ds	4
   466  0057                     _postScalerHum:
   467  0057                     	ds	2
   468  0059                     _postScalerTemp:
   469  0059                     	ds	2
   470  005B                     _counterAntibouncing:
   471  005B                     	ds	2
   472  005D                     _oldRA5:
   473  005D                     	ds	1
   474  005E                     _alarmOn:
   475  005E                     	ds	1
   476  005F                     _oldDisplay:
   477  005F                     	ds	1
   478  0060                     _keypadReading:
   479  0060                     	ds	1
   480  0061                     _flags:
   481  0061                     	ds	1
   482                           
   483                           	psect	dataBANK0
   484  0062                     __pdataBANK0:
   485  0062                     _humidity:
   486  0062                     	ds	4
   487  0066                     _setTemp:
   488  0066                     	ds	4
   489  006A                     _startDisplay:
   490  006A                     	ds	1
   491  006B                     _maxSetTemp:
   492  006B                     	ds	1
   493  006C                     _minSetTemp:
   494  006C                     	ds	1
   495  006D                     _keyValue:
   496  006D                     	ds	1
   497                           
   498                           	psect	dataBANK1
   499  00A0                     __pdataBANK1:
   500  00A0                     _displays:
   501  00A0                     	ds	4
   502  00A4                     _oldHumidity:
   503  00A4                     	ds	4
   504                           
   505                           	psect	inittext
   506  088F                     init_fetch0:	
   507                           ;	Called with low address in FSR and high address in W
   508                           
   509  088F  087E               	movf	btemp,w
   510  0890  008A               	movwf	10
   511  0891  087F               	movf	btemp+1,w
   512  0892  0082               	movwf	2
   513  0893                     init_ram0:	
   514                           ;Called with:
   515                           ;	high address of idata address in btemp 
   516                           ;	low address of idata address in btemp+1 
   517                           ;	low address of data in FSR
   518                           ;	high address + 1 of data in btemp-1
   519                           
   520  0893  120A  158A  208F  120A  158A  	fcall	init_fetch0
   521  0898  0080               	movwf	0
   522  0899  0A84               	incf	4,f
   523  089A  0804               	movf	4,w
   524  089B  067D               	xorwf	btemp+-1,w
   525  089C  1903               	btfsc	3,2
   526  089D  3400               	retlw	0
   527  089E  0AFF               	incf	btemp+1,f
   528  089F  1903               	btfsc	3,2
   529  08A0  0AFE               	incf	btemp,f
   530  08A1  2893               	goto	init_ram0
   531                           
   532                           	psect	clrtext
   533  1649                     clear_ram0:	
   534                           ;	Called with FSR containing the base address, and
   535                           ;	W with the last address+1
   536                           
   537  1649  0064               	clrwdt	;clear the watchdog before getting into this loop
   538  164A                     clrloop0:
   539  164A  0180               	clrf	0	;clear RAM location pointed to by FSR
   540  164B  0A84               	incf	4,f	;increment pointer
   541  164C  0604               	xorwf	4,w	;XOR with final address
   542  164D  1903               	btfsc	3,2	;have we reached the end yet?
   543  164E  3400               	retlw	0	;all done for this memory range, return
   544  164F  0604               	xorwf	4,w	;XOR again to restore value
   545  1650  2E4A               	goto	clrloop0	;do the next byte
   546                           
   547                           	psect	cstackCOMMON
   548  0070                     __pcstackCOMMON:
   549  0070                     ?_InitPic:
   550  0070                     ?_InitLCD:	
   551                           ; 1 bytes @ 0x0
   552                           
   553  0070                     ?_SendLCDString:	
   554                           ; 1 bytes @ 0x0
   555                           
   556  0070                     ?_CheckKeypad:	
   557                           ; 1 bytes @ 0x0
   558                           
   559  0070                     ?_ReadHumidity:	
   560                           ; 1 bytes @ 0x0
   561                           
   562  0070                     ?_ReadTemperature:	
   563                           ; 1 bytes @ 0x0
   564                           
   565  0070                     ?_CheckAlarmButton:	
   566                           ; 1 bytes @ 0x0
   567                           
   568  0070                     ?_UpdateTempHumDisplay:	
   569                           ; 1 bytes @ 0x0
   570                           
   571  0070                     ?_ManageDisplays:	
   572                           ; 1 bytes @ 0x0
   573                           
   574  0070                     ?_ISR:	
   575                           ; 1 bytes @ 0x0
   576                           
   577  0070                     ??_ISR:	
   578                           ; 1 bytes @ 0x0
   579                           
   580  0070                     ?_HandleKeypadReading:	
   581                           ; 1 bytes @ 0x0
   582                           
   583  0070                     ?_main:	
   584                           ; 1 bytes @ 0x0
   585                           
   586                           
   587                           ; 2 bytes @ 0x0
   588  0070                     	ds	3
   589  0073                     ??_InitPic:
   590  0073                     ??_CheckKeypad:	
   591                           ; 1 bytes @ 0x3
   592                           
   593  0073                     ??_CheckAlarmButton:	
   594                           ; 1 bytes @ 0x3
   595                           
   596  0073                     ?_SendLCD:	
   597                           ; 1 bytes @ 0x3
   598                           
   599  0073                     ??___fleq:	
   600                           ; 1 bytes @ 0x3
   601                           
   602  0073                     ??___flge:	
   603                           ; 1 bytes @ 0x3
   604                           
   605  0073                     ??___fldiv:	
   606                           ; 1 bytes @ 0x3
   607                           
   608  0073                     ?__Umul8_16:	
   609                           ; 1 bytes @ 0x3
   610                           
   611  0073                     ?___wmul:	
   612                           ; 2 bytes @ 0x3
   613                           
   614  0073                     SendLCD@type:	
   615                           ; 2 bytes @ 0x3
   616                           
   617  0073                     ___fladd@signs:	
   618                           ; 1 bytes @ 0x3
   619                           
   620  0073                     __Umul8_16@multiplicand:	
   621                           ; 1 bytes @ 0x3
   622                           
   623  0073                     ___wmul@multiplier:	
   624                           ; 1 bytes @ 0x3
   625                           
   626                           
   627                           ; 2 bytes @ 0x3
   628  0073                     	ds	1
   629  0074                     ??_SendLCD:
   630  0074                     ___fladd@aexp:	
   631                           ; 1 bytes @ 0x4
   632                           
   633                           
   634                           ; 1 bytes @ 0x4
   635  0074                     	ds	1
   636  0075                     ??__Umul8_16:
   637  0075                     ___fladd@bexp:	
   638                           ; 1 bytes @ 0x5
   639                           
   640  0075                     ___wmul@multiplicand:	
   641                           ; 1 bytes @ 0x5
   642                           
   643                           
   644                           ; 2 bytes @ 0x5
   645  0075                     	ds	1
   646  0076                     SendLCD@data:
   647  0076                     ___fladd@grs:	
   648                           ; 1 bytes @ 0x6
   649                           
   650                           
   651                           ; 1 bytes @ 0x6
   652  0076                     	ds	1
   653  0077                     ??_SendLCDString:
   654  0077                     ??_ReadHumidity:	
   655                           ; 1 bytes @ 0x7
   656                           
   657  0077                     ??_ReadTemperature:	
   658                           ; 1 bytes @ 0x7
   659                           
   660  0077                     ??_HandleKeypadReading:	
   661                           ; 1 bytes @ 0x7
   662                           
   663  0077                     ??___wmul:	
   664                           ; 1 bytes @ 0x7
   665                           
   666  0077                     ??___flsub:	
   667                           ; 1 bytes @ 0x7
   668                           
   669                           
   670                           ; 1 bytes @ 0x7
   671  0077                     	ds	1
   672  0078                     ??_UpdateTempHumDisplay:
   673                           
   674                           	psect	cstackBANK0
   675  0020                     __pcstackBANK0:	
   676                           ; 1 bytes @ 0x8
   677                           
   678  0020                     ?___fleq:
   679  0020                     ?___flge:	
   680                           ; 1 bit 
   681                           
   682  0020                     ??_InitLCD:	
   683                           ; 1 bit 
   684                           
   685  0020                     ?___fladd:	
   686                           ; 1 bytes @ 0x0
   687                           
   688  0020                     ?___fldiv:	
   689                           ; 4 bytes @ 0x0
   690                           
   691  0020                     SendLCDString@string:	
   692                           ; 4 bytes @ 0x0
   693                           
   694  0020                     ___wmul@product:	
   695                           ; 1 bytes @ 0x0
   696                           
   697  0020                     __Umul8_16@product:	
   698                           ; 2 bytes @ 0x0
   699                           
   700  0020                     ___fleq@ff1:	
   701                           ; 2 bytes @ 0x0
   702                           
   703  0020                     ___flge@ff1:	
   704                           ; 4 bytes @ 0x0
   705                           
   706  0020                     ___fladd@b:	
   707                           ; 4 bytes @ 0x0
   708                           
   709  0020                     ___fldiv@a:	
   710                           ; 4 bytes @ 0x0
   711                           
   712                           
   713                           ; 4 bytes @ 0x0
   714  0020                     	ds	1
   715  0021                     SendLCDString@i:
   716                           
   717                           ; 1 bytes @ 0x1
   718  0021                     	ds	1
   719  0022                     ?___xxtofl:
   720  0022                     __Umul8_16@word_mpld:	
   721                           ; 4 bytes @ 0x2
   722                           
   723  0022                     ___xxtofl@val:	
   724                           ; 2 bytes @ 0x2
   725                           
   726                           
   727                           ; 4 bytes @ 0x2
   728  0022                     	ds	2
   729  0024                     __Umul8_16@multiplier:
   730  0024                     ___fleq@ff2:	
   731                           ; 1 bytes @ 0x4
   732                           
   733  0024                     ___flge@ff2:	
   734                           ; 4 bytes @ 0x4
   735                           
   736  0024                     ___fladd@a:	
   737                           ; 4 bytes @ 0x4
   738                           
   739  0024                     ___fldiv@b:	
   740                           ; 4 bytes @ 0x4
   741                           
   742                           
   743                           ; 4 bytes @ 0x4
   744  0024                     	ds	1
   745  0025                     ?___flmul:
   746  0025                     ___flmul@b:	
   747                           ; 4 bytes @ 0x5
   748                           
   749                           
   750                           ; 4 bytes @ 0x5
   751  0025                     	ds	1
   752  0026                     ??___xxtofl:
   753                           
   754                           ; 1 bytes @ 0x6
   755  0026                     	ds	2
   756  0028                     ??___fladd:
   757  0028                     ___fldiv@rem:	
   758                           ; 1 bytes @ 0x8
   759                           
   760                           
   761                           ; 4 bytes @ 0x8
   762  0028                     	ds	1
   763  0029                     ___flmul@a:
   764                           
   765                           ; 4 bytes @ 0x9
   766  0029                     	ds	1
   767  002A                     ___xxtofl@sign:
   768                           
   769                           ; 1 bytes @ 0xA
   770  002A                     	ds	1
   771  002B                     ___xxtofl@exp:
   772                           
   773                           ; 1 bytes @ 0xB
   774  002B                     	ds	1
   775  002C                     ___fldiv@sign:
   776  002C                     ___xxtofl@arg:	
   777                           ; 1 bytes @ 0xC
   778                           
   779                           
   780                           ; 4 bytes @ 0xC
   781  002C                     	ds	1
   782  002D                     ??___flmul:
   783  002D                     ___fldiv@new_exp:	
   784                           ; 1 bytes @ 0xD
   785                           
   786                           
   787                           ; 2 bytes @ 0xD
   788  002D                     	ds	2
   789  002F                     ___fldiv@grs:
   790                           
   791                           ; 4 bytes @ 0xF
   792  002F                     	ds	1
   793  0030                     ?___flsub:
   794  0030                     ___flsub@a:	
   795                           ; 4 bytes @ 0x10
   796                           
   797                           
   798                           ; 4 bytes @ 0x10
   799  0030                     	ds	2
   800  0032                     ___flmul@sign:
   801                           
   802                           ; 1 bytes @ 0x12
   803  0032                     	ds	1
   804  0033                     ___fldiv@bexp:
   805  0033                     ___flmul@grs:	
   806                           ; 1 bytes @ 0x13
   807                           
   808                           
   809                           ; 4 bytes @ 0x13
   810  0033                     	ds	1
   811  0034                     ___fldiv@aexp:
   812  0034                     ___flsub@b:	
   813                           ; 1 bytes @ 0x14
   814                           
   815                           
   816                           ; 4 bytes @ 0x14
   817  0034                     	ds	1
   818  0035                     ?___fltol:
   819  0035                     ___fltol@f1:	
   820                           ; 4 bytes @ 0x15
   821                           
   822                           
   823                           ; 4 bytes @ 0x15
   824  0035                     	ds	2
   825  0037                     ___flmul@aexp:
   826                           
   827                           ; 1 bytes @ 0x17
   828  0037                     	ds	1
   829  0038                     HandleKeypadReading@value:
   830  0038                     ___flmul@bexp:	
   831                           ; 1 bytes @ 0x18
   832                           
   833                           
   834                           ; 1 bytes @ 0x18
   835  0038                     	ds	1
   836  0039                     ??___fltol:
   837  0039                     ___flmul@prod:	
   838                           ; 1 bytes @ 0x19
   839                           
   840                           
   841                           ; 4 bytes @ 0x19
   842  0039                     	ds	4
   843  003D                     ___flmul@temp:
   844                           
   845                           ; 2 bytes @ 0x1D
   846  003D                     	ds	1
   847  003E                     ___fltol@sign1:
   848                           
   849                           ; 1 bytes @ 0x1E
   850  003E                     	ds	1
   851  003F                     ___fltol@exp1:
   852                           
   853                           ; 1 bytes @ 0x1F
   854  003F                     	ds	1
   855  0040                     ?_UpdateLCDViewWithNumber:
   856  0040                     UpdateLCDViewWithNumber@number:	
   857                           ; 1 bytes @ 0x20
   858                           
   859                           
   860                           ; 4 bytes @ 0x20
   861  0040                     	ds	4
   862  0044                     ??_UpdateLCDViewWithNumber:
   863                           
   864                           ; 1 bytes @ 0x24
   865  0044                     	ds	4
   866  0048                     UpdateLCDViewWithNumber@position:
   867                           
   868                           ; 1 bytes @ 0x28
   869  0048                     	ds	1
   870  0049                     UpdateLCDViewWithNumber@decimal:
   871                           
   872                           ; 1 bytes @ 0x29
   873  0049                     	ds	1
   874  004A                     UpdateLCDViewWithNumber@unit:
   875                           
   876                           ; 1 bytes @ 0x2A
   877  004A                     	ds	1
   878  004B                     UpdateLCDViewWithNumber@hundreds:
   879                           
   880                           ; 1 bytes @ 0x2B
   881  004B                     	ds	1
   882  004C                     UpdateLCDViewWithNumber@tens:
   883                           
   884                           ; 1 bytes @ 0x2C
   885  004C                     	ds	1
   886  004D                     ??_ManageDisplays:
   887                           
   888                           ; 1 bytes @ 0x2D
   889  004D                     	ds	1
   890  004E                     ??_main:
   891                           
   892                           ; 1 bytes @ 0x2E
   893  004E                     	ds	1
   894                           
   895                           	psect	maintext
   896  17B7                     __pmaintext:	
   897 ;;
   898 ;;Main: autosize = 0, tempsize = 1, incstack = 0, save=0
   899 ;;
   900 ;; *************** function _main *****************
   901 ;; Defined at:
   902 ;;		line 108 in file "main.c"
   903 ;; Parameters:    Size  Location     Type
   904 ;;		None
   905 ;; Auto vars:     Size  Location     Type
   906 ;;		None
   907 ;; Return value:  Size  Location     Type
   908 ;;                  2  102[None  ] int 
   909 ;; Registers used:
   910 ;;		wreg, fsr0l, fsr0h, status,2, status,0, btemp+1, pclath, cstack
   911 ;; Tracked objects:
   912 ;;		On entry : B00/0
   913 ;;		On exit  : 0/0
   914 ;;		Unchanged: 0/0
   915 ;; Data sizes:     COMMON   BANK0   BANK1   BANK3   BANK2
   916 ;;      Params:         0       0       0       0       0
   917 ;;      Locals:         0       0       0       0       0
   918 ;;      Temps:          0       1       0       0       0
   919 ;;      Totals:         0       1       0       0       0
   920 ;;Total ram usage:        1 bytes
   921 ;; Hardware stack levels required when called: 5
   922 ;; This function calls:
   923 ;;		_CheckAlarmButton
   924 ;;		_CheckKeypad
   925 ;;		_InitLCD
   926 ;;		_InitPic
   927 ;;		_ManageDisplays
   928 ;;		_ReadHumidity
   929 ;;		_ReadTemperature
   930 ;;		_SendLCDString
   931 ;;		_UpdateTempHumDisplay
   932 ;; This function is called by:
   933 ;;		Startup code after reset
   934 ;; This function uses a non-reentrant model
   935 ;;
   936                           
   937                           
   938                           ;psect for function _main
   939  17B7                     _main:
   940  17B7                     l3302:	
   941                           ;incstack = 0
   942                           ; Regs used in _main: [wreg-fsr0h+status,2+status,0+btemp+1+pclath+cstack]
   943                           
   944                           
   945                           ;main.c: 110:     InitPic();
   946  17B7  120A  158A  2082  160A  118A  	fcall	_InitPic
   947                           
   948                           ;main.c: 111:     InitLCD();
   949  17BC  120A  158A  21B2  160A  118A  	fcall	_InitLCD
   950  17C1                     l3304:
   951                           
   952                           ;main.c: 112:     SendLCDString(startDisplay);
   953  17C1  306C               	movlw	(low ((STR_1-__stringbase)| (0+32768)))& (0+255)
   954  17C2  120A  158A  2154  160A  118A  	fcall	_SendLCDString
   955  17C7                     l3306:
   956                           
   957                           ;main.c: 114:     {;main.c: 115:         keypadReading = CheckKeypad();
   958  17C7  120A  158A  2219  160A  118A  	fcall	_CheckKeypad
   959  17CC  1283               	bcf	3,5	;RP0=0, select bank0
   960  17CD  1303               	bcf	3,6	;RP1=0, select bank0
   961  17CE  00CE               	movwf	??_main
   962  17CF  084E               	movf	??_main,w
   963  17D0  00E0               	movwf	_keypadReading
   964                           
   965                           ;main.c: 116:         ReadHumidity();
   966  17D1  120A  158A  20A2  160A  118A  	fcall	_ReadHumidity
   967                           
   968                           ;main.c: 117:         ReadTemperature();
   969  17D6  120A  158A  20FB  160A  118A  	fcall	_ReadTemperature
   970  17DB                     l3308:
   971                           
   972                           ;main.c: 118:         CheckAlarmButton();
   973  17DB  160A  118A  2773  160A  118A  	fcall	_CheckAlarmButton
   974  17E0                     l3310:
   975                           
   976                           ;main.c: 119:         if(currentDisplay == 2) UpdateTempHumDisplay();
   977  17E0  3002               	movlw	2
   978  17E1  0678               	xorwf	_currentDisplay,w
   979  17E2  1D03               	btfss	3,2
   980  17E3  2FE5               	goto	u5171
   981  17E4  2FE6               	goto	u5170
   982  17E5                     u5171:
   983  17E5  2FEB               	goto	l3314
   984  17E6                     u5170:
   985  17E6                     l3312:
   986  17E6  120A  158A  2309  160A  118A  	fcall	_UpdateTempHumDisplay
   987  17EB                     l3314:
   988                           
   989                           ;main.c: 120:         if(flags & 0x01)
   990  17EB  1283               	bcf	3,5	;RP0=0, select bank0
   991  17EC  1303               	bcf	3,6	;RP1=0, select bank0
   992  17ED  1C61               	btfss	_flags,0
   993  17EE  2FF0               	goto	u5181
   994  17EF  2FF1               	goto	u5180
   995  17F0                     u5181:
   996  17F0  2FC7               	goto	l3306
   997  17F1                     u5180:
   998  17F1                     l3316:
   999                           
  1000                           ;main.c: 121:         {;main.c: 122:             ManageDisplays();
  1001  17F1  160A  118A  2737  160A  118A  	fcall	_ManageDisplays
  1002  17F6                     l3318:
  1003                           
  1004                           ;main.c: 124:             flags &= ~0x01;
  1005  17F6  30FE               	movlw	254
  1006  17F7  1283               	bcf	3,5	;RP0=0, select bank0
  1007  17F8  1303               	bcf	3,6	;RP1=0, select bank0
  1008  17F9  00CE               	movwf	??_main
  1009  17FA  084E               	movf	??_main,w
  1010  17FB  05E1               	andwf	_flags,f
  1011  17FC  2FC7               	goto	l3306
  1012  17FD  120A  118A  280C   	ljmp	start
  1013  1800                     __end_of_main:
  1014                           
  1015                           	psect	text1
  1016  0B09                     __ptext1:	
  1017 ;; *************** function _UpdateTempHumDisplay *****************
  1018 ;; Defined at:
  1019 ;;		line 379 in file "main.c"
  1020 ;; Parameters:    Size  Location     Type
  1021 ;;		None
  1022 ;; Auto vars:     Size  Location     Type
  1023 ;;		None
  1024 ;; Return value:  Size  Location     Type
  1025 ;;                  1    wreg      void 
  1026 ;; Registers used:
  1027 ;;		wreg, status,2, status,0, btemp+1, pclath, cstack
  1028 ;; Tracked objects:
  1029 ;;		On entry : 0/0
  1030 ;;		On exit  : 0/0
  1031 ;;		Unchanged: 0/0
  1032 ;; Data sizes:     COMMON   BANK0   BANK1   BANK3   BANK2
  1033 ;;      Params:         0       0       0       0       0
  1034 ;;      Locals:         0       0       0       0       0
  1035 ;;      Temps:          0       0       0       0       0
  1036 ;;      Totals:         0       0       0       0       0
  1037 ;;Total ram usage:        0 bytes
  1038 ;; Hardware stack levels used: 1
  1039 ;; Hardware stack levels required when called: 4
  1040 ;; This function calls:
  1041 ;;		_UpdateLCDViewWithNumber
  1042 ;;		___fleq
  1043 ;; This function is called by:
  1044 ;;		_main
  1045 ;; This function uses a non-reentrant model
  1046 ;;
  1047                           
  1048                           
  1049                           ;psect for function _UpdateTempHumDisplay
  1050  0B09                     _UpdateTempHumDisplay:
  1051  0B09                     l3276:	
  1052                           ;incstack = 0
  1053                           ; Regs used in _UpdateTempHumDisplay: [wreg+status,2+status,0+btemp+1+pclath+cstack]
  1054                           
  1055                           
  1056                           ;main.c: 381:     if (oldHumidity != humidity)
  1057  0B09  1683               	bsf	3,5	;RP0=1, select bank1
  1058  0B0A  1303               	bcf	3,6	;RP1=0, select bank1
  1059  0B0B  0827               	movf	(_oldHumidity+3)^(0+128),w
  1060  0B0C  1283               	bcf	3,5	;RP0=0, select bank0
  1061  0B0D  1303               	bcf	3,6	;RP1=0, select bank0
  1062  0B0E  00A3               	movwf	___fleq@ff1+3
  1063  0B0F  1683               	bsf	3,5	;RP0=1, select bank1
  1064  0B10  1303               	bcf	3,6	;RP1=0, select bank1
  1065  0B11  0826               	movf	(_oldHumidity+2)^(0+128),w
  1066  0B12  1283               	bcf	3,5	;RP0=0, select bank0
  1067  0B13  1303               	bcf	3,6	;RP1=0, select bank0
  1068  0B14  00A2               	movwf	___fleq@ff1+2
  1069  0B15  1683               	bsf	3,5	;RP0=1, select bank1
  1070  0B16  1303               	bcf	3,6	;RP1=0, select bank1
  1071  0B17  0825               	movf	(_oldHumidity+1)^(0+128),w
  1072  0B18  1283               	bcf	3,5	;RP0=0, select bank0
  1073  0B19  1303               	bcf	3,6	;RP1=0, select bank0
  1074  0B1A  00A1               	movwf	___fleq@ff1+1
  1075  0B1B  1683               	bsf	3,5	;RP0=1, select bank1
  1076  0B1C  1303               	bcf	3,6	;RP1=0, select bank1
  1077  0B1D  0824               	movf	_oldHumidity^(0+128),w
  1078  0B1E  1283               	bcf	3,5	;RP0=0, select bank0
  1079  0B1F  1303               	bcf	3,6	;RP1=0, select bank0
  1080  0B20  00A0               	movwf	___fleq@ff1
  1081  0B21  0865               	movf	_humidity+3,w
  1082  0B22  00A7               	movwf	___fleq@ff2+3
  1083  0B23  0864               	movf	_humidity+2,w
  1084  0B24  00A6               	movwf	___fleq@ff2+2
  1085  0B25  0863               	movf	_humidity+1,w
  1086  0B26  00A5               	movwf	___fleq@ff2+1
  1087  0B27  0862               	movf	_humidity,w
  1088  0B28  00A4               	movwf	___fleq@ff2
  1089  0B29  120A  118A  27AB  120A  158A  	fcall	___fleq
  1090  0B2E  1803               	btfsc	3,0
  1091  0B2F  2B31               	goto	u5131
  1092  0B30  2B32               	goto	u5130
  1093  0B31                     u5131:
  1094  0B31  2B5A               	goto	l3282
  1095  0B32                     u5130:
  1096  0B32                     l3278:
  1097                           
  1098                           ;main.c: 382:     {;main.c: 383:         UpdateLCDViewWithNumber(0xCA, humidity);
  1099  0B32  1283               	bcf	3,5	;RP0=0, select bank0
  1100  0B33  1303               	bcf	3,6	;RP1=0, select bank0
  1101  0B34  0865               	movf	_humidity+3,w
  1102  0B35  00C3               	movwf	UpdateLCDViewWithNumber@number+3
  1103  0B36  0864               	movf	_humidity+2,w
  1104  0B37  00C2               	movwf	UpdateLCDViewWithNumber@number+2
  1105  0B38  0863               	movf	_humidity+1,w
  1106  0B39  00C1               	movwf	UpdateLCDViewWithNumber@number+1
  1107  0B3A  0862               	movf	_humidity,w
  1108  0B3B  00C0               	movwf	UpdateLCDViewWithNumber@number
  1109  0B3C  30CA               	movlw	202
  1110  0B3D  120A  158A  2611  120A  158A  	fcall	_UpdateLCDViewWithNumber
  1111  0B42                     l3280:
  1112                           
  1113                           ;main.c: 384:         oldHumidity = humidity;
  1114  0B42  1283               	bcf	3,5	;RP0=0, select bank0
  1115  0B43  1303               	bcf	3,6	;RP1=0, select bank0
  1116  0B44  0865               	movf	_humidity+3,w
  1117  0B45  1683               	bsf	3,5	;RP0=1, select bank1
  1118  0B46  1303               	bcf	3,6	;RP1=0, select bank1
  1119  0B47  00A7               	movwf	(_oldHumidity+3)^(0+128)
  1120  0B48  1283               	bcf	3,5	;RP0=0, select bank0
  1121  0B49  1303               	bcf	3,6	;RP1=0, select bank0
  1122  0B4A  0864               	movf	_humidity+2,w
  1123  0B4B  1683               	bsf	3,5	;RP0=1, select bank1
  1124  0B4C  1303               	bcf	3,6	;RP1=0, select bank1
  1125  0B4D  00A6               	movwf	(_oldHumidity+2)^(0+128)
  1126  0B4E  1283               	bcf	3,5	;RP0=0, select bank0
  1127  0B4F  1303               	bcf	3,6	;RP1=0, select bank0
  1128  0B50  0863               	movf	_humidity+1,w
  1129  0B51  1683               	bsf	3,5	;RP0=1, select bank1
  1130  0B52  1303               	bcf	3,6	;RP1=0, select bank1
  1131  0B53  00A5               	movwf	(_oldHumidity+1)^(0+128)
  1132  0B54  1283               	bcf	3,5	;RP0=0, select bank0
  1133  0B55  1303               	bcf	3,6	;RP1=0, select bank0
  1134  0B56  0862               	movf	_humidity,w
  1135  0B57  1683               	bsf	3,5	;RP0=1, select bank1
  1136  0B58  1303               	bcf	3,6	;RP1=0, select bank1
  1137  0B59  00A4               	movwf	_oldHumidity^(0+128)
  1138  0B5A                     l3282:
  1139                           
  1140                           ;main.c: 386:     if (oldTemperature != temperature)
  1141  0B5A  1283               	bcf	3,5	;RP0=0, select bank0
  1142  0B5B  1303               	bcf	3,6	;RP1=0, select bank0
  1143  0B5C  0852               	movf	_oldTemperature+3,w
  1144  0B5D  00A3               	movwf	___fleq@ff1+3
  1145  0B5E  0851               	movf	_oldTemperature+2,w
  1146  0B5F  00A2               	movwf	___fleq@ff1+2
  1147  0B60  0850               	movf	_oldTemperature+1,w
  1148  0B61  00A1               	movwf	___fleq@ff1+1
  1149  0B62  084F               	movf	_oldTemperature,w
  1150  0B63  00A0               	movwf	___fleq@ff1
  1151  0B64  0856               	movf	_temperature+3,w
  1152  0B65  00A7               	movwf	___fleq@ff2+3
  1153  0B66  0855               	movf	_temperature+2,w
  1154  0B67  00A6               	movwf	___fleq@ff2+2
  1155  0B68  0854               	movf	_temperature+1,w
  1156  0B69  00A5               	movwf	___fleq@ff2+1
  1157  0B6A  0853               	movf	_temperature,w
  1158  0B6B  00A4               	movwf	___fleq@ff2
  1159  0B6C  120A  118A  27AB  120A  158A  	fcall	___fleq
  1160  0B71  1803               	btfsc	3,0
  1161  0B72  2B74               	goto	u5141
  1162  0B73  2B75               	goto	u5140
  1163  0B74                     u5141:
  1164  0B74  2B8F               	goto	l212
  1165  0B75                     u5140:
  1166  0B75                     l3284:
  1167                           
  1168                           ;main.c: 387:     {;main.c: 388:         UpdateLCDViewWithNumber(0x8A, temperature);
  1169  0B75  1283               	bcf	3,5	;RP0=0, select bank0
  1170  0B76  1303               	bcf	3,6	;RP1=0, select bank0
  1171  0B77  0856               	movf	_temperature+3,w
  1172  0B78  00C3               	movwf	UpdateLCDViewWithNumber@number+3
  1173  0B79  0855               	movf	_temperature+2,w
  1174  0B7A  00C2               	movwf	UpdateLCDViewWithNumber@number+2
  1175  0B7B  0854               	movf	_temperature+1,w
  1176  0B7C  00C1               	movwf	UpdateLCDViewWithNumber@number+1
  1177  0B7D  0853               	movf	_temperature,w
  1178  0B7E  00C0               	movwf	UpdateLCDViewWithNumber@number
  1179  0B7F  308A               	movlw	138
  1180  0B80  120A  158A  2611  120A  158A  	fcall	_UpdateLCDViewWithNumber
  1181  0B85                     l3286:
  1182                           
  1183                           ;main.c: 389:         oldTemperature = temperature;
  1184  0B85  1283               	bcf	3,5	;RP0=0, select bank0
  1185  0B86  1303               	bcf	3,6	;RP1=0, select bank0
  1186  0B87  0856               	movf	_temperature+3,w
  1187  0B88  00D2               	movwf	_oldTemperature+3
  1188  0B89  0855               	movf	_temperature+2,w
  1189  0B8A  00D1               	movwf	_oldTemperature+2
  1190  0B8B  0854               	movf	_temperature+1,w
  1191  0B8C  00D0               	movwf	_oldTemperature+1
  1192  0B8D  0853               	movf	_temperature,w
  1193  0B8E  00CF               	movwf	_oldTemperature
  1194  0B8F                     l212:
  1195  0B8F  0008               	return
  1196  0B90                     __end_of_UpdateTempHumDisplay:
  1197                           
  1198                           	psect	text2
  1199  07AB                     __ptext2:	
  1200 ;; *************** function ___fleq *****************
  1201 ;; Defined at:
  1202 ;;		line 4 in file "C:\Program Files\Microchip\xc8\v2.32\pic\sources\c90\common\fleq.c"
  1203 ;; Parameters:    Size  Location     Type
  1204 ;;  ff1             4    0[BANK0 ] void 
  1205 ;;  ff2             4    4[BANK0 ] void 
  1206 ;; Auto vars:     Size  Location     Type
  1207 ;;		None
  1208 ;; Return value:  Size  Location     Type
  1209 ;;		None               void
  1210 ;; Registers used:
  1211 ;;		wreg, status,2, status,0
  1212 ;; Tracked objects:
  1213 ;;		On entry : 0/0
  1214 ;;		On exit  : 0/0
  1215 ;;		Unchanged: 0/0
  1216 ;; Data sizes:     COMMON   BANK0   BANK1   BANK3   BANK2
  1217 ;;      Params:         0       8       0       0       0
  1218 ;;      Locals:         0       0       0       0       0
  1219 ;;      Temps:          4       0       0       0       0
  1220 ;;      Totals:         4       8       0       0       0
  1221 ;;Total ram usage:       12 bytes
  1222 ;; Hardware stack levels used: 1
  1223 ;; Hardware stack levels required when called: 1
  1224 ;; This function calls:
  1225 ;;		Nothing
  1226 ;; This function is called by:
  1227 ;;		_UpdateTempHumDisplay
  1228 ;; This function uses a non-reentrant model
  1229 ;;
  1230                           
  1231                           
  1232                           ;psect for function ___fleq
  1233  07AB                     ___fleq:
  1234  07AB                     l3220:	
  1235                           ;incstack = 0
  1236                           ; Regs used in ___fleq: [wreg+status,2+status,0]
  1237                           
  1238  07AB  3000               	movlw	0
  1239  07AC  1283               	bcf	3,5	;RP0=0, select bank0
  1240  07AD  1303               	bcf	3,6	;RP1=0, select bank0
  1241  07AE  0520               	andwf	___fleq@ff1,w
  1242  07AF  00F3               	movwf	??___fleq
  1243  07B0  3000               	movlw	0
  1244  07B1  0521               	andwf	___fleq@ff1+1,w
  1245  07B2  00F4               	movwf	??___fleq+1
  1246  07B3  3080               	movlw	128
  1247  07B4  0522               	andwf	___fleq@ff1+2,w
  1248  07B5  00F5               	movwf	??___fleq+2
  1249  07B6  307F               	movlw	127
  1250  07B7  0523               	andwf	___fleq@ff1+3,w
  1251  07B8  00F6               	movwf	??___fleq+3
  1252  07B9  0876               	movf	??___fleq+3,w
  1253  07BA  0475               	iorwf	??___fleq+2,w
  1254  07BB  0474               	iorwf	??___fleq+1,w
  1255  07BC  0473               	iorwf	??___fleq,w
  1256  07BD  1D03               	skipz
  1257  07BE  2FC0               	goto	u5061
  1258  07BF  2FC1               	goto	u5060
  1259  07C0                     u5061:
  1260  07C0  2FC9               	goto	l467
  1261  07C1                     u5060:
  1262  07C1                     l3222:
  1263  07C1  3000               	movlw	0
  1264  07C2  00A3               	movwf	___fleq@ff1+3
  1265  07C3  3000               	movlw	0
  1266  07C4  00A2               	movwf	___fleq@ff1+2
  1267  07C5  3000               	movlw	0
  1268  07C6  00A1               	movwf	___fleq@ff1+1
  1269  07C7  3000               	movlw	0
  1270  07C8  00A0               	movwf	___fleq@ff1
  1271  07C9                     l467:
  1272  07C9  3000               	movlw	0
  1273  07CA  0524               	andwf	___fleq@ff2,w
  1274  07CB  00F3               	movwf	??___fleq
  1275  07CC  3000               	movlw	0
  1276  07CD  0525               	andwf	___fleq@ff2+1,w
  1277  07CE  00F4               	movwf	??___fleq+1
  1278  07CF  3080               	movlw	128
  1279  07D0  0526               	andwf	___fleq@ff2+2,w
  1280  07D1  00F5               	movwf	??___fleq+2
  1281  07D2  307F               	movlw	127
  1282  07D3  0527               	andwf	___fleq@ff2+3,w
  1283  07D4  00F6               	movwf	??___fleq+3
  1284  07D5  0876               	movf	??___fleq+3,w
  1285  07D6  0475               	iorwf	??___fleq+2,w
  1286  07D7  0474               	iorwf	??___fleq+1,w
  1287  07D8  0473               	iorwf	??___fleq,w
  1288  07D9  1D03               	skipz
  1289  07DA  2FDC               	goto	u5071
  1290  07DB  2FDD               	goto	u5070
  1291  07DC                     u5071:
  1292  07DC  2FE5               	goto	l468
  1293  07DD                     u5070:
  1294  07DD                     l3224:
  1295  07DD  3000               	movlw	0
  1296  07DE  00A7               	movwf	___fleq@ff2+3
  1297  07DF  3000               	movlw	0
  1298  07E0  00A6               	movwf	___fleq@ff2+2
  1299  07E1  3000               	movlw	0
  1300  07E2  00A5               	movwf	___fleq@ff2+1
  1301  07E3  3000               	movlw	0
  1302  07E4  00A4               	movwf	___fleq@ff2
  1303  07E5                     l468:
  1304  07E5  0827               	movf	___fleq@ff2+3,w
  1305  07E6  0623               	xorwf	___fleq@ff1+3,w
  1306  07E7  1D03               	skipz
  1307  07E8  2FF3               	goto	u5085
  1308  07E9  0826               	movf	___fleq@ff2+2,w
  1309  07EA  0622               	xorwf	___fleq@ff1+2,w
  1310  07EB  1D03               	skipz
  1311  07EC  2FF3               	goto	u5085
  1312  07ED  0825               	movf	___fleq@ff2+1,w
  1313  07EE  0621               	xorwf	___fleq@ff1+1,w
  1314  07EF  1D03               	skipz
  1315  07F0  2FF3               	goto	u5085
  1316  07F1  0824               	movf	___fleq@ff2,w
  1317  07F2  0620               	xorwf	___fleq@ff1,w
  1318  07F3                     u5085:
  1319  07F3  1903               	skipnz
  1320  07F4  2FF6               	goto	u5081
  1321  07F5  2FF7               	goto	u5080
  1322  07F6                     u5081:
  1323  07F6  2FF9               	goto	l3228
  1324  07F7                     u5080:
  1325  07F7                     l3226:
  1326  07F7  1003               	clrc
  1327  07F8  2FFA               	goto	l469
  1328  07F9                     l3228:
  1329  07F9  1403               	setc
  1330  07FA                     l469:
  1331  07FA  0008               	return
  1332  07FB                     __end_of___fleq:
  1333                           
  1334                           	psect	text3
  1335  08FB                     __ptext3:	
  1336 ;; *************** function _ReadTemperature *****************
  1337 ;; Defined at:
  1338 ;;		line 301 in file "main.c"
  1339 ;; Parameters:    Size  Location     Type
  1340 ;;		None
  1341 ;; Auto vars:     Size  Location     Type
  1342 ;;		None
  1343 ;; Return value:  Size  Location     Type
  1344 ;;                  1    wreg      void 
  1345 ;; Registers used:
  1346 ;;		wreg, status,2, status,0, btemp+1, pclath, cstack
  1347 ;; Tracked objects:
  1348 ;;		On entry : 0/0
  1349 ;;		On exit  : 0/0
  1350 ;;		Unchanged: 0/0
  1351 ;; Data sizes:     COMMON   BANK0   BANK1   BANK3   BANK2
  1352 ;;      Params:         0       0       0       0       0
  1353 ;;      Locals:         0       0       0       0       0
  1354 ;;      Temps:          0       0       0       0       0
  1355 ;;      Totals:         0       0       0       0       0
  1356 ;;Total ram usage:        0 bytes
  1357 ;; Hardware stack levels used: 1
  1358 ;; Hardware stack levels required when called: 2
  1359 ;; This function calls:
  1360 ;;		___fladd
  1361 ;;		___flge
  1362 ;; This function is called by:
  1363 ;;		_main
  1364 ;; This function uses a non-reentrant model
  1365 ;;
  1366                           
  1367                           
  1368                           ;psect for function _ReadTemperature
  1369  08FB                     _ReadTemperature:
  1370  08FB                     l3266:	
  1371                           ;incstack = 0
  1372                           ; Regs used in _ReadTemperature: [wreg+status,2+status,0+btemp+1+pclath+cstack]
  1373                           
  1374                           
  1375                           ;main.c: 303:     if(postScalerTemp > 70)
  1376  08FB  1283               	bcf	3,5	;RP0=0, select bank0
  1377  08FC  1303               	bcf	3,6	;RP1=0, select bank0
  1378  08FD  085A               	movf	_postScalerTemp+1,w
  1379  08FE  3A80               	xorlw	128
  1380  08FF  00FF               	movwf	btemp+1
  1381  0900  3080               	movlw	128
  1382  0901  027F               	subwf	btemp+1,w
  1383  0902  1D03               	skipz
  1384  0903  2906               	goto	u5115
  1385  0904  3047               	movlw	71
  1386  0905  0259               	subwf	_postScalerTemp,w
  1387  0906                     u5115:
  1388  0906  1C03               	skipc
  1389  0907  2909               	goto	u5111
  1390  0908  290A               	goto	u5110
  1391  0909                     u5111:
  1392  0909  2953               	goto	l183
  1393  090A                     u5110:
  1394  090A                     l3268:
  1395                           
  1396                           ;main.c: 304:     {;main.c: 305:         if(temperature >= 90) temperature = -90;
  1397  090A  1283               	bcf	3,5	;RP0=0, select bank0
  1398  090B  1303               	bcf	3,6	;RP1=0, select bank0
  1399  090C  0856               	movf	_temperature+3,w
  1400  090D  00A3               	movwf	___flge@ff1+3
  1401  090E  0855               	movf	_temperature+2,w
  1402  090F  00A2               	movwf	___flge@ff1+2
  1403  0910  0854               	movf	_temperature+1,w
  1404  0911  00A1               	movwf	___flge@ff1+1
  1405  0912  0853               	movf	_temperature,w
  1406  0913  00A0               	movwf	___flge@ff1
  1407  0914  3042               	movlw	66
  1408  0915  00A7               	movwf	___flge@ff2+3
  1409  0916  30B4               	movlw	180
  1410  0917  00A6               	movwf	___flge@ff2+2
  1411  0918  3000               	movlw	0
  1412  0919  00A5               	movwf	___flge@ff2+1
  1413  091A  3000               	movlw	0
  1414  091B  00A4               	movwf	___flge@ff2
  1415  091C  120A  158A  2390  120A  158A  	fcall	___flge
  1416  0921  1C03               	btfss	3,0
  1417  0922  2924               	goto	u5121
  1418  0923  2925               	goto	u5120
  1419  0924                     u5121:
  1420  0924  2930               	goto	l3272
  1421  0925                     u5120:
  1422  0925                     l3270:
  1423  0925  30C2               	movlw	194
  1424  0926  1283               	bcf	3,5	;RP0=0, select bank0
  1425  0927  1303               	bcf	3,6	;RP1=0, select bank0
  1426  0928  00D6               	movwf	_temperature+3
  1427  0929  30B4               	movlw	180
  1428  092A  00D5               	movwf	_temperature+2
  1429  092B  3000               	movlw	0
  1430  092C  00D4               	movwf	_temperature+1
  1431  092D  3000               	movlw	0
  1432  092E  00D3               	movwf	_temperature
  1433  092F  2951               	goto	l3274
  1434  0930                     l3272:
  1435  0930  303D               	movlw	61
  1436  0931  1283               	bcf	3,5	;RP0=0, select bank0
  1437  0932  1303               	bcf	3,6	;RP1=0, select bank0
  1438  0933  00A3               	movwf	___fladd@b+3
  1439  0934  30CC               	movlw	204
  1440  0935  00A2               	movwf	___fladd@b+2
  1441  0936  30CC               	movlw	204
  1442  0937  00A1               	movwf	___fladd@b+1
  1443  0938  30CD               	movlw	205
  1444  0939  00A0               	movwf	___fladd@b
  1445  093A  0856               	movf	_temperature+3,w
  1446  093B  00A7               	movwf	___fladd@a+3
  1447  093C  0855               	movf	_temperature+2,w
  1448  093D  00A6               	movwf	___fladd@a+2
  1449  093E  0854               	movf	_temperature+1,w
  1450  093F  00A5               	movwf	___fladd@a+1
  1451  0940  0853               	movf	_temperature,w
  1452  0941  00A4               	movwf	___fladd@a
  1453  0942  120A  118A  239A  120A  158A  	fcall	___fladd
  1454  0947  1283               	bcf	3,5	;RP0=0, select bank0
  1455  0948  1303               	bcf	3,6	;RP1=0, select bank0
  1456  0949  0823               	movf	?___fladd+3,w
  1457  094A  00D6               	movwf	_temperature+3
  1458  094B  0822               	movf	?___fladd+2,w
  1459  094C  00D5               	movwf	_temperature+2
  1460  094D  0821               	movf	?___fladd+1,w
  1461  094E  00D4               	movwf	_temperature+1
  1462  094F  0820               	movf	?___fladd,w
  1463  0950  00D3               	movwf	_temperature
  1464  0951                     l3274:
  1465                           
  1466                           ;main.c: 307:         postScalerTemp = 0;
  1467  0951  01D9               	clrf	_postScalerTemp
  1468  0952  01DA               	clrf	_postScalerTemp+1
  1469  0953                     l183:
  1470  0953  0008               	return
  1471  0954                     __end_of_ReadTemperature:
  1472                           
  1473                           	psect	text4
  1474  08A2                     __ptext4:	
  1475 ;; *************** function _ReadHumidity *****************
  1476 ;; Defined at:
  1477 ;;		line 290 in file "main.c"
  1478 ;; Parameters:    Size  Location     Type
  1479 ;;		None
  1480 ;; Auto vars:     Size  Location     Type
  1481 ;;		None
  1482 ;; Return value:  Size  Location     Type
  1483 ;;                  1    wreg      void 
  1484 ;; Registers used:
  1485 ;;		wreg, status,2, status,0, btemp+1, pclath, cstack
  1486 ;; Tracked objects:
  1487 ;;		On entry : 0/0
  1488 ;;		On exit  : 0/0
  1489 ;;		Unchanged: 0/0
  1490 ;; Data sizes:     COMMON   BANK0   BANK1   BANK3   BANK2
  1491 ;;      Params:         0       0       0       0       0
  1492 ;;      Locals:         0       0       0       0       0
  1493 ;;      Temps:          0       0       0       0       0
  1494 ;;      Totals:         0       0       0       0       0
  1495 ;;Total ram usage:        0 bytes
  1496 ;; Hardware stack levels used: 1
  1497 ;; Hardware stack levels required when called: 2
  1498 ;; This function calls:
  1499 ;;		___fladd
  1500 ;;		___flge
  1501 ;; This function is called by:
  1502 ;;		_main
  1503 ;; This function uses a non-reentrant model
  1504 ;;
  1505                           
  1506                           
  1507                           ;psect for function _ReadHumidity
  1508  08A2                     _ReadHumidity:
  1509  08A2                     l3256:	
  1510                           ;incstack = 0
  1511                           ; Regs used in _ReadHumidity: [wreg+status,2+status,0+btemp+1+pclath+cstack]
  1512                           
  1513                           
  1514                           ;main.c: 292:     if(postScalerHum > 100)
  1515  08A2  1283               	bcf	3,5	;RP0=0, select bank0
  1516  08A3  1303               	bcf	3,6	;RP1=0, select bank0
  1517  08A4  0858               	movf	_postScalerHum+1,w
  1518  08A5  3A80               	xorlw	128
  1519  08A6  00FF               	movwf	btemp+1
  1520  08A7  3080               	movlw	128
  1521  08A8  027F               	subwf	btemp+1,w
  1522  08A9  1D03               	skipz
  1523  08AA  28AD               	goto	u5095
  1524  08AB  3065               	movlw	101
  1525  08AC  0257               	subwf	_postScalerHum,w
  1526  08AD                     u5095:
  1527  08AD  1C03               	skipc
  1528  08AE  28B0               	goto	u5091
  1529  08AF  28B1               	goto	u5090
  1530  08B0                     u5091:
  1531  08B0  28FA               	goto	l177
  1532  08B1                     u5090:
  1533  08B1                     l3258:
  1534                           
  1535                           ;main.c: 293:     {;main.c: 294:         if(humidity >= 100) humidity = 0;
  1536  08B1  1283               	bcf	3,5	;RP0=0, select bank0
  1537  08B2  1303               	bcf	3,6	;RP1=0, select bank0
  1538  08B3  0865               	movf	_humidity+3,w
  1539  08B4  00A3               	movwf	___flge@ff1+3
  1540  08B5  0864               	movf	_humidity+2,w
  1541  08B6  00A2               	movwf	___flge@ff1+2
  1542  08B7  0863               	movf	_humidity+1,w
  1543  08B8  00A1               	movwf	___flge@ff1+1
  1544  08B9  0862               	movf	_humidity,w
  1545  08BA  00A0               	movwf	___flge@ff1
  1546  08BB  3042               	movlw	66
  1547  08BC  00A7               	movwf	___flge@ff2+3
  1548  08BD  30C8               	movlw	200
  1549  08BE  00A6               	movwf	___flge@ff2+2
  1550  08BF  3000               	movlw	0
  1551  08C0  00A5               	movwf	___flge@ff2+1
  1552  08C1  3000               	movlw	0
  1553  08C2  00A4               	movwf	___flge@ff2
  1554  08C3  120A  158A  2390  120A  158A  	fcall	___flge
  1555  08C8  1C03               	btfss	3,0
  1556  08C9  28CB               	goto	u5101
  1557  08CA  28CC               	goto	u5100
  1558  08CB                     u5101:
  1559  08CB  28D7               	goto	l3262
  1560  08CC                     u5100:
  1561  08CC                     l3260:
  1562  08CC  3000               	movlw	0
  1563  08CD  1283               	bcf	3,5	;RP0=0, select bank0
  1564  08CE  1303               	bcf	3,6	;RP1=0, select bank0
  1565  08CF  00E5               	movwf	_humidity+3
  1566  08D0  3000               	movlw	0
  1567  08D1  00E4               	movwf	_humidity+2
  1568  08D2  3000               	movlw	0
  1569  08D3  00E3               	movwf	_humidity+1
  1570  08D4  3000               	movlw	0
  1571  08D5  00E2               	movwf	_humidity
  1572  08D6  28F8               	goto	l3264
  1573  08D7                     l3262:
  1574  08D7  303D               	movlw	61
  1575  08D8  1283               	bcf	3,5	;RP0=0, select bank0
  1576  08D9  1303               	bcf	3,6	;RP1=0, select bank0
  1577  08DA  00A3               	movwf	___fladd@b+3
  1578  08DB  30CC               	movlw	204
  1579  08DC  00A2               	movwf	___fladd@b+2
  1580  08DD  30CC               	movlw	204
  1581  08DE  00A1               	movwf	___fladd@b+1
  1582  08DF  30CD               	movlw	205
  1583  08E0  00A0               	movwf	___fladd@b
  1584  08E1  0865               	movf	_humidity+3,w
  1585  08E2  00A7               	movwf	___fladd@a+3
  1586  08E3  0864               	movf	_humidity+2,w
  1587  08E4  00A6               	movwf	___fladd@a+2
  1588  08E5  0863               	movf	_humidity+1,w
  1589  08E6  00A5               	movwf	___fladd@a+1
  1590  08E7  0862               	movf	_humidity,w
  1591  08E8  00A4               	movwf	___fladd@a
  1592  08E9  120A  118A  239A  120A  158A  	fcall	___fladd
  1593  08EE  1283               	bcf	3,5	;RP0=0, select bank0
  1594  08EF  1303               	bcf	3,6	;RP1=0, select bank0
  1595  08F0  0823               	movf	?___fladd+3,w
  1596  08F1  00E5               	movwf	_humidity+3
  1597  08F2  0822               	movf	?___fladd+2,w
  1598  08F3  00E4               	movwf	_humidity+2
  1599  08F4  0821               	movf	?___fladd+1,w
  1600  08F5  00E3               	movwf	_humidity+1
  1601  08F6  0820               	movf	?___fladd,w
  1602  08F7  00E2               	movwf	_humidity
  1603  08F8                     l3264:
  1604                           
  1605                           ;main.c: 296:         postScalerHum = 0;
  1606  08F8  01D7               	clrf	_postScalerHum
  1607  08F9  01D8               	clrf	_postScalerHum+1
  1608  08FA                     l177:
  1609  08FA  0008               	return
  1610  08FB                     __end_of_ReadHumidity:
  1611                           
  1612                           	psect	text5
  1613  1737                     __ptext5:	
  1614 ;; *************** function _ManageDisplays *****************
  1615 ;; Defined at:
  1616 ;;		line 268 in file "main.c"
  1617 ;; Parameters:    Size  Location     Type
  1618 ;;		None
  1619 ;; Auto vars:     Size  Location     Type
  1620 ;;		None
  1621 ;; Return value:  Size  Location     Type
  1622 ;;                  1    wreg      void 
  1623 ;; Registers used:
  1624 ;;		wreg, fsr0l, fsr0h, status,2, status,0, btemp+1, pclath, cstack
  1625 ;; Tracked objects:
  1626 ;;		On entry : 0/0
  1627 ;;		On exit  : 0/0
  1628 ;;		Unchanged: 0/0
  1629 ;; Data sizes:     COMMON   BANK0   BANK1   BANK3   BANK2
  1630 ;;      Params:         0       0       0       0       0
  1631 ;;      Locals:         0       0       0       0       0
  1632 ;;      Temps:          0       1       0       0       0
  1633 ;;      Totals:         0       1       0       0       0
  1634 ;;Total ram usage:        1 bytes
  1635 ;; Hardware stack levels used: 1
  1636 ;; Hardware stack levels required when called: 4
  1637 ;; This function calls:
  1638 ;;		_HandleKeypadReading
  1639 ;;		_SendLCD
  1640 ;;		_SendLCDString
  1641 ;;		_UpdateLCDViewWithNumber
  1642 ;; This function is called by:
  1643 ;;		_main
  1644 ;; This function uses a non-reentrant model
  1645 ;;
  1646                           
  1647                           
  1648                           ;psect for function _ManageDisplays
  1649  1737                     _ManageDisplays:
  1650  1737                     l3288:	
  1651                           ;incstack = 0
  1652                           ; Regs used in _ManageDisplays: [wreg-fsr0h+status,2+status,0+btemp+1+pclath+cstack]
  1653                           
  1654                           
  1655                           ;main.c: 270:     HandleKeypadReading(keypadReading);
  1656  1737  1283               	bcf	3,5	;RP0=0, select bank0
  1657  1738  1303               	bcf	3,6	;RP1=0, select bank0
  1658  1739  0860               	movf	_keypadReading,w
  1659  173A  120A  118A  262A  160A  118A  	fcall	_HandleKeypadReading
  1660  173F                     l3290:
  1661                           
  1662                           ;main.c: 271:     if(currentDisplay != oldDisplay)
  1663  173F  0878               	movf	_currentDisplay,w
  1664  1740  1283               	bcf	3,5	;RP0=0, select bank0
  1665  1741  1303               	bcf	3,6	;RP1=0, select bank0
  1666  1742  065F               	xorwf	_oldDisplay,w
  1667  1743  1903               	skipnz
  1668  1744  2F46               	goto	u5151
  1669  1745  2F47               	goto	u5150
  1670  1746                     u5151:
  1671  1746  2F5E               	goto	l3298
  1672  1747                     u5150:
  1673  1747                     l3292:
  1674                           
  1675                           ;main.c: 272:     {;main.c: 273:         SendLCD(0x01,0x00);
  1676  1747  01F3               	clrf	SendLCD@type
  1677  1748  3001               	movlw	1
  1678  1749  160A  118A  2706  160A  118A  	fcall	_SendLCD
  1679  174E                     l3294:
  1680                           
  1681                           ;main.c: 274:         SendLCDString(displays[currentDisplay]);
  1682  174E  0878               	movf	_currentDisplay,w
  1683  174F  3EA0               	addlw	(low (_displays| 0))& (0+255)
  1684  1750  0084               	movwf	4
  1685  1751  1383               	bcf	3,7	;select IRP bank1
  1686  1752  0800               	movf	0,w
  1687  1753  120A  158A  2154  160A  118A  	fcall	_SendLCDString
  1688  1758                     l3296:
  1689                           
  1690                           ;main.c: 275:         oldDisplay = currentDisplay;
  1691  1758  0878               	movf	_currentDisplay,w
  1692  1759  1283               	bcf	3,5	;RP0=0, select bank0
  1693  175A  1303               	bcf	3,6	;RP1=0, select bank0
  1694  175B  00CD               	movwf	??_ManageDisplays
  1695  175C  084D               	movf	??_ManageDisplays,w
  1696  175D  00DF               	movwf	_oldDisplay
  1697  175E                     l3298:
  1698                           
  1699                           ;main.c: 277:     if(currentDisplay == 3)
  1700  175E  3003               	movlw	3
  1701  175F  0678               	xorwf	_currentDisplay,w
  1702  1760  1D03               	btfss	3,2
  1703  1761  2F63               	goto	u5161
  1704  1762  2F64               	goto	u5160
  1705  1763                     u5161:
  1706  1763  2F72               	goto	l165
  1707  1764                     u5160:
  1708  1764                     l3300:
  1709                           
  1710                           ;main.c: 278:             UpdateLCDViewWithNumber(0xC6,setTemp);
  1711  1764  0869               	movf	_setTemp+3,w
  1712  1765  00C3               	movwf	UpdateLCDViewWithNumber@number+3
  1713  1766  0868               	movf	_setTemp+2,w
  1714  1767  00C2               	movwf	UpdateLCDViewWithNumber@number+2
  1715  1768  0867               	movf	_setTemp+1,w
  1716  1769  00C1               	movwf	UpdateLCDViewWithNumber@number+1
  1717  176A  0866               	movf	_setTemp,w
  1718  176B  00C0               	movwf	UpdateLCDViewWithNumber@number
  1719  176C  30C6               	movlw	198
  1720  176D  120A  158A  2611  160A  118A  	fcall	_UpdateLCDViewWithNumber
  1721  1772                     l165:
  1722  1772  0008               	return
  1723  1773                     __end_of_ManageDisplays:
  1724                           
  1725                           	psect	text6
  1726  0E11                     __ptext6:	
  1727 ;; *************** function _UpdateLCDViewWithNumber *****************
  1728 ;; Defined at:
  1729 ;;		line 357 in file "main.c"
  1730 ;; Parameters:    Size  Location     Type
  1731 ;;  position        1    wreg     unsigned char 
  1732 ;;  number          4   32[BANK0 ] float 
  1733 ;; Auto vars:     Size  Location     Type
  1734 ;;  position        1   40[BANK0 ] unsigned char 
  1735 ;;  tens            1   44[BANK0 ] unsigned char 
  1736 ;;  hundreds        1   43[BANK0 ] unsigned char 
  1737 ;;  unit            1   42[BANK0 ] unsigned char 
  1738 ;;  decimal         1   41[BANK0 ] unsigned char 
  1739 ;; Return value:  Size  Location     Type
  1740 ;;                  1    wreg      void 
  1741 ;; Registers used:
  1742 ;;		wreg, status,2, status,0, btemp+1, pclath, cstack
  1743 ;; Tracked objects:
  1744 ;;		On entry : 0/0
  1745 ;;		On exit  : 0/0
  1746 ;;		Unchanged: 0/0
  1747 ;; Data sizes:     COMMON   BANK0   BANK1   BANK3   BANK2
  1748 ;;      Params:         0       4       0       0       0
  1749 ;;      Locals:         0       5       0       0       0
  1750 ;;      Temps:          0       4       0       0       0
  1751 ;;      Totals:         0      13       0       0       0
  1752 ;;Total ram usage:       13 bytes
  1753 ;; Hardware stack levels used: 1
  1754 ;; Hardware stack levels required when called: 3
  1755 ;; This function calls:
  1756 ;;		_SendLCD
  1757 ;;		___fldiv
  1758 ;;		___flge
  1759 ;;		___flmul
  1760 ;;		___flsub
  1761 ;;		___fltol
  1762 ;;		___wmul
  1763 ;;		___xxtofl
  1764 ;; This function is called by:
  1765 ;;		_ManageDisplays
  1766 ;;		_UpdateTempHumDisplay
  1767 ;; This function uses a non-reentrant model
  1768 ;;
  1769                           
  1770                           
  1771                           ;psect for function _UpdateLCDViewWithNumber
  1772  0E11                     _UpdateLCDViewWithNumber:
  1773                           
  1774                           ;incstack = 0
  1775                           ; Regs used in _UpdateLCDViewWithNumber: [wreg+status,2+status,0+btemp+1+pclath+cstack]
  1776                           ;UpdateLCDViewWithNumber@position stored from wreg
  1777  0E11  1283               	bcf	3,5	;RP0=0, select bank0
  1778  0E12  1303               	bcf	3,6	;RP1=0, select bank0
  1779  0E13  00C8               	movwf	UpdateLCDViewWithNumber@position
  1780  0E14                     l3192:
  1781                           
  1782                           ;main.c: 357: void UpdateLCDViewWithNumber(char position, float number);main.c: 358: {;m
      +                          ain.c: 359:     SendLCD(position, 0x00);
  1783  0E14  01F3               	clrf	SendLCD@type
  1784  0E15  0848               	movf	UpdateLCDViewWithNumber@position,w
  1785  0E16  160A  118A  2706  120A  158A  	fcall	_SendLCD
  1786                           
  1787                           ;main.c: 360:     if(number < 0)
  1788  0E1B  1283               	bcf	3,5	;RP0=0, select bank0
  1789  0E1C  1303               	bcf	3,6	;RP1=0, select bank0
  1790  0E1D  0843               	movf	UpdateLCDViewWithNumber@number+3,w
  1791  0E1E  00A3               	movwf	___flge@ff1+3
  1792  0E1F  0842               	movf	UpdateLCDViewWithNumber@number+2,w
  1793  0E20  00A2               	movwf	___flge@ff1+2
  1794  0E21  0841               	movf	UpdateLCDViewWithNumber@number+1,w
  1795  0E22  00A1               	movwf	___flge@ff1+1
  1796  0E23  0840               	movf	UpdateLCDViewWithNumber@number,w
  1797  0E24  00A0               	movwf	___flge@ff1
  1798  0E25  3000               	movlw	0
  1799  0E26  00A7               	movwf	___flge@ff2+3
  1800  0E27  3000               	movlw	0
  1801  0E28  00A6               	movwf	___flge@ff2+2
  1802  0E29  3000               	movlw	0
  1803  0E2A  00A5               	movwf	___flge@ff2+1
  1804  0E2B  3000               	movlw	0
  1805  0E2C  00A4               	movwf	___flge@ff2
  1806  0E2D  120A  158A  2390  120A  158A  	fcall	___flge
  1807  0E32  1803               	btfsc	3,0
  1808  0E33  2E35               	goto	u5031
  1809  0E34  2E36               	goto	u5030
  1810  0E35                     u5031:
  1811  0E35  2E5F               	goto	l3198
  1812  0E36                     u5030:
  1813  0E36                     l3194:
  1814                           
  1815                           ;main.c: 361:     {;main.c: 362:         SendLCD('-', 0x01);
  1816  0E36  01F3               	clrf	SendLCD@type
  1817  0E37  0AF3               	incf	SendLCD@type,f
  1818  0E38  302D               	movlw	45
  1819  0E39  160A  118A  2706  120A  158A  	fcall	_SendLCD
  1820  0E3E                     l3196:
  1821                           
  1822                           ;main.c: 363:         number *= -1;
  1823  0E3E  30BF               	movlw	191
  1824  0E3F  1283               	bcf	3,5	;RP0=0, select bank0
  1825  0E40  1303               	bcf	3,6	;RP1=0, select bank0
  1826  0E41  00A8               	movwf	___flmul@b+3
  1827  0E42  3080               	movlw	128
  1828  0E43  00A7               	movwf	___flmul@b+2
  1829  0E44  3000               	movlw	0
  1830  0E45  00A6               	movwf	___flmul@b+1
  1831  0E46  3000               	movlw	0
  1832  0E47  00A5               	movwf	___flmul@b
  1833  0E48  0843               	movf	UpdateLCDViewWithNumber@number+3,w
  1834  0E49  00AC               	movwf	___flmul@a+3
  1835  0E4A  0842               	movf	UpdateLCDViewWithNumber@number+2,w
  1836  0E4B  00AB               	movwf	___flmul@a+2
  1837  0E4C  0841               	movf	UpdateLCDViewWithNumber@number+1,w
  1838  0E4D  00AA               	movwf	___flmul@a+1
  1839  0E4E  0840               	movf	UpdateLCDViewWithNumber@number,w
  1840  0E4F  00A9               	movwf	___flmul@a
  1841  0E50  120A  118A  2039  120A  158A  	fcall	___flmul
  1842  0E55  1283               	bcf	3,5	;RP0=0, select bank0
  1843  0E56  1303               	bcf	3,6	;RP1=0, select bank0
  1844  0E57  0828               	movf	?___flmul+3,w
  1845  0E58  00C3               	movwf	UpdateLCDViewWithNumber@number+3
  1846  0E59  0827               	movf	?___flmul+2,w
  1847  0E5A  00C2               	movwf	UpdateLCDViewWithNumber@number+2
  1848  0E5B  0826               	movf	?___flmul+1,w
  1849  0E5C  00C1               	movwf	UpdateLCDViewWithNumber@number+1
  1850  0E5D  0825               	movf	?___flmul,w
  1851  0E5E  00C0               	movwf	UpdateLCDViewWithNumber@number
  1852  0E5F                     l3198:
  1853                           
  1854                           ;main.c: 365:     char hundreds = (char)(number/100);
  1855  0E5F  1283               	bcf	3,5	;RP0=0, select bank0
  1856  0E60  1303               	bcf	3,6	;RP1=0, select bank0
  1857  0E61  0843               	movf	UpdateLCDViewWithNumber@number+3,w
  1858  0E62  00A7               	movwf	___fldiv@b+3
  1859  0E63  0842               	movf	UpdateLCDViewWithNumber@number+2,w
  1860  0E64  00A6               	movwf	___fldiv@b+2
  1861  0E65  0841               	movf	UpdateLCDViewWithNumber@number+1,w
  1862  0E66  00A5               	movwf	___fldiv@b+1
  1863  0E67  0840               	movf	UpdateLCDViewWithNumber@number,w
  1864  0E68  00A4               	movwf	___fldiv@b
  1865  0E69  3042               	movlw	66
  1866  0E6A  00A3               	movwf	___fldiv@a+3
  1867  0E6B  30C8               	movlw	200
  1868  0E6C  00A2               	movwf	___fldiv@a+2
  1869  0E6D  3000               	movlw	0
  1870  0E6E  00A1               	movwf	___fldiv@a+1
  1871  0E6F  3000               	movlw	0
  1872  0E70  00A0               	movwf	___fldiv@a
  1873  0E71  120A  158A  2434  120A  158A  	fcall	___fldiv
  1874  0E76  1283               	bcf	3,5	;RP0=0, select bank0
  1875  0E77  1303               	bcf	3,6	;RP1=0, select bank0
  1876  0E78  0823               	movf	?___fldiv+3,w
  1877  0E79  00B8               	movwf	___fltol@f1+3
  1878  0E7A  0822               	movf	?___fldiv+2,w
  1879  0E7B  00B7               	movwf	___fltol@f1+2
  1880  0E7C  0821               	movf	?___fldiv+1,w
  1881  0E7D  00B6               	movwf	___fltol@f1+1
  1882  0E7E  0820               	movf	?___fldiv,w
  1883  0E7F  00B5               	movwf	___fltol@f1
  1884  0E80  120A  158A  228D  120A  158A  	fcall	___fltol
  1885  0E85  1283               	bcf	3,5	;RP0=0, select bank0
  1886  0E86  1303               	bcf	3,6	;RP1=0, select bank0
  1887  0E87  0835               	movf	?___fltol,w
  1888  0E88  00C4               	movwf	??_UpdateLCDViewWithNumber
  1889  0E89  0844               	movf	??_UpdateLCDViewWithNumber,w
  1890  0E8A  00CB               	movwf	UpdateLCDViewWithNumber@hundreds
  1891  0E8B                     l3200:
  1892                           
  1893                           ;main.c: 366:     if(hundreds != 0) SendLCD(hundreds + '0', 0x01);
  1894  0E8B  084B               	movf	UpdateLCDViewWithNumber@hundreds,w
  1895  0E8C  1903               	btfsc	3,2
  1896  0E8D  2E8F               	goto	u5041
  1897  0E8E  2E90               	goto	u5040
  1898  0E8F                     u5041:
  1899  0E8F  2E99               	goto	l3204
  1900  0E90                     u5040:
  1901  0E90                     l3202:
  1902  0E90  01F3               	clrf	SendLCD@type
  1903  0E91  0AF3               	incf	SendLCD@type,f
  1904  0E92  084B               	movf	UpdateLCDViewWithNumber@hundreds,w
  1905  0E93  3E30               	addlw	48
  1906  0E94  160A  118A  2706  120A  158A  	fcall	_SendLCD
  1907  0E99                     l3204:
  1908                           
  1909                           ;main.c: 367:     number -= hundreds*100;
  1910  0E99  3064               	movlw	100
  1911  0E9A  00F5               	movwf	___wmul@multiplicand
  1912  0E9B  3000               	movlw	0
  1913  0E9C  00F6               	movwf	___wmul@multiplicand+1
  1914  0E9D  1283               	bcf	3,5	;RP0=0, select bank0
  1915  0E9E  1303               	bcf	3,6	;RP1=0, select bank0
  1916  0E9F  084B               	movf	UpdateLCDViewWithNumber@hundreds,w
  1917  0EA0  00C4               	movwf	??_UpdateLCDViewWithNumber
  1918  0EA1  01C5               	clrf	??_UpdateLCDViewWithNumber+1
  1919  0EA2  0844               	movf	??_UpdateLCDViewWithNumber,w
  1920  0EA3  00F3               	movwf	___wmul@multiplier
  1921  0EA4  0845               	movf	??_UpdateLCDViewWithNumber+1,w
  1922  0EA5  00F4               	movwf	___wmul@multiplier+1
  1923  0EA6  160A  118A  26DB  120A  158A  	fcall	___wmul
  1924  0EAB  0873               	movf	?___wmul,w
  1925  0EAC  1283               	bcf	3,5	;RP0=0, select bank0
  1926  0EAD  1303               	bcf	3,6	;RP1=0, select bank0
  1927  0EAE  00A2               	movwf	___xxtofl@val
  1928  0EAF  0874               	movf	?___wmul+1,w
  1929  0EB0  00A3               	movwf	___xxtofl@val+1
  1930  0EB1  3000               	movlw	0
  1931  0EB2  1BA3               	btfsc	___xxtofl@val+1,7
  1932  0EB3  30FF               	movlw	255
  1933  0EB4  00A4               	movwf	___xxtofl@val+2
  1934  0EB5  00A5               	movwf	___xxtofl@val+3
  1935  0EB6  3001               	movlw	1
  1936  0EB7  120A  118A  26EF  120A  158A  	fcall	___xxtofl
  1937  0EBC  1283               	bcf	3,5	;RP0=0, select bank0
  1938  0EBD  1303               	bcf	3,6	;RP1=0, select bank0
  1939  0EBE  0825               	movf	?___xxtofl+3,w
  1940  0EBF  00B3               	movwf	___flsub@a+3
  1941  0EC0  0824               	movf	?___xxtofl+2,w
  1942  0EC1  00B2               	movwf	___flsub@a+2
  1943  0EC2  0823               	movf	?___xxtofl+1,w
  1944  0EC3  00B1               	movwf	___flsub@a+1
  1945  0EC4  0822               	movf	?___xxtofl,w
  1946  0EC5  00B0               	movwf	___flsub@a
  1947  0EC6  0843               	movf	UpdateLCDViewWithNumber@number+3,w
  1948  0EC7  00B7               	movwf	___flsub@b+3
  1949  0EC8  0842               	movf	UpdateLCDViewWithNumber@number+2,w
  1950  0EC9  00B6               	movwf	___flsub@b+2
  1951  0ECA  0841               	movf	UpdateLCDViewWithNumber@number+1,w
  1952  0ECB  00B5               	movwf	___flsub@b+1
  1953  0ECC  0840               	movf	UpdateLCDViewWithNumber@number,w
  1954  0ECD  00B4               	movwf	___flsub@b
  1955  0ECE  160A  118A  2665  120A  158A  	fcall	___flsub
  1956  0ED3  1283               	bcf	3,5	;RP0=0, select bank0
  1957  0ED4  1303               	bcf	3,6	;RP1=0, select bank0
  1958  0ED5  0833               	movf	?___flsub+3,w
  1959  0ED6  00C3               	movwf	UpdateLCDViewWithNumber@number+3
  1960  0ED7  0832               	movf	?___flsub+2,w
  1961  0ED8  00C2               	movwf	UpdateLCDViewWithNumber@number+2
  1962  0ED9  0831               	movf	?___flsub+1,w
  1963  0EDA  00C1               	movwf	UpdateLCDViewWithNumber@number+1
  1964  0EDB  0830               	movf	?___flsub,w
  1965  0EDC  00C0               	movwf	UpdateLCDViewWithNumber@number
  1966  0EDD                     l3206:
  1967                           
  1968                           ;main.c: 368:     char tens = (char)(number/10);
  1969  0EDD  0843               	movf	UpdateLCDViewWithNumber@number+3,w
  1970  0EDE  00A7               	movwf	___fldiv@b+3
  1971  0EDF  0842               	movf	UpdateLCDViewWithNumber@number+2,w
  1972  0EE0  00A6               	movwf	___fldiv@b+2
  1973  0EE1  0841               	movf	UpdateLCDViewWithNumber@number+1,w
  1974  0EE2  00A5               	movwf	___fldiv@b+1
  1975  0EE3  0840               	movf	UpdateLCDViewWithNumber@number,w
  1976  0EE4  00A4               	movwf	___fldiv@b
  1977  0EE5  3041               	movlw	65
  1978  0EE6  00A3               	movwf	___fldiv@a+3
  1979  0EE7  3020               	movlw	32
  1980  0EE8  00A2               	movwf	___fldiv@a+2
  1981  0EE9  3000               	movlw	0
  1982  0EEA  00A1               	movwf	___fldiv@a+1
  1983  0EEB  3000               	movlw	0
  1984  0EEC  00A0               	movwf	___fldiv@a
  1985  0EED  120A  158A  2434  120A  158A  	fcall	___fldiv
  1986  0EF2  1283               	bcf	3,5	;RP0=0, select bank0
  1987  0EF3  1303               	bcf	3,6	;RP1=0, select bank0
  1988  0EF4  0823               	movf	?___fldiv+3,w
  1989  0EF5  00B8               	movwf	___fltol@f1+3
  1990  0EF6  0822               	movf	?___fldiv+2,w
  1991  0EF7  00B7               	movwf	___fltol@f1+2
  1992  0EF8  0821               	movf	?___fldiv+1,w
  1993  0EF9  00B6               	movwf	___fltol@f1+1
  1994  0EFA  0820               	movf	?___fldiv,w
  1995  0EFB  00B5               	movwf	___fltol@f1
  1996  0EFC  120A  158A  228D  120A  158A  	fcall	___fltol
  1997  0F01  1283               	bcf	3,5	;RP0=0, select bank0
  1998  0F02  1303               	bcf	3,6	;RP1=0, select bank0
  1999  0F03  0835               	movf	?___fltol,w
  2000  0F04  00C4               	movwf	??_UpdateLCDViewWithNumber
  2001  0F05  0844               	movf	??_UpdateLCDViewWithNumber,w
  2002  0F06  00CC               	movwf	UpdateLCDViewWithNumber@tens
  2003  0F07                     l3208:
  2004                           
  2005                           ;main.c: 369:     if(tens != 0) SendLCD(tens + '0', 0x01);
  2006  0F07  084C               	movf	UpdateLCDViewWithNumber@tens,w
  2007  0F08  1903               	btfsc	3,2
  2008  0F09  2F0B               	goto	u5051
  2009  0F0A  2F0C               	goto	u5050
  2010  0F0B                     u5051:
  2011  0F0B  2F15               	goto	l3212
  2012  0F0C                     u5050:
  2013  0F0C                     l3210:
  2014  0F0C  01F3               	clrf	SendLCD@type
  2015  0F0D  0AF3               	incf	SendLCD@type,f
  2016  0F0E  084C               	movf	UpdateLCDViewWithNumber@tens,w
  2017  0F0F  3E30               	addlw	48
  2018  0F10  160A  118A  2706  120A  158A  	fcall	_SendLCD
  2019  0F15                     l3212:
  2020                           
  2021                           ;main.c: 370:     number -= tens * 10;
  2022  0F15  300A               	movlw	10
  2023  0F16  00F5               	movwf	___wmul@multiplicand
  2024  0F17  3000               	movlw	0
  2025  0F18  00F6               	movwf	___wmul@multiplicand+1
  2026  0F19  1283               	bcf	3,5	;RP0=0, select bank0
  2027  0F1A  1303               	bcf	3,6	;RP1=0, select bank0
  2028  0F1B  084C               	movf	UpdateLCDViewWithNumber@tens,w
  2029  0F1C  00C4               	movwf	??_UpdateLCDViewWithNumber
  2030  0F1D  01C5               	clrf	??_UpdateLCDViewWithNumber+1
  2031  0F1E  0844               	movf	??_UpdateLCDViewWithNumber,w
  2032  0F1F  00F3               	movwf	___wmul@multiplier
  2033  0F20  0845               	movf	??_UpdateLCDViewWithNumber+1,w
  2034  0F21  00F4               	movwf	___wmul@multiplier+1
  2035  0F22  160A  118A  26DB  120A  158A  	fcall	___wmul
  2036  0F27  0873               	movf	?___wmul,w
  2037  0F28  1283               	bcf	3,5	;RP0=0, select bank0
  2038  0F29  1303               	bcf	3,6	;RP1=0, select bank0
  2039  0F2A  00A2               	movwf	___xxtofl@val
  2040  0F2B  0874               	movf	?___wmul+1,w
  2041  0F2C  00A3               	movwf	___xxtofl@val+1
  2042  0F2D  3000               	movlw	0
  2043  0F2E  1BA3               	btfsc	___xxtofl@val+1,7
  2044  0F2F  30FF               	movlw	255
  2045  0F30  00A4               	movwf	___xxtofl@val+2
  2046  0F31  00A5               	movwf	___xxtofl@val+3
  2047  0F32  3001               	movlw	1
  2048  0F33  120A  118A  26EF  120A  158A  	fcall	___xxtofl
  2049  0F38  1283               	bcf	3,5	;RP0=0, select bank0
  2050  0F39  1303               	bcf	3,6	;RP1=0, select bank0
  2051  0F3A  0825               	movf	?___xxtofl+3,w
  2052  0F3B  00B3               	movwf	___flsub@a+3
  2053  0F3C  0824               	movf	?___xxtofl+2,w
  2054  0F3D  00B2               	movwf	___flsub@a+2
  2055  0F3E  0823               	movf	?___xxtofl+1,w
  2056  0F3F  00B1               	movwf	___flsub@a+1
  2057  0F40  0822               	movf	?___xxtofl,w
  2058  0F41  00B0               	movwf	___flsub@a
  2059  0F42  0843               	movf	UpdateLCDViewWithNumber@number+3,w
  2060  0F43  00B7               	movwf	___flsub@b+3
  2061  0F44  0842               	movf	UpdateLCDViewWithNumber@number+2,w
  2062  0F45  00B6               	movwf	___flsub@b+2
  2063  0F46  0841               	movf	UpdateLCDViewWithNumber@number+1,w
  2064  0F47  00B5               	movwf	___flsub@b+1
  2065  0F48  0840               	movf	UpdateLCDViewWithNumber@number,w
  2066  0F49  00B4               	movwf	___flsub@b
  2067  0F4A  160A  118A  2665  120A  158A  	fcall	___flsub
  2068  0F4F  1283               	bcf	3,5	;RP0=0, select bank0
  2069  0F50  1303               	bcf	3,6	;RP1=0, select bank0
  2070  0F51  0833               	movf	?___flsub+3,w
  2071  0F52  00C3               	movwf	UpdateLCDViewWithNumber@number+3
  2072  0F53  0832               	movf	?___flsub+2,w
  2073  0F54  00C2               	movwf	UpdateLCDViewWithNumber@number+2
  2074  0F55  0831               	movf	?___flsub+1,w
  2075  0F56  00C1               	movwf	UpdateLCDViewWithNumber@number+1
  2076  0F57  0830               	movf	?___flsub,w
  2077  0F58  00C0               	movwf	UpdateLCDViewWithNumber@number
  2078  0F59                     l3214:
  2079                           
  2080                           ;main.c: 371:     char unit = (char)(number/1);
  2081  0F59  0843               	movf	UpdateLCDViewWithNumber@number+3,w
  2082  0F5A  00A7               	movwf	___fldiv@b+3
  2083  0F5B  0842               	movf	UpdateLCDViewWithNumber@number+2,w
  2084  0F5C  00A6               	movwf	___fldiv@b+2
  2085  0F5D  0841               	movf	UpdateLCDViewWithNumber@number+1,w
  2086  0F5E  00A5               	movwf	___fldiv@b+1
  2087  0F5F  0840               	movf	UpdateLCDViewWithNumber@number,w
  2088  0F60  00A4               	movwf	___fldiv@b
  2089  0F61  303F               	movlw	63
  2090  0F62  00A3               	movwf	___fldiv@a+3
  2091  0F63  3080               	movlw	128
  2092  0F64  00A2               	movwf	___fldiv@a+2
  2093  0F65  3000               	movlw	0
  2094  0F66  00A1               	movwf	___fldiv@a+1
  2095  0F67  3000               	movlw	0
  2096  0F68  00A0               	movwf	___fldiv@a
  2097  0F69  120A  158A  2434  120A  158A  	fcall	___fldiv
  2098  0F6E  1283               	bcf	3,5	;RP0=0, select bank0
  2099  0F6F  1303               	bcf	3,6	;RP1=0, select bank0
  2100  0F70  0823               	movf	?___fldiv+3,w
  2101  0F71  00B8               	movwf	___fltol@f1+3
  2102  0F72  0822               	movf	?___fldiv+2,w
  2103  0F73  00B7               	movwf	___fltol@f1+2
  2104  0F74  0821               	movf	?___fldiv+1,w
  2105  0F75  00B6               	movwf	___fltol@f1+1
  2106  0F76  0820               	movf	?___fldiv,w
  2107  0F77  00B5               	movwf	___fltol@f1
  2108  0F78  120A  158A  228D  120A  158A  	fcall	___fltol
  2109  0F7D  1283               	bcf	3,5	;RP0=0, select bank0
  2110  0F7E  1303               	bcf	3,6	;RP1=0, select bank0
  2111  0F7F  0835               	movf	?___fltol,w
  2112  0F80  00C4               	movwf	??_UpdateLCDViewWithNumber
  2113  0F81  0844               	movf	??_UpdateLCDViewWithNumber,w
  2114  0F82  00CA               	movwf	UpdateLCDViewWithNumber@unit
  2115                           
  2116                           ;main.c: 372:     SendLCD(unit + '0', 0x01);
  2117  0F83  01F3               	clrf	SendLCD@type
  2118  0F84  0AF3               	incf	SendLCD@type,f
  2119  0F85  084A               	movf	UpdateLCDViewWithNumber@unit,w
  2120  0F86  3E30               	addlw	48
  2121  0F87  160A  118A  2706  120A  158A  	fcall	_SendLCD
  2122  0F8C                     l3216:
  2123                           
  2124                           ;main.c: 373:     number -= unit;
  2125  0F8C  1283               	bcf	3,5	;RP0=0, select bank0
  2126  0F8D  1303               	bcf	3,6	;RP1=0, select bank0
  2127  0F8E  084A               	movf	UpdateLCDViewWithNumber@unit,w
  2128  0F8F  00C4               	movwf	??_UpdateLCDViewWithNumber
  2129  0F90  01C5               	clrf	??_UpdateLCDViewWithNumber+1
  2130  0F91  01C6               	clrf	??_UpdateLCDViewWithNumber+2
  2131  0F92  01C7               	clrf	??_UpdateLCDViewWithNumber+3
  2132  0F93  0847               	movf	??_UpdateLCDViewWithNumber+3,w
  2133  0F94  00A5               	movwf	___xxtofl@val+3
  2134  0F95  0846               	movf	??_UpdateLCDViewWithNumber+2,w
  2135  0F96  00A4               	movwf	___xxtofl@val+2
  2136  0F97  0845               	movf	??_UpdateLCDViewWithNumber+1,w
  2137  0F98  00A3               	movwf	___xxtofl@val+1
  2138  0F99  0844               	movf	??_UpdateLCDViewWithNumber,w
  2139  0F9A  00A2               	movwf	___xxtofl@val
  2140  0F9B  3001               	movlw	1
  2141  0F9C  120A  118A  26EF  120A  158A  	fcall	___xxtofl
  2142  0FA1  1283               	bcf	3,5	;RP0=0, select bank0
  2143  0FA2  1303               	bcf	3,6	;RP1=0, select bank0
  2144  0FA3  0825               	movf	?___xxtofl+3,w
  2145  0FA4  00B3               	movwf	___flsub@a+3
  2146  0FA5  0824               	movf	?___xxtofl+2,w
  2147  0FA6  00B2               	movwf	___flsub@a+2
  2148  0FA7  0823               	movf	?___xxtofl+1,w
  2149  0FA8  00B1               	movwf	___flsub@a+1
  2150  0FA9  0822               	movf	?___xxtofl,w
  2151  0FAA  00B0               	movwf	___flsub@a
  2152  0FAB  0843               	movf	UpdateLCDViewWithNumber@number+3,w
  2153  0FAC  00B7               	movwf	___flsub@b+3
  2154  0FAD  0842               	movf	UpdateLCDViewWithNumber@number+2,w
  2155  0FAE  00B6               	movwf	___flsub@b+2
  2156  0FAF  0841               	movf	UpdateLCDViewWithNumber@number+1,w
  2157  0FB0  00B5               	movwf	___flsub@b+1
  2158  0FB1  0840               	movf	UpdateLCDViewWithNumber@number,w
  2159  0FB2  00B4               	movwf	___flsub@b
  2160  0FB3  160A  118A  2665  120A  158A  	fcall	___flsub
  2161  0FB8  1283               	bcf	3,5	;RP0=0, select bank0
  2162  0FB9  1303               	bcf	3,6	;RP1=0, select bank0
  2163  0FBA  0833               	movf	?___flsub+3,w
  2164  0FBB  00C3               	movwf	UpdateLCDViewWithNumber@number+3
  2165  0FBC  0832               	movf	?___flsub+2,w
  2166  0FBD  00C2               	movwf	UpdateLCDViewWithNumber@number+2
  2167  0FBE  0831               	movf	?___flsub+1,w
  2168  0FBF  00C1               	movwf	UpdateLCDViewWithNumber@number+1
  2169  0FC0  0830               	movf	?___flsub,w
  2170  0FC1  00C0               	movwf	UpdateLCDViewWithNumber@number
  2171  0FC2                     l3218:
  2172                           
  2173                           ;main.c: 374:     char decimal = (char)(number/0.1);
  2174  0FC2  0843               	movf	UpdateLCDViewWithNumber@number+3,w
  2175  0FC3  00A7               	movwf	___fldiv@b+3
  2176  0FC4  0842               	movf	UpdateLCDViewWithNumber@number+2,w
  2177  0FC5  00A6               	movwf	___fldiv@b+2
  2178  0FC6  0841               	movf	UpdateLCDViewWithNumber@number+1,w
  2179  0FC7  00A5               	movwf	___fldiv@b+1
  2180  0FC8  0840               	movf	UpdateLCDViewWithNumber@number,w
  2181  0FC9  00A4               	movwf	___fldiv@b
  2182  0FCA  303D               	movlw	61
  2183  0FCB  00A3               	movwf	___fldiv@a+3
  2184  0FCC  30CC               	movlw	204
  2185  0FCD  00A2               	movwf	___fldiv@a+2
  2186  0FCE  30CC               	movlw	204
  2187  0FCF  00A1               	movwf	___fldiv@a+1
  2188  0FD0  30CD               	movlw	205
  2189  0FD1  00A0               	movwf	___fldiv@a
  2190  0FD2  120A  158A  2434  120A  158A  	fcall	___fldiv
  2191  0FD7  1283               	bcf	3,5	;RP0=0, select bank0
  2192  0FD8  1303               	bcf	3,6	;RP1=0, select bank0
  2193  0FD9  0823               	movf	?___fldiv+3,w
  2194  0FDA  00B8               	movwf	___fltol@f1+3
  2195  0FDB  0822               	movf	?___fldiv+2,w
  2196  0FDC  00B7               	movwf	___fltol@f1+2
  2197  0FDD  0821               	movf	?___fldiv+1,w
  2198  0FDE  00B6               	movwf	___fltol@f1+1
  2199  0FDF  0820               	movf	?___fldiv,w
  2200  0FE0  00B5               	movwf	___fltol@f1
  2201  0FE1  120A  158A  228D  120A  158A  	fcall	___fltol
  2202  0FE6  1283               	bcf	3,5	;RP0=0, select bank0
  2203  0FE7  1303               	bcf	3,6	;RP1=0, select bank0
  2204  0FE8  0835               	movf	?___fltol,w
  2205  0FE9  00C4               	movwf	??_UpdateLCDViewWithNumber
  2206  0FEA  0844               	movf	??_UpdateLCDViewWithNumber,w
  2207  0FEB  00C9               	movwf	UpdateLCDViewWithNumber@decimal
  2208                           
  2209                           ;main.c: 375:     SendLCD('.', 0x01);
  2210  0FEC  01F3               	clrf	SendLCD@type
  2211  0FED  0AF3               	incf	SendLCD@type,f
  2212  0FEE  302E               	movlw	46
  2213  0FEF  160A  118A  2706  120A  158A  	fcall	_SendLCD
  2214                           
  2215                           ;main.c: 376:     SendLCD(decimal + '0', 0x01);
  2216  0FF4  01F3               	clrf	SendLCD@type
  2217  0FF5  0AF3               	incf	SendLCD@type,f
  2218  0FF6  1283               	bcf	3,5	;RP0=0, select bank0
  2219  0FF7  1303               	bcf	3,6	;RP1=0, select bank0
  2220  0FF8  0849               	movf	UpdateLCDViewWithNumber@decimal,w
  2221  0FF9  3E30               	addlw	48
  2222  0FFA  160A  118A  2706  120A  158A  	fcall	_SendLCD
  2223  0FFF                     l207:
  2224  0FFF  0008               	return
  2225  1000                     __end_of_UpdateLCDViewWithNumber:
  2226                           
  2227                           	psect	text7
  2228  06EF                     __ptext7:	
  2229 ;; *************** function ___xxtofl *****************
  2230 ;; Defined at:
  2231 ;;		line 10 in file "C:\Program Files\Microchip\xc8\v2.32\pic\sources\c90\common\xxtofl.c"
  2232 ;; Parameters:    Size  Location     Type
  2233 ;;  sign            1    wreg     unsigned char 
  2234 ;;  val             4    2[BANK0 ] long 
  2235 ;; Auto vars:     Size  Location     Type
  2236 ;;  sign            1   10[BANK0 ] unsigned char 
  2237 ;;  arg             4   12[BANK0 ] unsigned long 
  2238 ;;  exp             1   11[BANK0 ] unsigned char 
  2239 ;; Return value:  Size  Location     Type
  2240 ;;                  4    2[BANK0 ] unsigned char 
  2241 ;; Registers used:
  2242 ;;		wreg, status,2, status,0
  2243 ;; Tracked objects:
  2244 ;;		On entry : 0/0
  2245 ;;		On exit  : 0/0
  2246 ;;		Unchanged: 0/0
  2247 ;; Data sizes:     COMMON   BANK0   BANK1   BANK3   BANK2
  2248 ;;      Params:         0       4       0       0       0
  2249 ;;      Locals:         0       6       0       0       0
  2250 ;;      Temps:          0       4       0       0       0
  2251 ;;      Totals:         0      14       0       0       0
  2252 ;;Total ram usage:       14 bytes
  2253 ;; Hardware stack levels used: 1
  2254 ;; Hardware stack levels required when called: 1
  2255 ;; This function calls:
  2256 ;;		Nothing
  2257 ;; This function is called by:
  2258 ;;		_HandleKeypadReading
  2259 ;;		_UpdateLCDViewWithNumber
  2260 ;; This function uses a non-reentrant model
  2261 ;;
  2262                           
  2263                           
  2264                           ;psect for function ___xxtofl
  2265  06EF                     ___xxtofl:
  2266                           
  2267                           ;incstack = 0
  2268                           ; Regs used in ___xxtofl: [wreg+status,2+status,0]
  2269                           ;___xxtofl@sign stored from wreg
  2270  06EF  1283               	bcf	3,5	;RP0=0, select bank0
  2271  06F0  1303               	bcf	3,6	;RP1=0, select bank0
  2272  06F1  00AA               	movwf	___xxtofl@sign
  2273  06F2                     l2370:
  2274  06F2  082A               	movf	___xxtofl@sign,w
  2275  06F3  1903               	btfsc	3,2
  2276  06F4  2EF6               	goto	u3401
  2277  06F5  2EF7               	goto	u3400
  2278  06F6                     u3401:
  2279  06F6  2F0B               	goto	l2376
  2280  06F7                     u3400:
  2281  06F7                     l2372:
  2282  06F7  1FA5               	btfss	___xxtofl@val+3,7
  2283  06F8  2EFA               	goto	u3411
  2284  06F9  2EFB               	goto	u3410
  2285  06FA                     u3411:
  2286  06FA  2F0B               	goto	l2376
  2287  06FB                     u3410:
  2288  06FB                     l2374:
  2289  06FB  0922               	comf	___xxtofl@val,w
  2290  06FC  00AC               	movwf	___xxtofl@arg
  2291  06FD  0923               	comf	___xxtofl@val+1,w
  2292  06FE  00AD               	movwf	___xxtofl@arg+1
  2293  06FF  0924               	comf	___xxtofl@val+2,w
  2294  0700  00AE               	movwf	___xxtofl@arg+2
  2295  0701  0925               	comf	___xxtofl@val+3,w
  2296  0702  00AF               	movwf	___xxtofl@arg+3
  2297  0703  0AAC               	incf	___xxtofl@arg,f
  2298  0704  1903               	skipnz
  2299  0705  0AAD               	incf	___xxtofl@arg+1,f
  2300  0706  1903               	skipnz
  2301  0707  0AAE               	incf	___xxtofl@arg+2,f
  2302  0708  1903               	skipnz
  2303  0709  0AAF               	incf	___xxtofl@arg+3,f
  2304  070A  2F13               	goto	l731
  2305  070B                     l2376:
  2306  070B  0825               	movf	___xxtofl@val+3,w
  2307  070C  00AF               	movwf	___xxtofl@arg+3
  2308  070D  0824               	movf	___xxtofl@val+2,w
  2309  070E  00AE               	movwf	___xxtofl@arg+2
  2310  070F  0823               	movf	___xxtofl@val+1,w
  2311  0710  00AD               	movwf	___xxtofl@arg+1
  2312  0711  0822               	movf	___xxtofl@val,w
  2313  0712  00AC               	movwf	___xxtofl@arg
  2314  0713                     l731:
  2315  0713  0825               	movf	___xxtofl@val+3,w
  2316  0714  0424               	iorwf	___xxtofl@val+2,w
  2317  0715  0423               	iorwf	___xxtofl@val+1,w
  2318  0716  0422               	iorwf	___xxtofl@val,w
  2319  0717  1D03               	skipz
  2320  0718  2F1A               	goto	u3421
  2321  0719  2F1B               	goto	u3420
  2322  071A                     u3421:
  2323  071A  2F24               	goto	l2382
  2324  071B                     u3420:
  2325  071B                     l2378:
  2326  071B  3000               	movlw	0
  2327  071C  00A5               	movwf	?___xxtofl+3
  2328  071D  3000               	movlw	0
  2329  071E  00A4               	movwf	?___xxtofl+2
  2330  071F  3000               	movlw	0
  2331  0720  00A3               	movwf	?___xxtofl+1
  2332  0721  3000               	movlw	0
  2333  0722  00A2               	movwf	?___xxtofl
  2334  0723  2FAA               	goto	l733
  2335  0724                     l2382:
  2336  0724  3096               	movlw	150
  2337  0725  00A6               	movwf	??___xxtofl
  2338  0726  0826               	movf	??___xxtofl,w
  2339  0727  00AB               	movwf	___xxtofl@exp
  2340  0728  2F36               	goto	l2386
  2341  0729                     l2384:
  2342  0729  3001               	movlw	1
  2343  072A  00A6               	movwf	??___xxtofl
  2344  072B  0826               	movf	??___xxtofl,w
  2345  072C  07AB               	addwf	___xxtofl@exp,f
  2346  072D  3001               	movlw	1
  2347  072E                     u3435:
  2348  072E  1003               	clrc
  2349  072F  0CAF               	rrf	___xxtofl@arg+3,f
  2350  0730  0CAE               	rrf	___xxtofl@arg+2,f
  2351  0731  0CAD               	rrf	___xxtofl@arg+1,f
  2352  0732  0CAC               	rrf	___xxtofl@arg,f
  2353  0733  3EFF               	addlw	-1
  2354  0734  1D03               	skipz
  2355  0735  2F2E               	goto	u3435
  2356  0736                     l2386:
  2357  0736  30FE               	movlw	254
  2358  0737  052F               	andwf	___xxtofl@arg+3,w
  2359  0738  1D03               	btfss	3,2
  2360  0739  2F3B               	goto	u3441
  2361  073A  2F3C               	goto	u3440
  2362  073B                     u3441:
  2363  073B  2F29               	goto	l2384
  2364  073C                     u3440:
  2365  073C  2F58               	goto	l737
  2366  073D                     l2388:
  2367  073D  3001               	movlw	1
  2368  073E  00A6               	movwf	??___xxtofl
  2369  073F  0826               	movf	??___xxtofl,w
  2370  0740  07AB               	addwf	___xxtofl@exp,f
  2371  0741                     l2390:
  2372  0741  3001               	movlw	1
  2373  0742  07AC               	addwf	___xxtofl@arg,f
  2374  0743  3000               	movlw	0
  2375  0744  1803               	skipnc
  2376  0745  3001               	movlw	1
  2377  0746  07AD               	addwf	___xxtofl@arg+1,f
  2378  0747  3000               	movlw	0
  2379  0748  1803               	skipnc
  2380  0749  3001               	movlw	1
  2381  074A  07AE               	addwf	___xxtofl@arg+2,f
  2382  074B  3000               	movlw	0
  2383  074C  1803               	skipnc
  2384  074D  3001               	movlw	1
  2385  074E  07AF               	addwf	___xxtofl@arg+3,f
  2386  074F                     l2392:
  2387  074F  3001               	movlw	1
  2388  0750                     u3455:
  2389  0750  1003               	clrc
  2390  0751  0CAF               	rrf	___xxtofl@arg+3,f
  2391  0752  0CAE               	rrf	___xxtofl@arg+2,f
  2392  0753  0CAD               	rrf	___xxtofl@arg+1,f
  2393  0754  0CAC               	rrf	___xxtofl@arg,f
  2394  0755  3EFF               	addlw	-1
  2395  0756  1D03               	skipz
  2396  0757  2F50               	goto	u3455
  2397  0758                     l737:
  2398  0758  30FF               	movlw	255
  2399  0759  052F               	andwf	___xxtofl@arg+3,w
  2400  075A  1D03               	btfss	3,2
  2401  075B  2F5D               	goto	u3461
  2402  075C  2F5E               	goto	u3460
  2403  075D                     u3461:
  2404  075D  2F3D               	goto	l2388
  2405  075E                     u3460:
  2406  075E  2F6A               	goto	l2396
  2407  075F                     l2394:
  2408  075F  3001               	movlw	1
  2409  0760  02AB               	subwf	___xxtofl@exp,f
  2410  0761  3001               	movlw	1
  2411  0762  00A6               	movwf	??___xxtofl
  2412  0763                     u3475:
  2413  0763  1003               	clrc
  2414  0764  0DAC               	rlf	___xxtofl@arg,f
  2415  0765  0DAD               	rlf	___xxtofl@arg+1,f
  2416  0766  0DAE               	rlf	___xxtofl@arg+2,f
  2417  0767  0DAF               	rlf	___xxtofl@arg+3,f
  2418  0768  0BA6               	decfsz	??___xxtofl,f
  2419  0769  2F63               	goto	u3475
  2420  076A                     l2396:
  2421  076A  1BAE               	btfsc	___xxtofl@arg+2,7
  2422  076B  2F6D               	goto	u3481
  2423  076C  2F6E               	goto	u3480
  2424  076D                     u3481:
  2425  076D  2F74               	goto	l744
  2426  076E                     u3480:
  2427  076E                     l2398:
  2428  076E  3002               	movlw	2
  2429  076F  022B               	subwf	___xxtofl@exp,w
  2430  0770  1803               	skipnc
  2431  0771  2F73               	goto	u3491
  2432  0772  2F74               	goto	u3490
  2433  0773                     u3491:
  2434  0773  2F5F               	goto	l2394
  2435  0774                     u3490:
  2436  0774                     l744:
  2437  0774  182B               	btfsc	___xxtofl@exp,0
  2438  0775  2F77               	goto	u3501
  2439  0776  2F78               	goto	u3500
  2440  0777                     u3501:
  2441  0777  2F80               	goto	l745
  2442  0778                     u3500:
  2443  0778                     l2400:
  2444  0778  30FF               	movlw	255
  2445  0779  05AC               	andwf	___xxtofl@arg,f
  2446  077A  30FF               	movlw	255
  2447  077B  05AD               	andwf	___xxtofl@arg+1,f
  2448  077C  307F               	movlw	127
  2449  077D  05AE               	andwf	___xxtofl@arg+2,f
  2450  077E  30FF               	movlw	255
  2451  077F  05AF               	andwf	___xxtofl@arg+3,f
  2452  0780                     l745:
  2453  0780  1003               	clrc
  2454  0781  0CAB               	rrf	___xxtofl@exp,f
  2455  0782                     l2402:
  2456  0782  082B               	movf	___xxtofl@exp,w
  2457  0783  00A6               	movwf	??___xxtofl
  2458  0784  01A7               	clrf	??___xxtofl+1
  2459  0785  01A8               	clrf	??___xxtofl+2
  2460  0786  01A9               	clrf	??___xxtofl+3
  2461  0787  3018               	movlw	24
  2462  0788                     u3515:
  2463  0788  1003               	clrc
  2464  0789  0DA6               	rlf	??___xxtofl,f
  2465  078A  0DA7               	rlf	??___xxtofl+1,f
  2466  078B  0DA8               	rlf	??___xxtofl+2,f
  2467  078C  0DA9               	rlf	??___xxtofl+3,f
  2468  078D                     u3510:
  2469  078D  3EFF               	addlw	-1
  2470  078E  1D03               	skipz
  2471  078F  2F88               	goto	u3515
  2472  0790  0826               	movf	??___xxtofl,w
  2473  0791  04AC               	iorwf	___xxtofl@arg,f
  2474  0792  0827               	movf	??___xxtofl+1,w
  2475  0793  04AD               	iorwf	___xxtofl@arg+1,f
  2476  0794  0828               	movf	??___xxtofl+2,w
  2477  0795  04AE               	iorwf	___xxtofl@arg+2,f
  2478  0796  0829               	movf	??___xxtofl+3,w
  2479  0797  04AF               	iorwf	___xxtofl@arg+3,f
  2480  0798                     l2404:
  2481  0798  082A               	movf	___xxtofl@sign,w
  2482  0799  1903               	btfsc	3,2
  2483  079A  2F9C               	goto	u3521
  2484  079B  2F9D               	goto	u3520
  2485  079C                     u3521:
  2486  079C  2FA2               	goto	l2410
  2487  079D                     u3520:
  2488  079D                     l2406:
  2489  079D  1FA5               	btfss	___xxtofl@val+3,7
  2490  079E  2FA0               	goto	u3531
  2491  079F  2FA1               	goto	u3530
  2492  07A0                     u3531:
  2493  07A0  2FA2               	goto	l2410
  2494  07A1                     u3530:
  2495  07A1                     l2408:
  2496  07A1  17AF               	bsf	___xxtofl@arg+3,7
  2497  07A2                     l2410:
  2498  07A2  082F               	movf	___xxtofl@arg+3,w
  2499  07A3  00A5               	movwf	?___xxtofl+3
  2500  07A4  082E               	movf	___xxtofl@arg+2,w
  2501  07A5  00A4               	movwf	?___xxtofl+2
  2502  07A6  082D               	movf	___xxtofl@arg+1,w
  2503  07A7  00A3               	movwf	?___xxtofl+1
  2504  07A8  082C               	movf	___xxtofl@arg,w
  2505  07A9  00A2               	movwf	?___xxtofl
  2506  07AA                     l733:
  2507  07AA  0008               	return
  2508  07AB                     __end_of___xxtofl:
  2509                           
  2510                           	psect	text8
  2511  16DB                     __ptext8:	
  2512 ;; *************** function ___wmul *****************
  2513 ;; Defined at:
  2514 ;;		line 15 in file "C:\Program Files\Microchip\xc8\v2.32\pic\sources\c90\common\Umul16.c"
  2515 ;; Parameters:    Size  Location     Type
  2516 ;;  multiplier      2    3[COMMON] unsigned int 
  2517 ;;  multiplicand    2    5[COMMON] unsigned int 
  2518 ;; Auto vars:     Size  Location     Type
  2519 ;;  product         2    0[BANK0 ] unsigned int 
  2520 ;; Return value:  Size  Location     Type
  2521 ;;                  2    3[COMMON] unsigned int 
  2522 ;; Registers used:
  2523 ;;		wreg, status,2, status,0
  2524 ;; Tracked objects:
  2525 ;;		On entry : 0/0
  2526 ;;		On exit  : 0/0
  2527 ;;		Unchanged: 0/0
  2528 ;; Data sizes:     COMMON   BANK0   BANK1   BANK3   BANK2
  2529 ;;      Params:         4       0       0       0       0
  2530 ;;      Locals:         0       2       0       0       0
  2531 ;;      Temps:          0       0       0       0       0
  2532 ;;      Totals:         4       2       0       0       0
  2533 ;;Total ram usage:        6 bytes
  2534 ;; Hardware stack levels used: 1
  2535 ;; Hardware stack levels required when called: 1
  2536 ;; This function calls:
  2537 ;;		Nothing
  2538 ;; This function is called by:
  2539 ;;		_UpdateLCDViewWithNumber
  2540 ;; This function uses a non-reentrant model
  2541 ;;
  2542                           
  2543                           
  2544                           ;psect for function ___wmul
  2545  16DB                     ___wmul:
  2546  16DB                     l2956:	
  2547                           ;incstack = 0
  2548                           ; Regs used in ___wmul: [wreg+status,2+status,0]
  2549                           
  2550  16DB  1283               	bcf	3,5	;RP0=0, select bank0
  2551  16DC  1303               	bcf	3,6	;RP1=0, select bank0
  2552  16DD  01A0               	clrf	___wmul@product
  2553  16DE  01A1               	clrf	___wmul@product+1
  2554  16DF                     l2958:
  2555  16DF  1C73               	btfss	___wmul@multiplier,0
  2556  16E0  2EE2               	goto	u4501
  2557  16E1  2EE3               	goto	u4500
  2558  16E2                     u4501:
  2559  16E2  2EEB               	goto	l298
  2560  16E3                     u4500:
  2561  16E3                     l2960:
  2562  16E3  0875               	movf	___wmul@multiplicand,w
  2563  16E4  1283               	bcf	3,5	;RP0=0, select bank0
  2564  16E5  1303               	bcf	3,6	;RP1=0, select bank0
  2565  16E6  07A0               	addwf	___wmul@product,f
  2566  16E7  1803               	skipnc
  2567  16E8  0AA1               	incf	___wmul@product+1,f
  2568  16E9  0876               	movf	___wmul@multiplicand+1,w
  2569  16EA  07A1               	addwf	___wmul@product+1,f
  2570  16EB                     l298:
  2571  16EB  3001               	movlw	1
  2572  16EC                     u4515:
  2573  16EC  1003               	clrc
  2574  16ED  0DF5               	rlf	___wmul@multiplicand,f
  2575  16EE  0DF6               	rlf	___wmul@multiplicand+1,f
  2576  16EF  3EFF               	addlw	-1
  2577  16F0  1D03               	skipz
  2578  16F1  2EEC               	goto	u4515
  2579  16F2                     l2962:
  2580  16F2  3001               	movlw	1
  2581  16F3                     u4525:
  2582  16F3  1003               	clrc
  2583  16F4  0CF4               	rrf	___wmul@multiplier+1,f
  2584  16F5  0CF3               	rrf	___wmul@multiplier,f
  2585  16F6  3EFF               	addlw	-1
  2586  16F7  1D03               	skipz
  2587  16F8  2EF3               	goto	u4525
  2588  16F9                     l2964:
  2589  16F9  0873               	movf	___wmul@multiplier,w
  2590  16FA  0474               	iorwf	___wmul@multiplier+1,w
  2591  16FB  1D03               	btfss	3,2
  2592  16FC  2EFE               	goto	u4531
  2593  16FD  2EFF               	goto	u4530
  2594  16FE                     u4531:
  2595  16FE  2EDF               	goto	l2958
  2596  16FF                     u4530:
  2597  16FF                     l2966:
  2598  16FF  1283               	bcf	3,5	;RP0=0, select bank0
  2599  1700  1303               	bcf	3,6	;RP1=0, select bank0
  2600  1701  0821               	movf	___wmul@product+1,w
  2601  1702  00F4               	movwf	?___wmul+1
  2602  1703  0820               	movf	___wmul@product,w
  2603  1704  00F3               	movwf	?___wmul
  2604  1705                     l300:
  2605  1705  0008               	return
  2606  1706                     __end_of___wmul:
  2607                           
  2608                           	psect	text9
  2609  0A8D                     __ptext9:	
  2610 ;; *************** function ___fltol *****************
  2611 ;; Defined at:
  2612 ;;		line 43 in file "C:\Program Files\Microchip\xc8\v2.32\pic\sources\c90\common\fltol.c"
  2613 ;; Parameters:    Size  Location     Type
  2614 ;;  f1              4   21[BANK0 ] unsigned int 
  2615 ;; Auto vars:     Size  Location     Type
  2616 ;;  exp1            1   31[BANK0 ] unsigned char 
  2617 ;;  sign1           1   30[BANK0 ] unsigned char 
  2618 ;; Return value:  Size  Location     Type
  2619 ;;                  4   21[BANK0 ] long 
  2620 ;; Registers used:
  2621 ;;		wreg, status,2, status,0
  2622 ;; Tracked objects:
  2623 ;;		On entry : 0/0
  2624 ;;		On exit  : 0/0
  2625 ;;		Unchanged: 0/0
  2626 ;; Data sizes:     COMMON   BANK0   BANK1   BANK3   BANK2
  2627 ;;      Params:         0       4       0       0       0
  2628 ;;      Locals:         0       2       0       0       0
  2629 ;;      Temps:          0       5       0       0       0
  2630 ;;      Totals:         0      11       0       0       0
  2631 ;;Total ram usage:       11 bytes
  2632 ;; Hardware stack levels used: 1
  2633 ;; Hardware stack levels required when called: 1
  2634 ;; This function calls:
  2635 ;;		Nothing
  2636 ;; This function is called by:
  2637 ;;		_UpdateLCDViewWithNumber
  2638 ;; This function uses a non-reentrant model
  2639 ;;
  2640                           
  2641                           
  2642                           ;psect for function ___fltol
  2643  0A8D                     ___fltol:
  2644  0A8D                     l2046:	
  2645                           ;incstack = 0
  2646                           ; Regs used in ___fltol: [wreg+status,2+status,0]
  2647                           
  2648  0A8D  1003               	clrc
  2649  0A8E  1283               	bcf	3,5	;RP0=0, select bank0
  2650  0A8F  1303               	bcf	3,6	;RP1=0, select bank0
  2651  0A90  0D37               	rlf	___fltol@f1+2,w
  2652  0A91  0D38               	rlf	___fltol@f1+3,w
  2653  0A92  00B9               	movwf	??___fltol
  2654  0A93  0839               	movf	??___fltol,w
  2655  0A94  00BF               	movwf	___fltol@exp1
  2656  0A95  083F               	movf	___fltol@exp1,w
  2657  0A96  1D03               	btfss	3,2
  2658  0A97  2A99               	goto	u2631
  2659  0A98  2A9A               	goto	u2630
  2660  0A99                     u2631:
  2661  0A99  2AA3               	goto	l2052
  2662  0A9A                     u2630:
  2663  0A9A                     l2048:
  2664  0A9A  3000               	movlw	0
  2665  0A9B  00B8               	movwf	?___fltol+3
  2666  0A9C  3000               	movlw	0
  2667  0A9D  00B7               	movwf	?___fltol+2
  2668  0A9E  3000               	movlw	0
  2669  0A9F  00B6               	movwf	?___fltol+1
  2670  0AA0  3000               	movlw	0
  2671  0AA1  00B5               	movwf	?___fltol
  2672  0AA2  2B08               	goto	l484
  2673  0AA3                     l2052:
  2674  0AA3  0835               	movf	___fltol@f1,w
  2675  0AA4  00B9               	movwf	??___fltol
  2676  0AA5  0836               	movf	___fltol@f1+1,w
  2677  0AA6  00BA               	movwf	??___fltol+1
  2678  0AA7  0837               	movf	___fltol@f1+2,w
  2679  0AA8  00BB               	movwf	??___fltol+2
  2680  0AA9  0838               	movf	___fltol@f1+3,w
  2681  0AAA  00BC               	movwf	??___fltol+3
  2682  0AAB  301F               	movlw	31
  2683  0AAC                     u2645:
  2684  0AAC  1003               	clrc
  2685  0AAD  0CBC               	rrf	??___fltol+3,f
  2686  0AAE  0CBB               	rrf	??___fltol+2,f
  2687  0AAF  0CBA               	rrf	??___fltol+1,f
  2688  0AB0  0CB9               	rrf	??___fltol,f
  2689  0AB1                     u2640:
  2690  0AB1  3EFF               	addlw	-1
  2691  0AB2  1D03               	skipz
  2692  0AB3  2AAC               	goto	u2645
  2693  0AB4  0839               	movf	??___fltol,w
  2694  0AB5  00BD               	movwf	??___fltol+4
  2695  0AB6  083D               	movf	??___fltol+4,w
  2696  0AB7  00BE               	movwf	___fltol@sign1
  2697  0AB8                     l2054:
  2698  0AB8  17B7               	bsf	___fltol@f1+2,7
  2699  0AB9                     l2056:
  2700  0AB9  30FF               	movlw	255
  2701  0ABA  05B5               	andwf	___fltol@f1,f
  2702  0ABB  30FF               	movlw	255
  2703  0ABC  05B6               	andwf	___fltol@f1+1,f
  2704  0ABD  30FF               	movlw	255
  2705  0ABE  05B7               	andwf	___fltol@f1+2,f
  2706  0ABF  3000               	movlw	0
  2707  0AC0  05B8               	andwf	___fltol@f1+3,f
  2708  0AC1                     l2058:
  2709  0AC1  3096               	movlw	150
  2710  0AC2  02BF               	subwf	___fltol@exp1,f
  2711  0AC3                     l2060:
  2712  0AC3  1FBF               	btfss	___fltol@exp1,7
  2713  0AC4  2AC6               	goto	u2651
  2714  0AC5  2AC7               	goto	u2650
  2715  0AC6                     u2651:
  2716  0AC6  2AE1               	goto	l2070
  2717  0AC7                     u2650:
  2718  0AC7                     l2062:
  2719  0AC7  083F               	movf	___fltol@exp1,w
  2720  0AC8  3A80               	xorlw	128
  2721  0AC9  3E97               	addlw	151
  2722  0ACA  1803               	skipnc
  2723  0ACB  2ACD               	goto	u2661
  2724  0ACC  2ACE               	goto	u2660
  2725  0ACD                     u2661:
  2726  0ACD  2ACF               	goto	l2068
  2727  0ACE                     u2660:
  2728  0ACE  2A9A               	goto	l2048
  2729  0ACF                     l2068:
  2730  0ACF  3001               	movlw	1
  2731  0AD0                     u2675:
  2732  0AD0  1003               	clrc
  2733  0AD1  0CB8               	rrf	___fltol@f1+3,f
  2734  0AD2  0CB7               	rrf	___fltol@f1+2,f
  2735  0AD3  0CB6               	rrf	___fltol@f1+1,f
  2736  0AD4  0CB5               	rrf	___fltol@f1,f
  2737  0AD5  3EFF               	addlw	-1
  2738  0AD6  1D03               	skipz
  2739  0AD7  2AD0               	goto	u2675
  2740  0AD8  3001               	movlw	1
  2741  0AD9  00B9               	movwf	??___fltol
  2742  0ADA  0839               	movf	??___fltol,w
  2743  0ADB  07BF               	addwf	___fltol@exp1,f
  2744  0ADC  1D03               	btfss	3,2
  2745  0ADD  2ADF               	goto	u2681
  2746  0ADE  2AE0               	goto	u2680
  2747  0ADF                     u2681:
  2748  0ADF  2ACF               	goto	l2068
  2749  0AE0                     u2680:
  2750  0AE0  2AF8               	goto	l2078
  2751  0AE1                     l2070:
  2752  0AE1  3020               	movlw	32
  2753  0AE2  023F               	subwf	___fltol@exp1,w
  2754  0AE3  1C03               	skipc
  2755  0AE4  2AE6               	goto	u2691
  2756  0AE5  2AE7               	goto	u2690
  2757  0AE6                     u2691:
  2758  0AE6  2AF3               	goto	l491
  2759  0AE7                     u2690:
  2760  0AE7  2A9A               	goto	l2048
  2761  0AE8                     l2076:
  2762  0AE8  3001               	movlw	1
  2763  0AE9  00B9               	movwf	??___fltol
  2764  0AEA                     u2705:
  2765  0AEA  1003               	clrc
  2766  0AEB  0DB5               	rlf	___fltol@f1,f
  2767  0AEC  0DB6               	rlf	___fltol@f1+1,f
  2768  0AED  0DB7               	rlf	___fltol@f1+2,f
  2769  0AEE  0DB8               	rlf	___fltol@f1+3,f
  2770  0AEF  0BB9               	decfsz	??___fltol,f
  2771  0AF0  2AEA               	goto	u2705
  2772  0AF1  3001               	movlw	1
  2773  0AF2  02BF               	subwf	___fltol@exp1,f
  2774  0AF3                     l491:
  2775  0AF3  083F               	movf	___fltol@exp1,w
  2776  0AF4  1D03               	btfss	3,2
  2777  0AF5  2AF7               	goto	u2711
  2778  0AF6  2AF8               	goto	u2710
  2779  0AF7                     u2711:
  2780  0AF7  2AE8               	goto	l2076
  2781  0AF8                     u2710:
  2782  0AF8                     l2078:
  2783  0AF8  083E               	movf	___fltol@sign1,w
  2784  0AF9  1903               	btfsc	3,2
  2785  0AFA  2AFC               	goto	u2721
  2786  0AFB  2AFD               	goto	u2720
  2787  0AFC                     u2721:
  2788  0AFC  2B08               	goto	l494
  2789  0AFD                     u2720:
  2790  0AFD                     l2080:
  2791  0AFD  09B5               	comf	___fltol@f1,f
  2792  0AFE  09B6               	comf	___fltol@f1+1,f
  2793  0AFF  09B7               	comf	___fltol@f1+2,f
  2794  0B00  09B8               	comf	___fltol@f1+3,f
  2795  0B01  0AB5               	incf	___fltol@f1,f
  2796  0B02  1903               	skipnz
  2797  0B03  0AB6               	incf	___fltol@f1+1,f
  2798  0B04  1903               	skipnz
  2799  0B05  0AB7               	incf	___fltol@f1+2,f
  2800  0B06  1903               	skipnz
  2801  0B07  0AB8               	incf	___fltol@f1+3,f
  2802  0B08                     l494:
  2803  0B08                     l484:
  2804  0B08  0008               	return
  2805  0B09                     __end_of___fltol:
  2806                           
  2807                           	psect	text10
  2808  0039                     __ptext10:	
  2809 ;; *************** function ___flmul *****************
  2810 ;; Defined at:
  2811 ;;		line 8 in file "C:\Program Files\Microchip\xc8\v2.32\pic\sources\c90\common\sprcmul.c"
  2812 ;; Parameters:    Size  Location     Type
  2813 ;;  b               4    5[BANK0 ] long 
  2814 ;;  a               4    9[BANK0 ] long 
  2815 ;; Auto vars:     Size  Location     Type
  2816 ;;  prod            4   25[BANK0 ] struct .
  2817 ;;  grs             4   19[BANK0 ] unsigned long 
  2818 ;;  temp            2   29[BANK0 ] struct .
  2819 ;;  bexp            1   24[BANK0 ] unsigned char 
  2820 ;;  aexp            1   23[BANK0 ] unsigned char 
  2821 ;;  sign            1   18[BANK0 ] unsigned char 
  2822 ;; Return value:  Size  Location     Type
  2823 ;;                  4    5[BANK0 ] unsigned char 
  2824 ;; Registers used:
  2825 ;;		wreg, status,2, status,0, btemp+1, pclath, cstack
  2826 ;; Tracked objects:
  2827 ;;		On entry : 0/0
  2828 ;;		On exit  : 0/0
  2829 ;;		Unchanged: 0/0
  2830 ;; Data sizes:     COMMON   BANK0   BANK1   BANK3   BANK2
  2831 ;;      Params:         0       8       0       0       0
  2832 ;;      Locals:         0      13       0       0       0
  2833 ;;      Temps:          0       5       0       0       0
  2834 ;;      Totals:         0      26       0       0       0
  2835 ;;Total ram usage:       26 bytes
  2836 ;; Hardware stack levels used: 1
  2837 ;; Hardware stack levels required when called: 2
  2838 ;; This function calls:
  2839 ;;		__Umul8_16
  2840 ;; This function is called by:
  2841 ;;		_UpdateLCDViewWithNumber
  2842 ;; This function uses a non-reentrant model
  2843 ;;
  2844                           
  2845                           
  2846                           ;psect for function ___flmul
  2847  0039                     ___flmul:
  2848  0039                     l2230:	
  2849                           ;incstack = 0
  2850                           ; Regs used in ___flmul: [wreg+status,2+status,0+btemp+1+pclath+cstack]
  2851                           
  2852  0039  1283               	bcf	3,5	;RP0=0, select bank0
  2853  003A  1303               	bcf	3,6	;RP1=0, select bank0
  2854  003B  0828               	movf	___flmul@b+3,w
  2855  003C  3980               	andlw	128
  2856  003D  00AD               	movwf	??___flmul
  2857  003E  082D               	movf	??___flmul,w
  2858  003F  00B2               	movwf	___flmul@sign
  2859  0040                     l2232:
  2860  0040  0828               	movf	___flmul@b+3,w
  2861  0041  00AD               	movwf	??___flmul
  2862  0042  072D               	addwf	??___flmul,w
  2863  0043  00AE               	movwf	??___flmul+1
  2864  0044  082E               	movf	??___flmul+1,w
  2865  0045  00B8               	movwf	___flmul@bexp
  2866  0046                     l2234:
  2867  0046  1FA7               	btfss	___flmul@b+2,7
  2868  0047  2849               	goto	u3031
  2869  0048  284A               	goto	u3030
  2870  0049                     u3031:
  2871  0049  284B               	goto	l2238
  2872  004A                     u3030:
  2873  004A                     l2236:
  2874  004A  1438               	bsf	___flmul@bexp,0
  2875  004B                     l2238:
  2876  004B  0838               	movf	___flmul@bexp,w
  2877  004C  1903               	btfsc	3,2
  2878  004D  284F               	goto	u3041
  2879  004E  2850               	goto	u3040
  2880  004F                     u3041:
  2881  004F  285F               	goto	l2246
  2882  0050                     u3040:
  2883  0050                     l2240:
  2884  0050  0A38               	incf	___flmul@bexp,w
  2885  0051  1D03               	btfss	3,2
  2886  0052  2854               	goto	u3051
  2887  0053  2855               	goto	u3050
  2888  0054                     u3051:
  2889  0054  285D               	goto	l2244
  2890  0055                     u3050:
  2891  0055                     l2242:
  2892  0055  3000               	movlw	0
  2893  0056  00A8               	movwf	___flmul@b+3
  2894  0057  3000               	movlw	0
  2895  0058  00A7               	movwf	___flmul@b+2
  2896  0059  3000               	movlw	0
  2897  005A  00A6               	movwf	___flmul@b+1
  2898  005B  3000               	movlw	0
  2899  005C  00A5               	movwf	___flmul@b
  2900  005D                     l2244:
  2901  005D  17A7               	bsf	___flmul@b+2,7
  2902  005E  2867               	goto	l2248
  2903  005F                     l2246:
  2904  005F  3000               	movlw	0
  2905  0060  00A8               	movwf	___flmul@b+3
  2906  0061  3000               	movlw	0
  2907  0062  00A7               	movwf	___flmul@b+2
  2908  0063  3000               	movlw	0
  2909  0064  00A6               	movwf	___flmul@b+1
  2910  0065  3000               	movlw	0
  2911  0066  00A5               	movwf	___flmul@b
  2912  0067                     l2248:
  2913  0067  082C               	movf	___flmul@a+3,w
  2914  0068  3980               	andlw	128
  2915  0069  00AD               	movwf	??___flmul
  2916  006A  082D               	movf	??___flmul,w
  2917  006B  06B2               	xorwf	___flmul@sign,f
  2918  006C                     l2250:
  2919  006C  082C               	movf	___flmul@a+3,w
  2920  006D  00AD               	movwf	??___flmul
  2921  006E  072D               	addwf	??___flmul,w
  2922  006F  00AE               	movwf	??___flmul+1
  2923  0070  082E               	movf	??___flmul+1,w
  2924  0071  00B7               	movwf	___flmul@aexp
  2925  0072                     l2252:
  2926  0072  1FAB               	btfss	___flmul@a+2,7
  2927  0073  2875               	goto	u3061
  2928  0074  2876               	goto	u3060
  2929  0075                     u3061:
  2930  0075  2877               	goto	l2256
  2931  0076                     u3060:
  2932  0076                     l2254:
  2933  0076  1437               	bsf	___flmul@aexp,0
  2934  0077                     l2256:
  2935  0077  0837               	movf	___flmul@aexp,w
  2936  0078  1903               	btfsc	3,2
  2937  0079  287B               	goto	u3071
  2938  007A  287C               	goto	u3070
  2939  007B                     u3071:
  2940  007B  288B               	goto	l2264
  2941  007C                     u3070:
  2942  007C                     l2258:
  2943  007C  0A37               	incf	___flmul@aexp,w
  2944  007D  1D03               	btfss	3,2
  2945  007E  2880               	goto	u3081
  2946  007F  2881               	goto	u3080
  2947  0080                     u3081:
  2948  0080  2889               	goto	l2262
  2949  0081                     u3080:
  2950  0081                     l2260:
  2951  0081  3000               	movlw	0
  2952  0082  00AC               	movwf	___flmul@a+3
  2953  0083  3000               	movlw	0
  2954  0084  00AB               	movwf	___flmul@a+2
  2955  0085  3000               	movlw	0
  2956  0086  00AA               	movwf	___flmul@a+1
  2957  0087  3000               	movlw	0
  2958  0088  00A9               	movwf	___flmul@a
  2959  0089                     l2262:
  2960  0089  17AB               	bsf	___flmul@a+2,7
  2961  008A  2893               	goto	l2266
  2962  008B                     l2264:
  2963  008B  3000               	movlw	0
  2964  008C  00AC               	movwf	___flmul@a+3
  2965  008D  3000               	movlw	0
  2966  008E  00AB               	movwf	___flmul@a+2
  2967  008F  3000               	movlw	0
  2968  0090  00AA               	movwf	___flmul@a+1
  2969  0091  3000               	movlw	0
  2970  0092  00A9               	movwf	___flmul@a
  2971  0093                     l2266:
  2972  0093  0837               	movf	___flmul@aexp,w
  2973  0094  1903               	btfsc	3,2
  2974  0095  2897               	goto	u3091
  2975  0096  2898               	goto	u3090
  2976  0097                     u3091:
  2977  0097  289D               	goto	l2270
  2978  0098                     u3090:
  2979  0098                     l2268:
  2980  0098  0838               	movf	___flmul@bexp,w
  2981  0099  1D03               	btfss	3,2
  2982  009A  289C               	goto	u3101
  2983  009B  289D               	goto	u3100
  2984  009C                     u3101:
  2985  009C  28A6               	goto	l2274
  2986  009D                     u3100:
  2987  009D                     l2270:
  2988  009D  3000               	movlw	0
  2989  009E  00A8               	movwf	?___flmul+3
  2990  009F  3000               	movlw	0
  2991  00A0  00A7               	movwf	?___flmul+2
  2992  00A1  3000               	movlw	0
  2993  00A2  00A6               	movwf	?___flmul+1
  2994  00A3  3000               	movlw	0
  2995  00A4  00A5               	movwf	?___flmul
  2996  00A5  2B99               	goto	l687
  2997  00A6                     l2274:
  2998  00A6  0825               	movf	___flmul@b,w
  2999  00A7  00AD               	movwf	??___flmul
  3000  00A8  082D               	movf	??___flmul,w
  3001  00A9  00F3               	movwf	__Umul8_16@multiplicand
  3002  00AA  082B               	movf	___flmul@a+2,w
  3003  00AB  160A  118A  26B2  120A  118A  	fcall	__Umul8_16
  3004  00B0  0874               	movf	?__Umul8_16+1,w
  3005  00B1  1283               	bcf	3,5	;RP0=0, select bank0
  3006  00B2  1303               	bcf	3,6	;RP1=0, select bank0
  3007  00B3  00BE               	movwf	___flmul@temp+1
  3008  00B4  0873               	movf	?__Umul8_16,w
  3009  00B5  00BD               	movwf	___flmul@temp
  3010  00B6                     l2276:
  3011  00B6  083D               	movf	___flmul@temp,w
  3012  00B7  00AD               	movwf	??___flmul
  3013  00B8  01AE               	clrf	??___flmul+1
  3014  00B9  01AF               	clrf	??___flmul+2
  3015  00BA  01B0               	clrf	??___flmul+3
  3016  00BB  0830               	movf	??___flmul+3,w
  3017  00BC  00B6               	movwf	___flmul@grs+3
  3018  00BD  082F               	movf	??___flmul+2,w
  3019  00BE  00B5               	movwf	___flmul@grs+2
  3020  00BF  082E               	movf	??___flmul+1,w
  3021  00C0  00B4               	movwf	___flmul@grs+1
  3022  00C1  082D               	movf	??___flmul,w
  3023  00C2  00B3               	movwf	___flmul@grs
  3024  00C3                     l2278:
  3025  00C3  083E               	movf	___flmul@temp+1,w
  3026  00C4  00AD               	movwf	??___flmul
  3027  00C5  01AE               	clrf	??___flmul+1
  3028  00C6  01AF               	clrf	??___flmul+2
  3029  00C7  01B0               	clrf	??___flmul+3
  3030  00C8  0830               	movf	??___flmul+3,w
  3031  00C9  00BC               	movwf	___flmul@prod+3
  3032  00CA  082F               	movf	??___flmul+2,w
  3033  00CB  00BB               	movwf	___flmul@prod+2
  3034  00CC  082E               	movf	??___flmul+1,w
  3035  00CD  00BA               	movwf	___flmul@prod+1
  3036  00CE  082D               	movf	??___flmul,w
  3037  00CF  00B9               	movwf	___flmul@prod
  3038  00D0  0826               	movf	___flmul@b+1,w
  3039  00D1  00AD               	movwf	??___flmul
  3040  00D2  082D               	movf	??___flmul,w
  3041  00D3  00F3               	movwf	__Umul8_16@multiplicand
  3042  00D4  082A               	movf	___flmul@a+1,w
  3043  00D5  160A  118A  26B2  120A  118A  	fcall	__Umul8_16
  3044  00DA  0874               	movf	?__Umul8_16+1,w
  3045  00DB  1283               	bcf	3,5	;RP0=0, select bank0
  3046  00DC  1303               	bcf	3,6	;RP1=0, select bank0
  3047  00DD  00BE               	movwf	___flmul@temp+1
  3048  00DE  0873               	movf	?__Umul8_16,w
  3049  00DF  00BD               	movwf	___flmul@temp
  3050  00E0                     l2280:
  3051  00E0  083D               	movf	___flmul@temp,w
  3052  00E1  00AD               	movwf	??___flmul
  3053  00E2  01AE               	clrf	??___flmul+1
  3054  00E3  01AF               	clrf	??___flmul+2
  3055  00E4  01B0               	clrf	??___flmul+3
  3056  00E5  082D               	movf	??___flmul,w
  3057  00E6  07B3               	addwf	___flmul@grs,f
  3058  00E7  082E               	movf	??___flmul+1,w
  3059  00E8  1103               	clrz
  3060  00E9  1803               	skipnc
  3061  00EA  3E01               	addlw	1
  3062  00EB  1903               	skipnz
  3063  00EC  28EE               	goto	u3111
  3064  00ED  07B4               	addwf	___flmul@grs+1,f
  3065  00EE                     u3111:
  3066  00EE  082F               	movf	??___flmul+2,w
  3067  00EF  1103               	clrz
  3068  00F0  1803               	skipnc
  3069  00F1  3E01               	addlw	1
  3070  00F2  1903               	skipnz
  3071  00F3  28F5               	goto	u3112
  3072  00F4  07B5               	addwf	___flmul@grs+2,f
  3073  00F5                     u3112:
  3074  00F5  0830               	movf	??___flmul+3,w
  3075  00F6  1103               	clrz
  3076  00F7  1803               	skipnc
  3077  00F8  3E01               	addlw	1
  3078  00F9  1903               	skipnz
  3079  00FA  28FC               	goto	u3113
  3080  00FB  07B6               	addwf	___flmul@grs+3,f
  3081  00FC                     u3113:
  3082  00FC                     l2282:
  3083  00FC  083E               	movf	___flmul@temp+1,w
  3084  00FD  00AD               	movwf	??___flmul
  3085  00FE  01AE               	clrf	??___flmul+1
  3086  00FF  01AF               	clrf	??___flmul+2
  3087  0100  01B0               	clrf	??___flmul+3
  3088  0101  082D               	movf	??___flmul,w
  3089  0102  07B9               	addwf	___flmul@prod,f
  3090  0103  082E               	movf	??___flmul+1,w
  3091  0104  1103               	clrz
  3092  0105  1803               	skipnc
  3093  0106  3E01               	addlw	1
  3094  0107  1903               	skipnz
  3095  0108  290A               	goto	u3121
  3096  0109  07BA               	addwf	___flmul@prod+1,f
  3097  010A                     u3121:
  3098  010A  082F               	movf	??___flmul+2,w
  3099  010B  1103               	clrz
  3100  010C  1803               	skipnc
  3101  010D  3E01               	addlw	1
  3102  010E  1903               	skipnz
  3103  010F  2911               	goto	u3122
  3104  0110  07BB               	addwf	___flmul@prod+2,f
  3105  0111                     u3122:
  3106  0111  0830               	movf	??___flmul+3,w
  3107  0112  1103               	clrz
  3108  0113  1803               	skipnc
  3109  0114  3E01               	addlw	1
  3110  0115  1903               	skipnz
  3111  0116  2918               	goto	u3123
  3112  0117  07BC               	addwf	___flmul@prod+3,f
  3113  0118                     u3123:
  3114  0118  0827               	movf	___flmul@b+2,w
  3115  0119  00AD               	movwf	??___flmul
  3116  011A  082D               	movf	??___flmul,w
  3117  011B  00F3               	movwf	__Umul8_16@multiplicand
  3118  011C  0829               	movf	___flmul@a,w
  3119  011D  160A  118A  26B2  120A  118A  	fcall	__Umul8_16
  3120  0122  0874               	movf	?__Umul8_16+1,w
  3121  0123  1283               	bcf	3,5	;RP0=0, select bank0
  3122  0124  1303               	bcf	3,6	;RP1=0, select bank0
  3123  0125  00BE               	movwf	___flmul@temp+1
  3124  0126  0873               	movf	?__Umul8_16,w
  3125  0127  00BD               	movwf	___flmul@temp
  3126  0128                     l2284:
  3127  0128  083D               	movf	___flmul@temp,w
  3128  0129  00AD               	movwf	??___flmul
  3129  012A  01AE               	clrf	??___flmul+1
  3130  012B  01AF               	clrf	??___flmul+2
  3131  012C  01B0               	clrf	??___flmul+3
  3132  012D  082D               	movf	??___flmul,w
  3133  012E  07B3               	addwf	___flmul@grs,f
  3134  012F  082E               	movf	??___flmul+1,w
  3135  0130  1103               	clrz
  3136  0131  1803               	skipnc
  3137  0132  3E01               	addlw	1
  3138  0133  1903               	skipnz
  3139  0134  2936               	goto	u3131
  3140  0135  07B4               	addwf	___flmul@grs+1,f
  3141  0136                     u3131:
  3142  0136  082F               	movf	??___flmul+2,w
  3143  0137  1103               	clrz
  3144  0138  1803               	skipnc
  3145  0139  3E01               	addlw	1
  3146  013A  1903               	skipnz
  3147  013B  293D               	goto	u3132
  3148  013C  07B5               	addwf	___flmul@grs+2,f
  3149  013D                     u3132:
  3150  013D  0830               	movf	??___flmul+3,w
  3151  013E  1103               	clrz
  3152  013F  1803               	skipnc
  3153  0140  3E01               	addlw	1
  3154  0141  1903               	skipnz
  3155  0142  2944               	goto	u3133
  3156  0143  07B6               	addwf	___flmul@grs+3,f
  3157  0144                     u3133:
  3158  0144                     l2286:
  3159  0144  083E               	movf	___flmul@temp+1,w
  3160  0145  00AD               	movwf	??___flmul
  3161  0146  01AE               	clrf	??___flmul+1
  3162  0147  01AF               	clrf	??___flmul+2
  3163  0148  01B0               	clrf	??___flmul+3
  3164  0149  082D               	movf	??___flmul,w
  3165  014A  07B9               	addwf	___flmul@prod,f
  3166  014B  082E               	movf	??___flmul+1,w
  3167  014C  1103               	clrz
  3168  014D  1803               	skipnc
  3169  014E  3E01               	addlw	1
  3170  014F  1903               	skipnz
  3171  0150  2952               	goto	u3141
  3172  0151  07BA               	addwf	___flmul@prod+1,f
  3173  0152                     u3141:
  3174  0152  082F               	movf	??___flmul+2,w
  3175  0153  1103               	clrz
  3176  0154  1803               	skipnc
  3177  0155  3E01               	addlw	1
  3178  0156  1903               	skipnz
  3179  0157  2959               	goto	u3142
  3180  0158  07BB               	addwf	___flmul@prod+2,f
  3181  0159                     u3142:
  3182  0159  0830               	movf	??___flmul+3,w
  3183  015A  1103               	clrz
  3184  015B  1803               	skipnc
  3185  015C  3E01               	addlw	1
  3186  015D  1903               	skipnz
  3187  015E  2960               	goto	u3143
  3188  015F  07BC               	addwf	___flmul@prod+3,f
  3189  0160                     u3143:
  3190  0160                     l2288:
  3191  0160  3008               	movlw	8
  3192  0161  00AD               	movwf	??___flmul
  3193  0162                     u3155:
  3194  0162  1003               	clrc
  3195  0163  0DB3               	rlf	___flmul@grs,f
  3196  0164  0DB4               	rlf	___flmul@grs+1,f
  3197  0165  0DB5               	rlf	___flmul@grs+2,f
  3198  0166  0DB6               	rlf	___flmul@grs+3,f
  3199  0167  0BAD               	decfsz	??___flmul,f
  3200  0168  2962               	goto	u3155
  3201  0169                     l2290:
  3202  0169  0826               	movf	___flmul@b+1,w
  3203  016A  00AD               	movwf	??___flmul
  3204  016B  082D               	movf	??___flmul,w
  3205  016C  00F3               	movwf	__Umul8_16@multiplicand
  3206  016D  0829               	movf	___flmul@a,w
  3207  016E  160A  118A  26B2  120A  118A  	fcall	__Umul8_16
  3208  0173  0874               	movf	?__Umul8_16+1,w
  3209  0174  1283               	bcf	3,5	;RP0=0, select bank0
  3210  0175  1303               	bcf	3,6	;RP1=0, select bank0
  3211  0176  00BE               	movwf	___flmul@temp+1
  3212  0177  0873               	movf	?__Umul8_16,w
  3213  0178  00BD               	movwf	___flmul@temp
  3214  0179                     l2292:
  3215  0179  083D               	movf	___flmul@temp,w
  3216  017A  00AD               	movwf	??___flmul
  3217  017B  083E               	movf	___flmul@temp+1,w
  3218  017C  00AE               	movwf	??___flmul+1
  3219  017D  01AF               	clrf	??___flmul+2
  3220  017E  01B0               	clrf	??___flmul+3
  3221  017F  082D               	movf	??___flmul,w
  3222  0180  07B3               	addwf	___flmul@grs,f
  3223  0181  082E               	movf	??___flmul+1,w
  3224  0182  1103               	clrz
  3225  0183  1803               	skipnc
  3226  0184  3E01               	addlw	1
  3227  0185  1903               	skipnz
  3228  0186  2988               	goto	u3161
  3229  0187  07B4               	addwf	___flmul@grs+1,f
  3230  0188                     u3161:
  3231  0188  082F               	movf	??___flmul+2,w
  3232  0189  1103               	clrz
  3233  018A  1803               	skipnc
  3234  018B  3E01               	addlw	1
  3235  018C  1903               	skipnz
  3236  018D  298F               	goto	u3162
  3237  018E  07B5               	addwf	___flmul@grs+2,f
  3238  018F                     u3162:
  3239  018F  0830               	movf	??___flmul+3,w
  3240  0190  1103               	clrz
  3241  0191  1803               	skipnc
  3242  0192  3E01               	addlw	1
  3243  0193  1903               	skipnz
  3244  0194  2996               	goto	u3163
  3245  0195  07B6               	addwf	___flmul@grs+3,f
  3246  0196                     u3163:
  3247  0196                     l2294:
  3248  0196  0825               	movf	___flmul@b,w
  3249  0197  00AD               	movwf	??___flmul
  3250  0198  082D               	movf	??___flmul,w
  3251  0199  00F3               	movwf	__Umul8_16@multiplicand
  3252  019A  082A               	movf	___flmul@a+1,w
  3253  019B  160A  118A  26B2  120A  118A  	fcall	__Umul8_16
  3254  01A0  0874               	movf	?__Umul8_16+1,w
  3255  01A1  1283               	bcf	3,5	;RP0=0, select bank0
  3256  01A2  1303               	bcf	3,6	;RP1=0, select bank0
  3257  01A3  00BE               	movwf	___flmul@temp+1
  3258  01A4  0873               	movf	?__Umul8_16,w
  3259  01A5  00BD               	movwf	___flmul@temp
  3260  01A6                     l2296:
  3261  01A6  083D               	movf	___flmul@temp,w
  3262  01A7  00AD               	movwf	??___flmul
  3263  01A8  083E               	movf	___flmul@temp+1,w
  3264  01A9  00AE               	movwf	??___flmul+1
  3265  01AA  01AF               	clrf	??___flmul+2
  3266  01AB  01B0               	clrf	??___flmul+3
  3267  01AC  082D               	movf	??___flmul,w
  3268  01AD  07B3               	addwf	___flmul@grs,f
  3269  01AE  082E               	movf	??___flmul+1,w
  3270  01AF  1103               	clrz
  3271  01B0  1803               	skipnc
  3272  01B1  3E01               	addlw	1
  3273  01B2  1903               	skipnz
  3274  01B3  29B5               	goto	u3171
  3275  01B4  07B4               	addwf	___flmul@grs+1,f
  3276  01B5                     u3171:
  3277  01B5  082F               	movf	??___flmul+2,w
  3278  01B6  1103               	clrz
  3279  01B7  1803               	skipnc
  3280  01B8  3E01               	addlw	1
  3281  01B9  1903               	skipnz
  3282  01BA  29BC               	goto	u3172
  3283  01BB  07B5               	addwf	___flmul@grs+2,f
  3284  01BC                     u3172:
  3285  01BC  0830               	movf	??___flmul+3,w
  3286  01BD  1103               	clrz
  3287  01BE  1803               	skipnc
  3288  01BF  3E01               	addlw	1
  3289  01C0  1903               	skipnz
  3290  01C1  29C3               	goto	u3173
  3291  01C2  07B6               	addwf	___flmul@grs+3,f
  3292  01C3                     u3173:
  3293  01C3                     l2298:
  3294  01C3  3008               	movlw	8
  3295  01C4  00AD               	movwf	??___flmul
  3296  01C5                     u3185:
  3297  01C5  1003               	clrc
  3298  01C6  0DB3               	rlf	___flmul@grs,f
  3299  01C7  0DB4               	rlf	___flmul@grs+1,f
  3300  01C8  0DB5               	rlf	___flmul@grs+2,f
  3301  01C9  0DB6               	rlf	___flmul@grs+3,f
  3302  01CA  0BAD               	decfsz	??___flmul,f
  3303  01CB  29C5               	goto	u3185
  3304  01CC  0825               	movf	___flmul@b,w
  3305  01CD  00AD               	movwf	??___flmul
  3306  01CE  082D               	movf	??___flmul,w
  3307  01CF  00F3               	movwf	__Umul8_16@multiplicand
  3308  01D0  0829               	movf	___flmul@a,w
  3309  01D1  160A  118A  26B2  120A  118A  	fcall	__Umul8_16
  3310  01D6  0874               	movf	?__Umul8_16+1,w
  3311  01D7  1283               	bcf	3,5	;RP0=0, select bank0
  3312  01D8  1303               	bcf	3,6	;RP1=0, select bank0
  3313  01D9  00BE               	movwf	___flmul@temp+1
  3314  01DA  0873               	movf	?__Umul8_16,w
  3315  01DB  00BD               	movwf	___flmul@temp
  3316  01DC                     l2300:
  3317  01DC  083D               	movf	___flmul@temp,w
  3318  01DD  00AD               	movwf	??___flmul
  3319  01DE  083E               	movf	___flmul@temp+1,w
  3320  01DF  00AE               	movwf	??___flmul+1
  3321  01E0  01AF               	clrf	??___flmul+2
  3322  01E1  01B0               	clrf	??___flmul+3
  3323  01E2  082D               	movf	??___flmul,w
  3324  01E3  07B3               	addwf	___flmul@grs,f
  3325  01E4  082E               	movf	??___flmul+1,w
  3326  01E5  1103               	clrz
  3327  01E6  1803               	skipnc
  3328  01E7  3E01               	addlw	1
  3329  01E8  1903               	skipnz
  3330  01E9  29EB               	goto	u3191
  3331  01EA  07B4               	addwf	___flmul@grs+1,f
  3332  01EB                     u3191:
  3333  01EB  082F               	movf	??___flmul+2,w
  3334  01EC  1103               	clrz
  3335  01ED  1803               	skipnc
  3336  01EE  3E01               	addlw	1
  3337  01EF  1903               	skipnz
  3338  01F0  29F2               	goto	u3192
  3339  01F1  07B5               	addwf	___flmul@grs+2,f
  3340  01F2                     u3192:
  3341  01F2  0830               	movf	??___flmul+3,w
  3342  01F3  1103               	clrz
  3343  01F4  1803               	skipnc
  3344  01F5  3E01               	addlw	1
  3345  01F6  1903               	skipnz
  3346  01F7  29F9               	goto	u3193
  3347  01F8  07B6               	addwf	___flmul@grs+3,f
  3348  01F9                     u3193:
  3349  01F9                     l2302:
  3350  01F9  0826               	movf	___flmul@b+1,w
  3351  01FA  00AD               	movwf	??___flmul
  3352  01FB  082D               	movf	??___flmul,w
  3353  01FC  00F3               	movwf	__Umul8_16@multiplicand
  3354  01FD  082B               	movf	___flmul@a+2,w
  3355  01FE  160A  118A  26B2  120A  118A  	fcall	__Umul8_16
  3356  0203  0874               	movf	?__Umul8_16+1,w
  3357  0204  1283               	bcf	3,5	;RP0=0, select bank0
  3358  0205  1303               	bcf	3,6	;RP1=0, select bank0
  3359  0206  00BE               	movwf	___flmul@temp+1
  3360  0207  0873               	movf	?__Umul8_16,w
  3361  0208  00BD               	movwf	___flmul@temp
  3362  0209  083D               	movf	___flmul@temp,w
  3363  020A  00AD               	movwf	??___flmul
  3364  020B  083E               	movf	___flmul@temp+1,w
  3365  020C  00AE               	movwf	??___flmul+1
  3366  020D  01AF               	clrf	??___flmul+2
  3367  020E  01B0               	clrf	??___flmul+3
  3368  020F  082D               	movf	??___flmul,w
  3369  0210  07B9               	addwf	___flmul@prod,f
  3370  0211  082E               	movf	??___flmul+1,w
  3371  0212  1103               	clrz
  3372  0213  1803               	skipnc
  3373  0214  3E01               	addlw	1
  3374  0215  1903               	skipnz
  3375  0216  2A18               	goto	u3201
  3376  0217  07BA               	addwf	___flmul@prod+1,f
  3377  0218                     u3201:
  3378  0218  082F               	movf	??___flmul+2,w
  3379  0219  1103               	clrz
  3380  021A  1803               	skipnc
  3381  021B  3E01               	addlw	1
  3382  021C  1903               	skipnz
  3383  021D  2A1F               	goto	u3202
  3384  021E  07BB               	addwf	___flmul@prod+2,f
  3385  021F                     u3202:
  3386  021F  0830               	movf	??___flmul+3,w
  3387  0220  1103               	clrz
  3388  0221  1803               	skipnc
  3389  0222  3E01               	addlw	1
  3390  0223  1903               	skipnz
  3391  0224  2A26               	goto	u3203
  3392  0225  07BC               	addwf	___flmul@prod+3,f
  3393  0226                     u3203:
  3394  0226                     l2304:
  3395  0226  0827               	movf	___flmul@b+2,w
  3396  0227  00AD               	movwf	??___flmul
  3397  0228  082D               	movf	??___flmul,w
  3398  0229  00F3               	movwf	__Umul8_16@multiplicand
  3399  022A  082A               	movf	___flmul@a+1,w
  3400  022B  160A  118A  26B2  120A  118A  	fcall	__Umul8_16
  3401  0230  0874               	movf	?__Umul8_16+1,w
  3402  0231  1283               	bcf	3,5	;RP0=0, select bank0
  3403  0232  1303               	bcf	3,6	;RP1=0, select bank0
  3404  0233  00BE               	movwf	___flmul@temp+1
  3405  0234  0873               	movf	?__Umul8_16,w
  3406  0235  00BD               	movwf	___flmul@temp
  3407  0236                     l2306:
  3408  0236  083D               	movf	___flmul@temp,w
  3409  0237  00AD               	movwf	??___flmul
  3410  0238  083E               	movf	___flmul@temp+1,w
  3411  0239  00AE               	movwf	??___flmul+1
  3412  023A  01AF               	clrf	??___flmul+2
  3413  023B  01B0               	clrf	??___flmul+3
  3414  023C  082D               	movf	??___flmul,w
  3415  023D  07B9               	addwf	___flmul@prod,f
  3416  023E  082E               	movf	??___flmul+1,w
  3417  023F  1103               	clrz
  3418  0240  1803               	skipnc
  3419  0241  3E01               	addlw	1
  3420  0242  1903               	skipnz
  3421  0243  2A45               	goto	u3211
  3422  0244  07BA               	addwf	___flmul@prod+1,f
  3423  0245                     u3211:
  3424  0245  082F               	movf	??___flmul+2,w
  3425  0246  1103               	clrz
  3426  0247  1803               	skipnc
  3427  0248  3E01               	addlw	1
  3428  0249  1903               	skipnz
  3429  024A  2A4C               	goto	u3212
  3430  024B  07BB               	addwf	___flmul@prod+2,f
  3431  024C                     u3212:
  3432  024C  0830               	movf	??___flmul+3,w
  3433  024D  1103               	clrz
  3434  024E  1803               	skipnc
  3435  024F  3E01               	addlw	1
  3436  0250  1903               	skipnz
  3437  0251  2A53               	goto	u3213
  3438  0252  07BC               	addwf	___flmul@prod+3,f
  3439  0253                     u3213:
  3440  0253  0827               	movf	___flmul@b+2,w
  3441  0254  00AD               	movwf	??___flmul
  3442  0255  082D               	movf	??___flmul,w
  3443  0256  00F3               	movwf	__Umul8_16@multiplicand
  3444  0257  082B               	movf	___flmul@a+2,w
  3445  0258  160A  118A  26B2  120A  118A  	fcall	__Umul8_16
  3446  025D  0874               	movf	?__Umul8_16+1,w
  3447  025E  1283               	bcf	3,5	;RP0=0, select bank0
  3448  025F  1303               	bcf	3,6	;RP1=0, select bank0
  3449  0260  00BE               	movwf	___flmul@temp+1
  3450  0261  0873               	movf	?__Umul8_16,w
  3451  0262  00BD               	movwf	___flmul@temp
  3452  0263                     l2308:
  3453  0263  083D               	movf	___flmul@temp,w
  3454  0264  00AD               	movwf	??___flmul
  3455  0265  083E               	movf	___flmul@temp+1,w
  3456  0266  00AE               	movwf	??___flmul+1
  3457  0267  01AF               	clrf	??___flmul+2
  3458  0268  01B0               	clrf	??___flmul+3
  3459  0269  3008               	movlw	8
  3460  026A                     u3225:
  3461  026A  1003               	clrc
  3462  026B  0DAD               	rlf	??___flmul,f
  3463  026C  0DAE               	rlf	??___flmul+1,f
  3464  026D  0DAF               	rlf	??___flmul+2,f
  3465  026E  0DB0               	rlf	??___flmul+3,f
  3466  026F                     u3220:
  3467  026F  3EFF               	addlw	-1
  3468  0270  1D03               	skipz
  3469  0271  2A6A               	goto	u3225
  3470  0272  082D               	movf	??___flmul,w
  3471  0273  07B9               	addwf	___flmul@prod,f
  3472  0274  082E               	movf	??___flmul+1,w
  3473  0275  1103               	clrz
  3474  0276  1803               	skipnc
  3475  0277  3E01               	addlw	1
  3476  0278  1903               	skipnz
  3477  0279  2A7B               	goto	u3231
  3478  027A  07BA               	addwf	___flmul@prod+1,f
  3479  027B                     u3231:
  3480  027B  082F               	movf	??___flmul+2,w
  3481  027C  1103               	clrz
  3482  027D  1803               	skipnc
  3483  027E  3E01               	addlw	1
  3484  027F  1903               	skipnz
  3485  0280  2A82               	goto	u3232
  3486  0281  07BB               	addwf	___flmul@prod+2,f
  3487  0282                     u3232:
  3488  0282  0830               	movf	??___flmul+3,w
  3489  0283  1103               	clrz
  3490  0284  1803               	skipnc
  3491  0285  3E01               	addlw	1
  3492  0286  1903               	skipnz
  3493  0287  2A89               	goto	u3233
  3494  0288  07BC               	addwf	___flmul@prod+3,f
  3495  0289                     u3233:
  3496  0289                     l2310:
  3497  0289  0833               	movf	___flmul@grs,w
  3498  028A  00AD               	movwf	??___flmul
  3499  028B  0834               	movf	___flmul@grs+1,w
  3500  028C  00AE               	movwf	??___flmul+1
  3501  028D  0835               	movf	___flmul@grs+2,w
  3502  028E  00AF               	movwf	??___flmul+2
  3503  028F  0836               	movf	___flmul@grs+3,w
  3504  0290  00B0               	movwf	??___flmul+3
  3505  0291  3018               	movlw	24
  3506  0292                     u3245:
  3507  0292  1003               	clrc
  3508  0293  0CB0               	rrf	??___flmul+3,f
  3509  0294  0CAF               	rrf	??___flmul+2,f
  3510  0295  0CAE               	rrf	??___flmul+1,f
  3511  0296  0CAD               	rrf	??___flmul,f
  3512  0297                     u3240:
  3513  0297  3EFF               	addlw	-1
  3514  0298  1D03               	skipz
  3515  0299  2A92               	goto	u3245
  3516  029A  082D               	movf	??___flmul,w
  3517  029B  07B9               	addwf	___flmul@prod,f
  3518  029C  082E               	movf	??___flmul+1,w
  3519  029D  1103               	clrz
  3520  029E  1803               	skipnc
  3521  029F  3E01               	addlw	1
  3522  02A0  1903               	skipnz
  3523  02A1  2AA3               	goto	u3251
  3524  02A2  07BA               	addwf	___flmul@prod+1,f
  3525  02A3                     u3251:
  3526  02A3  082F               	movf	??___flmul+2,w
  3527  02A4  1103               	clrz
  3528  02A5  1803               	skipnc
  3529  02A6  3E01               	addlw	1
  3530  02A7  1903               	skipnz
  3531  02A8  2AAA               	goto	u3252
  3532  02A9  07BB               	addwf	___flmul@prod+2,f
  3533  02AA                     u3252:
  3534  02AA  0830               	movf	??___flmul+3,w
  3535  02AB  1103               	clrz
  3536  02AC  1803               	skipnc
  3537  02AD  3E01               	addlw	1
  3538  02AE  1903               	skipnz
  3539  02AF  2AB1               	goto	u3253
  3540  02B0  07BC               	addwf	___flmul@prod+3,f
  3541  02B1                     u3253:
  3542  02B1                     l2312:
  3543  02B1  3008               	movlw	8
  3544  02B2  00AD               	movwf	??___flmul
  3545  02B3                     u3265:
  3546  02B3  1003               	clrc
  3547  02B4  0DB3               	rlf	___flmul@grs,f
  3548  02B5  0DB4               	rlf	___flmul@grs+1,f
  3549  02B6  0DB5               	rlf	___flmul@grs+2,f
  3550  02B7  0DB6               	rlf	___flmul@grs+3,f
  3551  02B8  0BAD               	decfsz	??___flmul,f
  3552  02B9  2AB3               	goto	u3265
  3553  02BA                     l2314:
  3554  02BA  0838               	movf	___flmul@bexp,w
  3555  02BB  0737               	addwf	___flmul@aexp,w
  3556  02BC  00AD               	movwf	??___flmul
  3557  02BD  01AE               	clrf	??___flmul+1
  3558  02BE  0DAE               	rlf	??___flmul+1,f
  3559  02BF  082D               	movf	??___flmul,w
  3560  02C0  3E82               	addlw	130
  3561  02C1  00BD               	movwf	___flmul@temp
  3562  02C2  082E               	movf	??___flmul+1,w
  3563  02C3  1803               	skipnc
  3564  02C4  3E01               	addlw	1
  3565  02C5  3EFF               	addlw	255
  3566  02C6  00BE               	movwf	___flmul@temp+1
  3567  02C7  2AE5               	goto	l2326
  3568  02C8                     l2316:
  3569  02C8  3001               	movlw	1
  3570  02C9  00AD               	movwf	??___flmul
  3571  02CA                     u3275:
  3572  02CA  1003               	clrc
  3573  02CB  0DB9               	rlf	___flmul@prod,f
  3574  02CC  0DBA               	rlf	___flmul@prod+1,f
  3575  02CD  0DBB               	rlf	___flmul@prod+2,f
  3576  02CE  0DBC               	rlf	___flmul@prod+3,f
  3577  02CF  0BAD               	decfsz	??___flmul,f
  3578  02D0  2ACA               	goto	u3275
  3579  02D1                     l2318:
  3580  02D1  1FB6               	btfss	___flmul@grs+3,7
  3581  02D2  2AD4               	goto	u3281
  3582  02D3  2AD5               	goto	u3280
  3583  02D4                     u3281:
  3584  02D4  2AD6               	goto	l2322
  3585  02D5                     u3280:
  3586  02D5                     l2320:
  3587  02D5  1439               	bsf	___flmul@prod,0
  3588  02D6                     l2322:
  3589  02D6  3001               	movlw	1
  3590  02D7  00AD               	movwf	??___flmul
  3591  02D8                     u3295:
  3592  02D8  1003               	clrc
  3593  02D9  0DB3               	rlf	___flmul@grs,f
  3594  02DA  0DB4               	rlf	___flmul@grs+1,f
  3595  02DB  0DB5               	rlf	___flmul@grs+2,f
  3596  02DC  0DB6               	rlf	___flmul@grs+3,f
  3597  02DD  0BAD               	decfsz	??___flmul,f
  3598  02DE  2AD8               	goto	u3295
  3599  02DF                     l2324:
  3600  02DF  30FF               	movlw	255
  3601  02E0  07BD               	addwf	___flmul@temp,f
  3602  02E1  1803               	skipnc
  3603  02E2  0ABE               	incf	___flmul@temp+1,f
  3604  02E3  30FF               	movlw	255
  3605  02E4  07BE               	addwf	___flmul@temp+1,f
  3606  02E5                     l2326:
  3607  02E5  1FBB               	btfss	___flmul@prod+2,7
  3608  02E6  2AE8               	goto	u3301
  3609  02E7  2AE9               	goto	u3300
  3610  02E8                     u3301:
  3611  02E8  2AC8               	goto	l2316
  3612  02E9                     u3300:
  3613  02E9                     l2328:
  3614  02E9  01B7               	clrf	___flmul@aexp
  3615  02EA                     l2330:
  3616  02EA  1FB6               	btfss	___flmul@grs+3,7
  3617  02EB  2AED               	goto	u3311
  3618  02EC  2AEE               	goto	u3310
  3619  02ED                     u3311:
  3620  02ED  2B0A               	goto	l2338
  3621  02EE                     u3310:
  3622  02EE                     l2332:
  3623  02EE  30FF               	movlw	255
  3624  02EF  0533               	andwf	___flmul@grs,w
  3625  02F0  00AD               	movwf	??___flmul
  3626  02F1  30FF               	movlw	255
  3627  02F2  0534               	andwf	___flmul@grs+1,w
  3628  02F3  00AE               	movwf	??___flmul+1
  3629  02F4  30FF               	movlw	255
  3630  02F5  0535               	andwf	___flmul@grs+2,w
  3631  02F6  00AF               	movwf	??___flmul+2
  3632  02F7  307F               	movlw	127
  3633  02F8  0536               	andwf	___flmul@grs+3,w
  3634  02F9  00B0               	movwf	??___flmul+3
  3635  02FA  0830               	movf	??___flmul+3,w
  3636  02FB  042F               	iorwf	??___flmul+2,w
  3637  02FC  042E               	iorwf	??___flmul+1,w
  3638  02FD  042D               	iorwf	??___flmul,w
  3639  02FE  1903               	skipnz
  3640  02FF  2B01               	goto	u3321
  3641  0300  2B02               	goto	u3320
  3642  0301                     u3321:
  3643  0301  2B05               	goto	l693
  3644  0302                     u3320:
  3645  0302                     l2334:
  3646  0302  01B7               	clrf	___flmul@aexp
  3647  0303  0AB7               	incf	___flmul@aexp,f
  3648  0304  2B0A               	goto	l2338
  3649  0305                     l693:
  3650  0305  1C39               	btfss	___flmul@prod,0
  3651  0306  2B08               	goto	u3331
  3652  0307  2B09               	goto	u3330
  3653  0308                     u3331:
  3654  0308  2B0A               	goto	l2338
  3655  0309                     u3330:
  3656  0309  2B02               	goto	l2334
  3657  030A                     l2338:
  3658  030A  0837               	movf	___flmul@aexp,w
  3659  030B  1903               	btfsc	3,2
  3660  030C  2B0E               	goto	u3341
  3661  030D  2B0F               	goto	u3340
  3662  030E                     u3341:
  3663  030E  2B40               	goto	l2348
  3664  030F                     u3340:
  3665  030F                     l2340:
  3666  030F  3001               	movlw	1
  3667  0310  07B9               	addwf	___flmul@prod,f
  3668  0311  3000               	movlw	0
  3669  0312  1803               	skipnc
  3670  0313  3001               	movlw	1
  3671  0314  07BA               	addwf	___flmul@prod+1,f
  3672  0315  3000               	movlw	0
  3673  0316  1803               	skipnc
  3674  0317  3001               	movlw	1
  3675  0318  07BB               	addwf	___flmul@prod+2,f
  3676  0319  3000               	movlw	0
  3677  031A  1803               	skipnc
  3678  031B  3001               	movlw	1
  3679  031C  07BC               	addwf	___flmul@prod+3,f
  3680  031D                     l2342:
  3681  031D  1C3C               	btfss	___flmul@prod+3,0
  3682  031E  2B20               	goto	u3351
  3683  031F  2B21               	goto	u3350
  3684  0320                     u3351:
  3685  0320  2B40               	goto	l2348
  3686  0321                     u3350:
  3687  0321                     l2344:
  3688  0321  0839               	movf	___flmul@prod,w
  3689  0322  00AD               	movwf	??___flmul
  3690  0323  083A               	movf	___flmul@prod+1,w
  3691  0324  00AE               	movwf	??___flmul+1
  3692  0325  083B               	movf	___flmul@prod+2,w
  3693  0326  00AF               	movwf	??___flmul+2
  3694  0327  083C               	movf	___flmul@prod+3,w
  3695  0328  00B0               	movwf	??___flmul+3
  3696  0329  3001               	movlw	1
  3697  032A  00B1               	movwf	??___flmul+4
  3698  032B                     u3365:
  3699  032B  0D30               	rlf	??___flmul+3,w
  3700  032C  0CB0               	rrf	??___flmul+3,f
  3701  032D  0CAF               	rrf	??___flmul+2,f
  3702  032E  0CAE               	rrf	??___flmul+1,f
  3703  032F  0CAD               	rrf	??___flmul,f
  3704  0330                     u3360:
  3705  0330  0BB1               	decfsz	??___flmul+4,f
  3706  0331  2B2B               	goto	u3365
  3707  0332  0830               	movf	??___flmul+3,w
  3708  0333  00BC               	movwf	___flmul@prod+3
  3709  0334  082F               	movf	??___flmul+2,w
  3710  0335  00BB               	movwf	___flmul@prod+2
  3711  0336  082E               	movf	??___flmul+1,w
  3712  0337  00BA               	movwf	___flmul@prod+1
  3713  0338  082D               	movf	??___flmul,w
  3714  0339  00B9               	movwf	___flmul@prod
  3715  033A                     l2346:
  3716  033A  3001               	movlw	1
  3717  033B  07BD               	addwf	___flmul@temp,f
  3718  033C  1803               	skipnc
  3719  033D  0ABE               	incf	___flmul@temp+1,f
  3720  033E  3000               	movlw	0
  3721  033F  07BE               	addwf	___flmul@temp+1,f
  3722  0340                     l2348:
  3723  0340  083E               	movf	___flmul@temp+1,w
  3724  0341  3A80               	xorlw	128
  3725  0342  00FF               	movwf	btemp+1
  3726  0343  3080               	movlw	128
  3727  0344  027F               	subwf	btemp+1,w
  3728  0345  1D03               	skipz
  3729  0346  2B49               	goto	u3375
  3730  0347  30FF               	movlw	255
  3731  0348  023D               	subwf	___flmul@temp,w
  3732  0349                     u3375:
  3733  0349  1C03               	skipc
  3734  034A  2B4C               	goto	u3371
  3735  034B  2B4D               	goto	u3370
  3736  034C                     u3371:
  3737  034C  2B58               	goto	l2352
  3738  034D                     u3370:
  3739  034D                     l2350:
  3740  034D  307F               	movlw	127
  3741  034E  1283               	bcf	3,5	;RP0=0, select bank0
  3742  034F  1303               	bcf	3,6	;RP1=0, select bank0
  3743  0350  00BC               	movwf	___flmul@prod+3
  3744  0351  3080               	movlw	128
  3745  0352  00BB               	movwf	___flmul@prod+2
  3746  0353  3000               	movlw	0
  3747  0354  00BA               	movwf	___flmul@prod+1
  3748  0355  3000               	movlw	0
  3749  0356  00B9               	movwf	___flmul@prod
  3750  0357  2B8D               	goto	l699
  3751  0358                     l2352:
  3752  0358  1283               	bcf	3,5	;RP0=0, select bank0
  3753  0359  1303               	bcf	3,6	;RP1=0, select bank0
  3754  035A  083E               	movf	___flmul@temp+1,w
  3755  035B  3A80               	xorlw	128
  3756  035C  00FF               	movwf	btemp+1
  3757  035D  3080               	movlw	128
  3758  035E  027F               	subwf	btemp+1,w
  3759  035F  1D03               	skipz
  3760  0360  2B63               	goto	u3385
  3761  0361  3001               	movlw	1
  3762  0362  023D               	subwf	___flmul@temp,w
  3763  0363                     u3385:
  3764  0363  1803               	skipnc
  3765  0364  2B66               	goto	u3381
  3766  0365  2B67               	goto	u3380
  3767  0366                     u3381:
  3768  0366  2B73               	goto	l2358
  3769  0367                     u3380:
  3770  0367                     l2354:
  3771  0367  3000               	movlw	0
  3772  0368  1283               	bcf	3,5	;RP0=0, select bank0
  3773  0369  1303               	bcf	3,6	;RP1=0, select bank0
  3774  036A  00BC               	movwf	___flmul@prod+3
  3775  036B  3000               	movlw	0
  3776  036C  00BB               	movwf	___flmul@prod+2
  3777  036D  3000               	movlw	0
  3778  036E  00BA               	movwf	___flmul@prod+1
  3779  036F  3000               	movlw	0
  3780  0370  00B9               	movwf	___flmul@prod
  3781  0371                     l2356:
  3782  0371  01B2               	clrf	___flmul@sign
  3783  0372  2B8D               	goto	l699
  3784  0373                     l2358:
  3785  0373  1283               	bcf	3,5	;RP0=0, select bank0
  3786  0374  1303               	bcf	3,6	;RP1=0, select bank0
  3787  0375  083D               	movf	___flmul@temp,w
  3788  0376  00AD               	movwf	??___flmul
  3789  0377  082D               	movf	??___flmul,w
  3790  0378  00B8               	movwf	___flmul@bexp
  3791  0379  30FF               	movlw	255
  3792  037A  05B9               	andwf	___flmul@prod,f
  3793  037B  30FF               	movlw	255
  3794  037C  05BA               	andwf	___flmul@prod+1,f
  3795  037D  307F               	movlw	127
  3796  037E  05BB               	andwf	___flmul@prod+2,f
  3797  037F  3000               	movlw	0
  3798  0380  05BC               	andwf	___flmul@prod+3,f
  3799  0381                     l2360:
  3800  0381  1C38               	btfss	___flmul@bexp,0
  3801  0382  2B84               	goto	u3391
  3802  0383  2B85               	goto	u3390
  3803  0384                     u3391:
  3804  0384  2B86               	goto	l2364
  3805  0385                     u3390:
  3806  0385                     l2362:
  3807  0385  17BB               	bsf	___flmul@prod+2,7
  3808  0386                     l2364:
  3809  0386  0838               	movf	___flmul@bexp,w
  3810  0387  00AD               	movwf	??___flmul
  3811  0388  1003               	clrc
  3812  0389  0C2D               	rrf	??___flmul,w
  3813  038A  00AE               	movwf	??___flmul+1
  3814  038B  082E               	movf	??___flmul+1,w
  3815  038C  00BC               	movwf	___flmul@prod+3
  3816  038D                     l699:
  3817  038D  0832               	movf	___flmul@sign,w
  3818  038E  00AD               	movwf	??___flmul
  3819  038F  082D               	movf	??___flmul,w
  3820  0390  04BC               	iorwf	___flmul@prod+3,f
  3821  0391                     l2366:
  3822  0391  083C               	movf	___flmul@prod+3,w
  3823  0392  00A8               	movwf	?___flmul+3
  3824  0393  083B               	movf	___flmul@prod+2,w
  3825  0394  00A7               	movwf	?___flmul+2
  3826  0395  083A               	movf	___flmul@prod+1,w
  3827  0396  00A6               	movwf	?___flmul+1
  3828  0397  0839               	movf	___flmul@prod,w
  3829  0398  00A5               	movwf	?___flmul
  3830  0399                     l687:
  3831  0399  0008               	return
  3832  039A                     __end_of___flmul:
  3833                           
  3834                           	psect	text11
  3835  16B2                     __ptext11:	
  3836 ;; *************** function __Umul8_16 *****************
  3837 ;; Defined at:
  3838 ;;		line 4 in file "C:\Program Files\Microchip\xc8\v2.32\pic\sources\c90\common\Umul8_16.c"
  3839 ;; Parameters:    Size  Location     Type
  3840 ;;  multiplier      1    wreg     unsigned char 
  3841 ;;  multiplicand    1    3[COMMON] unsigned char 
  3842 ;; Auto vars:     Size  Location     Type
  3843 ;;  multiplier      1    4[BANK0 ] unsigned char 
  3844 ;;  word_mpld       2    2[BANK0 ] unsigned int 
  3845 ;;  product         2    0[BANK0 ] unsigned int 
  3846 ;; Return value:  Size  Location     Type
  3847 ;;                  2    3[COMMON] unsigned int 
  3848 ;; Registers used:
  3849 ;;		wreg, status,2, status,0
  3850 ;; Tracked objects:
  3851 ;;		On entry : 0/0
  3852 ;;		On exit  : 0/0
  3853 ;;		Unchanged: 0/0
  3854 ;; Data sizes:     COMMON   BANK0   BANK1   BANK3   BANK2
  3855 ;;      Params:         2       0       0       0       0
  3856 ;;      Locals:         0       5       0       0       0
  3857 ;;      Temps:          2       0       0       0       0
  3858 ;;      Totals:         4       5       0       0       0
  3859 ;;Total ram usage:        9 bytes
  3860 ;; Hardware stack levels used: 1
  3861 ;; Hardware stack levels required when called: 1
  3862 ;; This function calls:
  3863 ;;		Nothing
  3864 ;; This function is called by:
  3865 ;;		___flmul
  3866 ;; This function uses a non-reentrant model
  3867 ;;
  3868                           
  3869                           
  3870                           ;psect for function __Umul8_16
  3871  16B2                     __Umul8_16:
  3872                           
  3873                           ;incstack = 0
  3874                           ; Regs used in __Umul8_16: [wreg+status,2+status,0]
  3875                           ;__Umul8_16@multiplier stored from wreg
  3876  16B2  1283               	bcf	3,5	;RP0=0, select bank0
  3877  16B3  1303               	bcf	3,6	;RP1=0, select bank0
  3878  16B4  00A4               	movwf	__Umul8_16@multiplier
  3879  16B5                     l1980:
  3880  16B5  01A0               	clrf	__Umul8_16@product
  3881  16B6  01A1               	clrf	__Umul8_16@product+1
  3882  16B7                     l1982:
  3883  16B7  0873               	movf	__Umul8_16@multiplicand,w
  3884  16B8  00F5               	movwf	??__Umul8_16
  3885  16B9  01F6               	clrf	??__Umul8_16+1
  3886  16BA  0875               	movf	??__Umul8_16,w
  3887  16BB  00A2               	movwf	__Umul8_16@word_mpld
  3888  16BC  0876               	movf	??__Umul8_16+1,w
  3889  16BD  00A3               	movwf	__Umul8_16@word_mpld+1
  3890  16BE                     l1984:
  3891  16BE  1C24               	btfss	__Umul8_16@multiplier,0
  3892  16BF  2EC1               	goto	u2481
  3893  16C0  2EC2               	goto	u2480
  3894  16C1                     u2481:
  3895  16C1  2EC8               	goto	l706
  3896  16C2                     u2480:
  3897  16C2                     l1986:
  3898  16C2  0822               	movf	__Umul8_16@word_mpld,w
  3899  16C3  07A0               	addwf	__Umul8_16@product,f
  3900  16C4  1803               	skipnc
  3901  16C5  0AA1               	incf	__Umul8_16@product+1,f
  3902  16C6  0823               	movf	__Umul8_16@word_mpld+1,w
  3903  16C7  07A1               	addwf	__Umul8_16@product+1,f
  3904  16C8                     l706:
  3905  16C8  3001               	movlw	1
  3906  16C9                     u2495:
  3907  16C9  1003               	clrc
  3908  16CA  0DA2               	rlf	__Umul8_16@word_mpld,f
  3909  16CB  0DA3               	rlf	__Umul8_16@word_mpld+1,f
  3910  16CC  3EFF               	addlw	-1
  3911  16CD  1D03               	skipz
  3912  16CE  2EC9               	goto	u2495
  3913  16CF  1003               	clrc
  3914  16D0  0CA4               	rrf	__Umul8_16@multiplier,f
  3915  16D1                     l1988:
  3916  16D1  0824               	movf	__Umul8_16@multiplier,w
  3917  16D2  1D03               	btfss	3,2
  3918  16D3  2ED5               	goto	u2501
  3919  16D4  2ED6               	goto	u2500
  3920  16D5                     u2501:
  3921  16D5  2EBE               	goto	l1984
  3922  16D6                     u2500:
  3923  16D6                     l1990:
  3924  16D6  0821               	movf	__Umul8_16@product+1,w
  3925  16D7  00F4               	movwf	?__Umul8_16+1
  3926  16D8  0820               	movf	__Umul8_16@product,w
  3927  16D9  00F3               	movwf	?__Umul8_16
  3928  16DA                     l708:
  3929  16DA  0008               	return
  3930  16DB                     __end_of__Umul8_16:
  3931                           
  3932                           	psect	text12
  3933  0C34                     __ptext12:	
  3934 ;; *************** function ___fldiv *****************
  3935 ;; Defined at:
  3936 ;;		line 8 in file "C:\Program Files\Microchip\xc8\v2.32\pic\sources\c90\common\sprcdiv.c"
  3937 ;; Parameters:    Size  Location     Type
  3938 ;;  a               4    0[BANK0 ] unsigned int 
  3939 ;;  b               4    4[BANK0 ] unsigned int 
  3940 ;; Auto vars:     Size  Location     Type
  3941 ;;  grs             4   15[BANK0 ] unsigned long 
  3942 ;;  rem             4    8[BANK0 ] unsigned long 
  3943 ;;  new_exp         2   13[BANK0 ] int 
  3944 ;;  aexp            1   20[BANK0 ] unsigned char 
  3945 ;;  bexp            1   19[BANK0 ] unsigned char 
  3946 ;;  sign            1   12[BANK0 ] unsigned char 
  3947 ;; Return value:  Size  Location     Type
  3948 ;;                  4    0[BANK0 ] unsigned char 
  3949 ;; Registers used:
  3950 ;;		wreg, status,2, status,0, btemp+1
  3951 ;; Tracked objects:
  3952 ;;		On entry : 0/0
  3953 ;;		On exit  : 0/0
  3954 ;;		Unchanged: 0/0
  3955 ;; Data sizes:     COMMON   BANK0   BANK1   BANK3   BANK2
  3956 ;;      Params:         0       8       0       0       0
  3957 ;;      Locals:         0      13       0       0       0
  3958 ;;      Temps:          5       0       0       0       0
  3959 ;;      Totals:         5      21       0       0       0
  3960 ;;Total ram usage:       26 bytes
  3961 ;; Hardware stack levels used: 1
  3962 ;; Hardware stack levels required when called: 1
  3963 ;; This function calls:
  3964 ;;		Nothing
  3965 ;; This function is called by:
  3966 ;;		_UpdateLCDViewWithNumber
  3967 ;; This function uses a non-reentrant model
  3968 ;;
  3969                           
  3970                           
  3971                           ;psect for function ___fldiv
  3972  0C34                     ___fldiv:
  3973  0C34                     l2996:	
  3974                           ;incstack = 0
  3975                           ; Regs used in ___fldiv: [wreg+status,2+status,0+btemp+1]
  3976                           
  3977  0C34  1283               	bcf	3,5	;RP0=0, select bank0
  3978  0C35  1303               	bcf	3,6	;RP1=0, select bank0
  3979  0C36  0827               	movf	___fldiv@b+3,w
  3980  0C37  3980               	andlw	128
  3981  0C38  00F3               	movwf	??___fldiv
  3982  0C39  0873               	movf	??___fldiv,w
  3983  0C3A  00AC               	movwf	___fldiv@sign
  3984  0C3B                     l2998:
  3985  0C3B  0827               	movf	___fldiv@b+3,w
  3986  0C3C  00F3               	movwf	??___fldiv
  3987  0C3D  0773               	addwf	??___fldiv,w
  3988  0C3E  00F4               	movwf	??___fldiv+1
  3989  0C3F  0874               	movf	??___fldiv+1,w
  3990  0C40  00B3               	movwf	___fldiv@bexp
  3991  0C41                     l3000:
  3992  0C41  1FA6               	btfss	___fldiv@b+2,7
  3993  0C42  2C44               	goto	u4611
  3994  0C43  2C45               	goto	u4610
  3995  0C44                     u4611:
  3996  0C44  2C46               	goto	l3004
  3997  0C45                     u4610:
  3998  0C45                     l3002:
  3999  0C45  1433               	bsf	___fldiv@bexp,0
  4000  0C46                     l3004:
  4001  0C46  0833               	movf	___fldiv@bexp,w
  4002  0C47  1903               	btfsc	3,2
  4003  0C48  2C4A               	goto	u4621
  4004  0C49  2C4B               	goto	u4620
  4005  0C4A                     u4621:
  4006  0C4A  2C5B               	goto	l3014
  4007  0C4B                     u4620:
  4008  0C4B                     l3006:
  4009  0C4B  0A33               	incf	___fldiv@bexp,w
  4010  0C4C  1D03               	btfss	3,2
  4011  0C4D  2C4F               	goto	u4631
  4012  0C4E  2C50               	goto	u4630
  4013  0C4F                     u4631:
  4014  0C4F  2C58               	goto	l3010
  4015  0C50                     u4630:
  4016  0C50                     l3008:
  4017  0C50  3000               	movlw	0
  4018  0C51  00A7               	movwf	___fldiv@b+3
  4019  0C52  3000               	movlw	0
  4020  0C53  00A6               	movwf	___fldiv@b+2
  4021  0C54  3000               	movlw	0
  4022  0C55  00A5               	movwf	___fldiv@b+1
  4023  0C56  3000               	movlw	0
  4024  0C57  00A4               	movwf	___fldiv@b
  4025  0C58                     l3010:
  4026  0C58  17A6               	bsf	___fldiv@b+2,7
  4027  0C59                     l3012:
  4028  0C59  01A7               	clrf	___fldiv@b+3
  4029  0C5A  2C63               	goto	l3016
  4030  0C5B                     l3014:
  4031  0C5B  3000               	movlw	0
  4032  0C5C  00A7               	movwf	___fldiv@b+3
  4033  0C5D  3000               	movlw	0
  4034  0C5E  00A6               	movwf	___fldiv@b+2
  4035  0C5F  3000               	movlw	0
  4036  0C60  00A5               	movwf	___fldiv@b+1
  4037  0C61  3000               	movlw	0
  4038  0C62  00A4               	movwf	___fldiv@b
  4039  0C63                     l3016:
  4040  0C63  0823               	movf	___fldiv@a+3,w
  4041  0C64  3980               	andlw	128
  4042  0C65  00F3               	movwf	??___fldiv
  4043  0C66  0873               	movf	??___fldiv,w
  4044  0C67  06AC               	xorwf	___fldiv@sign,f
  4045  0C68                     l3018:
  4046  0C68  0823               	movf	___fldiv@a+3,w
  4047  0C69  00F3               	movwf	??___fldiv
  4048  0C6A  0773               	addwf	??___fldiv,w
  4049  0C6B  00F4               	movwf	??___fldiv+1
  4050  0C6C  0874               	movf	??___fldiv+1,w
  4051  0C6D  00B4               	movwf	___fldiv@aexp
  4052  0C6E                     l3020:
  4053  0C6E  1FA2               	btfss	___fldiv@a+2,7
  4054  0C6F  2C71               	goto	u4641
  4055  0C70  2C72               	goto	u4640
  4056  0C71                     u4641:
  4057  0C71  2C73               	goto	l3024
  4058  0C72                     u4640:
  4059  0C72                     l3022:
  4060  0C72  1434               	bsf	___fldiv@aexp,0
  4061  0C73                     l3024:
  4062  0C73  0834               	movf	___fldiv@aexp,w
  4063  0C74  1903               	btfsc	3,2
  4064  0C75  2C77               	goto	u4651
  4065  0C76  2C78               	goto	u4650
  4066  0C77                     u4651:
  4067  0C77  2C88               	goto	l3034
  4068  0C78                     u4650:
  4069  0C78                     l3026:
  4070  0C78  0A34               	incf	___fldiv@aexp,w
  4071  0C79  1D03               	btfss	3,2
  4072  0C7A  2C7C               	goto	u4661
  4073  0C7B  2C7D               	goto	u4660
  4074  0C7C                     u4661:
  4075  0C7C  2C85               	goto	l3030
  4076  0C7D                     u4660:
  4077  0C7D                     l3028:
  4078  0C7D  3000               	movlw	0
  4079  0C7E  00A3               	movwf	___fldiv@a+3
  4080  0C7F  3000               	movlw	0
  4081  0C80  00A2               	movwf	___fldiv@a+2
  4082  0C81  3000               	movlw	0
  4083  0C82  00A1               	movwf	___fldiv@a+1
  4084  0C83  3000               	movlw	0
  4085  0C84  00A0               	movwf	___fldiv@a
  4086  0C85                     l3030:
  4087  0C85  17A2               	bsf	___fldiv@a+2,7
  4088  0C86                     l3032:
  4089  0C86  01A3               	clrf	___fldiv@a+3
  4090  0C87  2C90               	goto	l647
  4091  0C88                     l3034:
  4092  0C88  3000               	movlw	0
  4093  0C89  00A3               	movwf	___fldiv@a+3
  4094  0C8A  3000               	movlw	0
  4095  0C8B  00A2               	movwf	___fldiv@a+2
  4096  0C8C  3000               	movlw	0
  4097  0C8D  00A1               	movwf	___fldiv@a+1
  4098  0C8E  3000               	movlw	0
  4099  0C8F  00A0               	movwf	___fldiv@a
  4100  0C90                     l647:
  4101  0C90  0823               	movf	___fldiv@a+3,w
  4102  0C91  0422               	iorwf	___fldiv@a+2,w
  4103  0C92  0421               	iorwf	___fldiv@a+1,w
  4104  0C93  0420               	iorwf	___fldiv@a,w
  4105  0C94  1D03               	skipz
  4106  0C95  2C97               	goto	u4671
  4107  0C96  2C98               	goto	u4670
  4108  0C97                     u4671:
  4109  0C97  2CB1               	goto	l3044
  4110  0C98                     u4670:
  4111  0C98                     l3036:
  4112  0C98  3000               	movlw	0
  4113  0C99  00A7               	movwf	___fldiv@b+3
  4114  0C9A  3000               	movlw	0
  4115  0C9B  00A6               	movwf	___fldiv@b+2
  4116  0C9C  3000               	movlw	0
  4117  0C9D  00A5               	movwf	___fldiv@b+1
  4118  0C9E  3000               	movlw	0
  4119  0C9F  00A4               	movwf	___fldiv@b
  4120  0CA0  3080               	movlw	128
  4121  0CA1  04A6               	iorwf	___fldiv@b+2,f
  4122  0CA2  307F               	movlw	127
  4123  0CA3  04A7               	iorwf	___fldiv@b+3,f
  4124  0CA4                     l3038:
  4125  0CA4  082C               	movf	___fldiv@sign,w
  4126  0CA5  00F3               	movwf	??___fldiv
  4127  0CA6  0873               	movf	??___fldiv,w
  4128  0CA7  04A7               	iorwf	___fldiv@b+3,f
  4129  0CA8                     l3040:
  4130  0CA8  0827               	movf	___fldiv@b+3,w
  4131  0CA9  00A3               	movwf	?___fldiv+3
  4132  0CAA  0826               	movf	___fldiv@b+2,w
  4133  0CAB  00A2               	movwf	?___fldiv+2
  4134  0CAC  0825               	movf	___fldiv@b+1,w
  4135  0CAD  00A1               	movwf	?___fldiv+1
  4136  0CAE  0824               	movf	___fldiv@b,w
  4137  0CAF  00A0               	movwf	?___fldiv
  4138  0CB0  2E10               	goto	l649
  4139  0CB1                     l3044:
  4140  0CB1  0833               	movf	___fldiv@bexp,w
  4141  0CB2  1D03               	btfss	3,2
  4142  0CB3  2CB5               	goto	u4681
  4143  0CB4  2CB6               	goto	u4680
  4144  0CB5                     u4681:
  4145  0CB5  2CBF               	goto	l3050
  4146  0CB6                     u4680:
  4147  0CB6                     l3046:
  4148  0CB6  3000               	movlw	0
  4149  0CB7  00A3               	movwf	?___fldiv+3
  4150  0CB8  3000               	movlw	0
  4151  0CB9  00A2               	movwf	?___fldiv+2
  4152  0CBA  3000               	movlw	0
  4153  0CBB  00A1               	movwf	?___fldiv+1
  4154  0CBC  3000               	movlw	0
  4155  0CBD  00A0               	movwf	?___fldiv
  4156  0CBE  2E10               	goto	l649
  4157  0CBF                     l3050:
  4158  0CBF  0833               	movf	___fldiv@bexp,w
  4159  0CC0  00F3               	movwf	??___fldiv
  4160  0CC1  01F4               	clrf	??___fldiv+1
  4161  0CC2  0874               	movf	??___fldiv+1,w
  4162  0CC3  00F6               	movwf	??___fldiv+3
  4163  0CC4  0834               	movf	___fldiv@aexp,w
  4164  0CC5  0273               	subwf	??___fldiv,w
  4165  0CC6  00F5               	movwf	??___fldiv+2
  4166  0CC7  1C03               	skipc
  4167  0CC8  03F6               	decf	??___fldiv+3,f
  4168  0CC9  0875               	movf	??___fldiv+2,w
  4169  0CCA  3E7F               	addlw	127
  4170  0CCB  00AD               	movwf	___fldiv@new_exp
  4171  0CCC  0876               	movf	??___fldiv+3,w
  4172  0CCD  1803               	skipnc
  4173  0CCE  3E01               	addlw	1
  4174  0CCF  3E00               	addlw	0
  4175  0CD0  00AE               	movwf	___fldiv@new_exp+1
  4176  0CD1                     l3052:
  4177  0CD1  0827               	movf	___fldiv@b+3,w
  4178  0CD2  00AB               	movwf	___fldiv@rem+3
  4179  0CD3  0826               	movf	___fldiv@b+2,w
  4180  0CD4  00AA               	movwf	___fldiv@rem+2
  4181  0CD5  0825               	movf	___fldiv@b+1,w
  4182  0CD6  00A9               	movwf	___fldiv@rem+1
  4183  0CD7  0824               	movf	___fldiv@b,w
  4184  0CD8  00A8               	movwf	___fldiv@rem
  4185  0CD9                     l3054:
  4186  0CD9  3000               	movlw	0
  4187  0CDA  00A7               	movwf	___fldiv@b+3
  4188  0CDB  3000               	movlw	0
  4189  0CDC  00A6               	movwf	___fldiv@b+2
  4190  0CDD  3000               	movlw	0
  4191  0CDE  00A5               	movwf	___fldiv@b+1
  4192  0CDF  3000               	movlw	0
  4193  0CE0  00A4               	movwf	___fldiv@b
  4194  0CE1                     l3056:
  4195  0CE1  3000               	movlw	0
  4196  0CE2  00B2               	movwf	___fldiv@grs+3
  4197  0CE3  3000               	movlw	0
  4198  0CE4  00B1               	movwf	___fldiv@grs+2
  4199  0CE5  3000               	movlw	0
  4200  0CE6  00B0               	movwf	___fldiv@grs+1
  4201  0CE7  3000               	movlw	0
  4202  0CE8  00AF               	movwf	___fldiv@grs
  4203  0CE9                     l3058:
  4204  0CE9  01B4               	clrf	___fldiv@aexp
  4205  0CEA  2D35               	goto	l3078
  4206  0CEB                     l3060:
  4207  0CEB  0834               	movf	___fldiv@aexp,w
  4208  0CEC  1903               	btfsc	3,2
  4209  0CED  2CEF               	goto	u4691
  4210  0CEE  2CF0               	goto	u4690
  4211  0CEF                     u4691:
  4212  0CEF  2D10               	goto	l3070
  4213  0CF0                     u4690:
  4214  0CF0                     l3062:
  4215  0CF0  3001               	movlw	1
  4216  0CF1  00F3               	movwf	??___fldiv
  4217  0CF2                     u4705:
  4218  0CF2  1003               	clrc
  4219  0CF3  0DA8               	rlf	___fldiv@rem,f
  4220  0CF4  0DA9               	rlf	___fldiv@rem+1,f
  4221  0CF5  0DAA               	rlf	___fldiv@rem+2,f
  4222  0CF6  0DAB               	rlf	___fldiv@rem+3,f
  4223  0CF7  0BF3               	decfsz	??___fldiv,f
  4224  0CF8  2CF2               	goto	u4705
  4225  0CF9  3001               	movlw	1
  4226  0CFA  00F3               	movwf	??___fldiv
  4227  0CFB                     u4715:
  4228  0CFB  1003               	clrc
  4229  0CFC  0DA4               	rlf	___fldiv@b,f
  4230  0CFD  0DA5               	rlf	___fldiv@b+1,f
  4231  0CFE  0DA6               	rlf	___fldiv@b+2,f
  4232  0CFF  0DA7               	rlf	___fldiv@b+3,f
  4233  0D00  0BF3               	decfsz	??___fldiv,f
  4234  0D01  2CFB               	goto	u4715
  4235  0D02                     l3064:
  4236  0D02  1FB2               	btfss	___fldiv@grs+3,7
  4237  0D03  2D05               	goto	u4721
  4238  0D04  2D06               	goto	u4720
  4239  0D05                     u4721:
  4240  0D05  2D07               	goto	l3068
  4241  0D06                     u4720:
  4242  0D06                     l3066:
  4243  0D06  1424               	bsf	___fldiv@b,0
  4244  0D07                     l3068:
  4245  0D07  3001               	movlw	1
  4246  0D08  00F3               	movwf	??___fldiv
  4247  0D09                     u4735:
  4248  0D09  1003               	clrc
  4249  0D0A  0DAF               	rlf	___fldiv@grs,f
  4250  0D0B  0DB0               	rlf	___fldiv@grs+1,f
  4251  0D0C  0DB1               	rlf	___fldiv@grs+2,f
  4252  0D0D  0DB2               	rlf	___fldiv@grs+3,f
  4253  0D0E  0BF3               	decfsz	??___fldiv,f
  4254  0D0F  2D09               	goto	u4735
  4255  0D10                     l3070:
  4256  0D10  0823               	movf	___fldiv@a+3,w
  4257  0D11  022B               	subwf	___fldiv@rem+3,w
  4258  0D12  1D03               	skipz
  4259  0D13  2D1E               	goto	u4745
  4260  0D14  0822               	movf	___fldiv@a+2,w
  4261  0D15  022A               	subwf	___fldiv@rem+2,w
  4262  0D16  1D03               	skipz
  4263  0D17  2D1E               	goto	u4745
  4264  0D18  0821               	movf	___fldiv@a+1,w
  4265  0D19  0229               	subwf	___fldiv@rem+1,w
  4266  0D1A  1D03               	skipz
  4267  0D1B  2D1E               	goto	u4745
  4268  0D1C  0820               	movf	___fldiv@a,w
  4269  0D1D  0228               	subwf	___fldiv@rem,w
  4270  0D1E                     u4745:
  4271  0D1E  1C03               	skipc
  4272  0D1F  2D21               	goto	u4741
  4273  0D20  2D22               	goto	u4740
  4274  0D21                     u4741:
  4275  0D21  2D31               	goto	l3076
  4276  0D22                     u4740:
  4277  0D22                     l3072:
  4278  0D22  1732               	bsf	___fldiv@grs+3,6
  4279  0D23                     l3074:
  4280  0D23  0820               	movf	___fldiv@a,w
  4281  0D24  02A8               	subwf	___fldiv@rem,f
  4282  0D25  0821               	movf	___fldiv@a+1,w
  4283  0D26  1C03               	skipc
  4284  0D27  0F21               	incfsz	___fldiv@a+1,w
  4285  0D28  02A9               	subwf	___fldiv@rem+1,f
  4286  0D29  0822               	movf	___fldiv@a+2,w
  4287  0D2A  1C03               	skipc
  4288  0D2B  0F22               	incfsz	___fldiv@a+2,w
  4289  0D2C  02AA               	subwf	___fldiv@rem+2,f
  4290  0D2D  0823               	movf	___fldiv@a+3,w
  4291  0D2E  1C03               	skipc
  4292  0D2F  0F23               	incfsz	___fldiv@a+3,w
  4293  0D30  02AB               	subwf	___fldiv@rem+3,f
  4294  0D31                     l3076:
  4295  0D31  3001               	movlw	1
  4296  0D32  00F3               	movwf	??___fldiv
  4297  0D33  0873               	movf	??___fldiv,w
  4298  0D34  07B4               	addwf	___fldiv@aexp,f
  4299  0D35                     l3078:
  4300  0D35  301A               	movlw	26
  4301  0D36  0234               	subwf	___fldiv@aexp,w
  4302  0D37  1C03               	skipc
  4303  0D38  2D3A               	goto	u4751
  4304  0D39  2D3B               	goto	u4750
  4305  0D3A                     u4751:
  4306  0D3A  2CEB               	goto	l3060
  4307  0D3B                     u4750:
  4308  0D3B                     l3080:
  4309  0D3B  082B               	movf	___fldiv@rem+3,w
  4310  0D3C  042A               	iorwf	___fldiv@rem+2,w
  4311  0D3D  0429               	iorwf	___fldiv@rem+1,w
  4312  0D3E  0428               	iorwf	___fldiv@rem,w
  4313  0D3F  1903               	skipnz
  4314  0D40  2D42               	goto	u4761
  4315  0D41  2D43               	goto	u4760
  4316  0D42                     u4761:
  4317  0D42  2D62               	goto	l3094
  4318  0D43                     u4760:
  4319  0D43                     l3082:
  4320  0D43  142F               	bsf	___fldiv@grs,0
  4321  0D44  2D62               	goto	l3094
  4322  0D45                     l3084:
  4323  0D45  3001               	movlw	1
  4324  0D46  00F3               	movwf	??___fldiv
  4325  0D47                     u4775:
  4326  0D47  1003               	clrc
  4327  0D48  0DA4               	rlf	___fldiv@b,f
  4328  0D49  0DA5               	rlf	___fldiv@b+1,f
  4329  0D4A  0DA6               	rlf	___fldiv@b+2,f
  4330  0D4B  0DA7               	rlf	___fldiv@b+3,f
  4331  0D4C  0BF3               	decfsz	??___fldiv,f
  4332  0D4D  2D47               	goto	u4775
  4333  0D4E                     l3086:
  4334  0D4E  1FB2               	btfss	___fldiv@grs+3,7
  4335  0D4F  2D51               	goto	u4781
  4336  0D50  2D52               	goto	u4780
  4337  0D51                     u4781:
  4338  0D51  2D53               	goto	l3090
  4339  0D52                     u4780:
  4340  0D52                     l3088:
  4341  0D52  1424               	bsf	___fldiv@b,0
  4342  0D53                     l3090:
  4343  0D53  3001               	movlw	1
  4344  0D54  00F3               	movwf	??___fldiv
  4345  0D55                     u4795:
  4346  0D55  1003               	clrc
  4347  0D56  0DAF               	rlf	___fldiv@grs,f
  4348  0D57  0DB0               	rlf	___fldiv@grs+1,f
  4349  0D58  0DB1               	rlf	___fldiv@grs+2,f
  4350  0D59  0DB2               	rlf	___fldiv@grs+3,f
  4351  0D5A  0BF3               	decfsz	??___fldiv,f
  4352  0D5B  2D55               	goto	u4795
  4353  0D5C                     l3092:
  4354  0D5C  30FF               	movlw	255
  4355  0D5D  07AD               	addwf	___fldiv@new_exp,f
  4356  0D5E  1803               	skipnc
  4357  0D5F  0AAE               	incf	___fldiv@new_exp+1,f
  4358  0D60  30FF               	movlw	255
  4359  0D61  07AE               	addwf	___fldiv@new_exp+1,f
  4360  0D62                     l3094:
  4361  0D62  1FA6               	btfss	___fldiv@b+2,7
  4362  0D63  2D65               	goto	u4801
  4363  0D64  2D66               	goto	u4800
  4364  0D65                     u4801:
  4365  0D65  2D45               	goto	l3084
  4366  0D66                     u4800:
  4367  0D66                     l3096:
  4368  0D66  01B4               	clrf	___fldiv@aexp
  4369  0D67                     l3098:
  4370  0D67  1FB2               	btfss	___fldiv@grs+3,7
  4371  0D68  2D6A               	goto	u4811
  4372  0D69  2D6B               	goto	u4810
  4373  0D6A                     u4811:
  4374  0D6A  2D87               	goto	l3106
  4375  0D6B                     u4810:
  4376  0D6B                     l3100:
  4377  0D6B  30FF               	movlw	255
  4378  0D6C  052F               	andwf	___fldiv@grs,w
  4379  0D6D  00F3               	movwf	??___fldiv
  4380  0D6E  30FF               	movlw	255
  4381  0D6F  0530               	andwf	___fldiv@grs+1,w
  4382  0D70  00F4               	movwf	??___fldiv+1
  4383  0D71  30FF               	movlw	255
  4384  0D72  0531               	andwf	___fldiv@grs+2,w
  4385  0D73  00F5               	movwf	??___fldiv+2
  4386  0D74  307F               	movlw	127
  4387  0D75  0532               	andwf	___fldiv@grs+3,w
  4388  0D76  00F6               	movwf	??___fldiv+3
  4389  0D77  0876               	movf	??___fldiv+3,w
  4390  0D78  0475               	iorwf	??___fldiv+2,w
  4391  0D79  0474               	iorwf	??___fldiv+1,w
  4392  0D7A  0473               	iorwf	??___fldiv,w
  4393  0D7B  1903               	skipnz
  4394  0D7C  2D7E               	goto	u4821
  4395  0D7D  2D7F               	goto	u4820
  4396  0D7E                     u4821:
  4397  0D7E  2D82               	goto	l663
  4398  0D7F                     u4820:
  4399  0D7F                     l3102:
  4400  0D7F  01B4               	clrf	___fldiv@aexp
  4401  0D80  0AB4               	incf	___fldiv@aexp,f
  4402  0D81  2D87               	goto	l3106
  4403  0D82                     l663:
  4404  0D82  1C24               	btfss	___fldiv@b,0
  4405  0D83  2D85               	goto	u4831
  4406  0D84  2D86               	goto	u4830
  4407  0D85                     u4831:
  4408  0D85  2D87               	goto	l3106
  4409  0D86                     u4830:
  4410  0D86  2D7F               	goto	l3102
  4411  0D87                     l3106:
  4412  0D87  0834               	movf	___fldiv@aexp,w
  4413  0D88  1903               	btfsc	3,2
  4414  0D89  2D8B               	goto	u4841
  4415  0D8A  2D8C               	goto	u4840
  4416  0D8B                     u4841:
  4417  0D8B  2DBD               	goto	l3116
  4418  0D8C                     u4840:
  4419  0D8C                     l3108:
  4420  0D8C  3001               	movlw	1
  4421  0D8D  07A4               	addwf	___fldiv@b,f
  4422  0D8E  3000               	movlw	0
  4423  0D8F  1803               	skipnc
  4424  0D90  3001               	movlw	1
  4425  0D91  07A5               	addwf	___fldiv@b+1,f
  4426  0D92  3000               	movlw	0
  4427  0D93  1803               	skipnc
  4428  0D94  3001               	movlw	1
  4429  0D95  07A6               	addwf	___fldiv@b+2,f
  4430  0D96  3000               	movlw	0
  4431  0D97  1803               	skipnc
  4432  0D98  3001               	movlw	1
  4433  0D99  07A7               	addwf	___fldiv@b+3,f
  4434  0D9A                     l3110:
  4435  0D9A  1C27               	btfss	___fldiv@b+3,0
  4436  0D9B  2D9D               	goto	u4851
  4437  0D9C  2D9E               	goto	u4850
  4438  0D9D                     u4851:
  4439  0D9D  2DBD               	goto	l3116
  4440  0D9E                     u4850:
  4441  0D9E                     l3112:
  4442  0D9E  0824               	movf	___fldiv@b,w
  4443  0D9F  00F3               	movwf	??___fldiv
  4444  0DA0  0825               	movf	___fldiv@b+1,w
  4445  0DA1  00F4               	movwf	??___fldiv+1
  4446  0DA2  0826               	movf	___fldiv@b+2,w
  4447  0DA3  00F5               	movwf	??___fldiv+2
  4448  0DA4  0827               	movf	___fldiv@b+3,w
  4449  0DA5  00F6               	movwf	??___fldiv+3
  4450  0DA6  3001               	movlw	1
  4451  0DA7  00F7               	movwf	??___fldiv+4
  4452  0DA8                     u4865:
  4453  0DA8  0D76               	rlf	??___fldiv+3,w
  4454  0DA9  0CF6               	rrf	??___fldiv+3,f
  4455  0DAA  0CF5               	rrf	??___fldiv+2,f
  4456  0DAB  0CF4               	rrf	??___fldiv+1,f
  4457  0DAC  0CF3               	rrf	??___fldiv,f
  4458  0DAD                     u4860:
  4459  0DAD  0BF7               	decfsz	??___fldiv+4,f
  4460  0DAE  2DA8               	goto	u4865
  4461  0DAF  0876               	movf	??___fldiv+3,w
  4462  0DB0  00A7               	movwf	___fldiv@b+3
  4463  0DB1  0875               	movf	??___fldiv+2,w
  4464  0DB2  00A6               	movwf	___fldiv@b+2
  4465  0DB3  0874               	movf	??___fldiv+1,w
  4466  0DB4  00A5               	movwf	___fldiv@b+1
  4467  0DB5  0873               	movf	??___fldiv,w
  4468  0DB6  00A4               	movwf	___fldiv@b
  4469  0DB7                     l3114:
  4470  0DB7  3001               	movlw	1
  4471  0DB8  07AD               	addwf	___fldiv@new_exp,f
  4472  0DB9  1803               	skipnc
  4473  0DBA  0AAE               	incf	___fldiv@new_exp+1,f
  4474  0DBB  3000               	movlw	0
  4475  0DBC  07AE               	addwf	___fldiv@new_exp+1,f
  4476  0DBD                     l3116:
  4477  0DBD  082E               	movf	___fldiv@new_exp+1,w
  4478  0DBE  3A80               	xorlw	128
  4479  0DBF  00FF               	movwf	btemp+1
  4480  0DC0  3080               	movlw	128
  4481  0DC1  027F               	subwf	btemp+1,w
  4482  0DC2  1D03               	skipz
  4483  0DC3  2DC6               	goto	u4875
  4484  0DC4  30FF               	movlw	255
  4485  0DC5  022D               	subwf	___fldiv@new_exp,w
  4486  0DC6                     u4875:
  4487  0DC6  1C03               	skipc
  4488  0DC7  2DC9               	goto	u4871
  4489  0DC8  2DCA               	goto	u4870
  4490  0DC9                     u4871:
  4491  0DC9  2DD8               	goto	l3120
  4492  0DCA                     u4870:
  4493  0DCA                     l3118:
  4494  0DCA  30FF               	movlw	255
  4495  0DCB  1283               	bcf	3,5	;RP0=0, select bank0
  4496  0DCC  1303               	bcf	3,6	;RP1=0, select bank0
  4497  0DCD  00AD               	movwf	___fldiv@new_exp
  4498  0DCE  3000               	movlw	0
  4499  0DCF  00AE               	movwf	___fldiv@new_exp+1
  4500  0DD0  3000               	movlw	0
  4501  0DD1  00A7               	movwf	___fldiv@b+3
  4502  0DD2  3000               	movlw	0
  4503  0DD3  00A6               	movwf	___fldiv@b+2
  4504  0DD4  3000               	movlw	0
  4505  0DD5  00A5               	movwf	___fldiv@b+1
  4506  0DD6  3000               	movlw	0
  4507  0DD7  00A4               	movwf	___fldiv@b
  4508  0DD8                     l3120:
  4509  0DD8  1283               	bcf	3,5	;RP0=0, select bank0
  4510  0DD9  1303               	bcf	3,6	;RP1=0, select bank0
  4511  0DDA  082E               	movf	___fldiv@new_exp+1,w
  4512  0DDB  3A80               	xorlw	128
  4513  0DDC  00FF               	movwf	btemp+1
  4514  0DDD  3080               	movlw	128
  4515  0DDE  027F               	subwf	btemp+1,w
  4516  0DDF  1D03               	skipz
  4517  0DE0  2DE3               	goto	u4885
  4518  0DE1  3001               	movlw	1
  4519  0DE2  022D               	subwf	___fldiv@new_exp,w
  4520  0DE3                     u4885:
  4521  0DE3  1803               	skipnc
  4522  0DE4  2DE6               	goto	u4881
  4523  0DE5  2DE7               	goto	u4880
  4524  0DE6                     u4881:
  4525  0DE6  2DF4               	goto	l669
  4526  0DE7                     u4880:
  4527  0DE7                     l3122:
  4528  0DE7  1283               	bcf	3,5	;RP0=0, select bank0
  4529  0DE8  1303               	bcf	3,6	;RP1=0, select bank0
  4530  0DE9  01AD               	clrf	___fldiv@new_exp
  4531  0DEA  01AE               	clrf	___fldiv@new_exp+1
  4532  0DEB                     l3124:
  4533  0DEB  3000               	movlw	0
  4534  0DEC  00A7               	movwf	___fldiv@b+3
  4535  0DED  3000               	movlw	0
  4536  0DEE  00A6               	movwf	___fldiv@b+2
  4537  0DEF  3000               	movlw	0
  4538  0DF0  00A5               	movwf	___fldiv@b+1
  4539  0DF1  3000               	movlw	0
  4540  0DF2  00A4               	movwf	___fldiv@b
  4541  0DF3                     l3126:
  4542  0DF3  01AC               	clrf	___fldiv@sign
  4543  0DF4                     l669:
  4544  0DF4  1283               	bcf	3,5	;RP0=0, select bank0
  4545  0DF5  1303               	bcf	3,6	;RP1=0, select bank0
  4546  0DF6  082D               	movf	___fldiv@new_exp,w
  4547  0DF7  00F3               	movwf	??___fldiv
  4548  0DF8  0873               	movf	??___fldiv,w
  4549  0DF9  00B3               	movwf	___fldiv@bexp
  4550  0DFA                     l3128:
  4551  0DFA  1C33               	btfss	___fldiv@bexp,0
  4552  0DFB  2DFD               	goto	u4891
  4553  0DFC  2DFE               	goto	u4890
  4554  0DFD                     u4891:
  4555  0DFD  2E00               	goto	l3132
  4556  0DFE                     u4890:
  4557  0DFE                     l3130:
  4558  0DFE  17A6               	bsf	___fldiv@b+2,7
  4559  0DFF  2E04               	goto	l671
  4560  0E00                     l3132:
  4561  0E00  307F               	movlw	127
  4562  0E01  00F3               	movwf	??___fldiv
  4563  0E02  0873               	movf	??___fldiv,w
  4564  0E03  05A6               	andwf	___fldiv@b+2,f
  4565  0E04                     l671:
  4566  0E04  0833               	movf	___fldiv@bexp,w
  4567  0E05  00F3               	movwf	??___fldiv
  4568  0E06  1003               	clrc
  4569  0E07  0C73               	rrf	??___fldiv,w
  4570  0E08  00F4               	movwf	??___fldiv+1
  4571  0E09  0874               	movf	??___fldiv+1,w
  4572  0E0A  00A7               	movwf	___fldiv@b+3
  4573  0E0B  082C               	movf	___fldiv@sign,w
  4574  0E0C  00F3               	movwf	??___fldiv
  4575  0E0D  0873               	movf	??___fldiv,w
  4576  0E0E  04A7               	iorwf	___fldiv@b+3,f
  4577  0E0F  2CA8               	goto	l3040
  4578  0E10                     l649:
  4579  0E10  0008               	return
  4580  0E11                     __end_of___fldiv:
  4581                           
  4582                           	psect	text13
  4583  0954                     __ptext13:	
  4584 ;; *************** function _SendLCDString *****************
  4585 ;; Defined at:
  4586 ;;		line 326 in file "main.c"
  4587 ;; Parameters:    Size  Location     Type
  4588 ;;  string          1    wreg     PTR const unsigned char 
  4589 ;;		 -> STR_5(17), STR_4(33), STR_3(28), STR_2(1), 
  4590 ;;		 -> STR_1(15), 
  4591 ;; Auto vars:     Size  Location     Type
  4592 ;;  string          1    0[BANK0 ] PTR const unsigned char 
  4593 ;;		 -> STR_5(17), STR_4(33), STR_3(28), STR_2(1), 
  4594 ;;		 -> STR_1(15), 
  4595 ;;  i               1    1[BANK0 ] unsigned char 
  4596 ;; Return value:  Size  Location     Type
  4597 ;;                  1    wreg      void 
  4598 ;; Registers used:
  4599 ;;		wreg, fsr0l, fsr0h, status,2, status,0, pclath, cstack
  4600 ;; Tracked objects:
  4601 ;;		On entry : 0/0
  4602 ;;		On exit  : 0/0
  4603 ;;		Unchanged: 0/0
  4604 ;; Data sizes:     COMMON   BANK0   BANK1   BANK3   BANK2
  4605 ;;      Params:         0       0       0       0       0
  4606 ;;      Locals:         0       2       0       0       0
  4607 ;;      Temps:          1       0       0       0       0
  4608 ;;      Totals:         1       2       0       0       0
  4609 ;;Total ram usage:        3 bytes
  4610 ;; Hardware stack levels used: 1
  4611 ;; Hardware stack levels required when called: 2
  4612 ;; This function calls:
  4613 ;;		_SendLCD
  4614 ;; This function is called by:
  4615 ;;		_main
  4616 ;;		_ManageDisplays
  4617 ;;		_UpdateLCDView
  4618 ;; This function uses a non-reentrant model
  4619 ;;
  4620                           
  4621                           
  4622                           ;psect for function _SendLCDString
  4623  0954                     _SendLCDString:
  4624                           
  4625                           ;incstack = 0
  4626                           ; Regs used in _SendLCDString: [wreg-fsr0h+status,2+status,0+pclath+cstack]
  4627                           ;SendLCDString@string stored from wreg
  4628  0954  1283               	bcf	3,5	;RP0=0, select bank0
  4629  0955  1303               	bcf	3,6	;RP1=0, select bank0
  4630  0956  00A0               	movwf	SendLCDString@string
  4631  0957                     l3138:
  4632                           
  4633                           ;main.c: 326: void SendLCDString(const char *string);main.c: 327: {;main.c: 328:     cha
      +                          r i = 0;
  4634  0957  01A1               	clrf	SendLCDString@i
  4635                           
  4636                           ;main.c: 329:     while(string[i] != '\0')
  4637  0958  29A4               	goto	l3158
  4638  0959                     l3140:
  4639                           
  4640                           ;main.c: 330:     {;main.c: 331:         if (i<16)
  4641  0959  3010               	movlw	16
  4642  095A  0221               	subwf	SendLCDString@i,w
  4643  095B  1803               	skipnc
  4644  095C  295E               	goto	u4901
  4645  095D  295F               	goto	u4900
  4646  095E                     u4901:
  4647  095E  2975               	goto	l3146
  4648  095F                     u4900:
  4649  095F                     l3142:
  4650                           
  4651                           ;main.c: 332:         {;main.c: 333:             SendLCD(string[i], 0x01);
  4652  095F  01F3               	clrf	SendLCD@type
  4653  0960  0AF3               	incf	SendLCD@type,f
  4654  0961  0821               	movf	SendLCDString@i,w
  4655  0962  0720               	addwf	SendLCDString@string,w
  4656  0963  0084               	movwf	4
  4657  0964  120A  158A  2000  120A  158A  	fcall	stringdir
  4658  0969  160A  118A  2706  120A  158A  	fcall	_SendLCD
  4659  096E                     l3144:
  4660                           
  4661                           ;main.c: 334:             i++;
  4662  096E  3001               	movlw	1
  4663  096F  00F7               	movwf	??_SendLCDString
  4664  0970  0877               	movf	??_SendLCDString,w
  4665  0971  1283               	bcf	3,5	;RP0=0, select bank0
  4666  0972  1303               	bcf	3,6	;RP1=0, select bank0
  4667  0973  07A1               	addwf	SendLCDString@i,f
  4668                           
  4669                           ;main.c: 335:         }
  4670  0974  29A4               	goto	l3158
  4671  0975                     l3146:
  4672  0975  3010               	movlw	16
  4673  0976  0621               	xorwf	SendLCDString@i,w
  4674  0977  1D03               	btfss	3,2
  4675  0978  297A               	goto	u4911
  4676  0979  297B               	goto	u4910
  4677  097A                     u4911:
  4678  097A  2994               	goto	l3154
  4679  097B                     u4910:
  4680  097B                     l3148:
  4681                           
  4682                           ;main.c: 337:         {;main.c: 338:             SendLCD(0xC0, 0x00);
  4683  097B  01F3               	clrf	SendLCD@type
  4684  097C  30C0               	movlw	192
  4685  097D  160A  118A  2706  120A  158A  	fcall	_SendLCD
  4686  0982                     l3150:
  4687                           
  4688                           ;main.c: 339:             SendLCD(string[i], 0x01);
  4689  0982  01F3               	clrf	SendLCD@type
  4690  0983  0AF3               	incf	SendLCD@type,f
  4691  0984  1283               	bcf	3,5	;RP0=0, select bank0
  4692  0985  1303               	bcf	3,6	;RP1=0, select bank0
  4693  0986  0821               	movf	SendLCDString@i,w
  4694  0987  0720               	addwf	SendLCDString@string,w
  4695  0988  0084               	movwf	4
  4696  0989  120A  158A  2000  120A  158A  	fcall	stringdir
  4697  098E  160A  118A  2706  120A  158A  	fcall	_SendLCD
  4698  0993  296E               	goto	l3144
  4699  0994                     l3154:
  4700                           
  4701                           ;main.c: 343:         {;main.c: 344:             SendLCD(string[i], 0x01);
  4702  0994  01F3               	clrf	SendLCD@type
  4703  0995  0AF3               	incf	SendLCD@type,f
  4704  0996  0821               	movf	SendLCDString@i,w
  4705  0997  0720               	addwf	SendLCDString@string,w
  4706  0998  0084               	movwf	4
  4707  0999  120A  158A  2000  120A  158A  	fcall	stringdir
  4708  099E  160A  118A  2706  120A  158A  	fcall	_SendLCD
  4709  09A3  296E               	goto	l3144
  4710  09A4                     l3158:
  4711                           
  4712                           ;main.c: 329:     while(string[i] != '\0')
  4713  09A4  0821               	movf	SendLCDString@i,w
  4714  09A5  0720               	addwf	SendLCDString@string,w
  4715  09A6  0084               	movwf	4
  4716  09A7  120A  158A  2000  120A  158A  	fcall	stringdir
  4717  09AC  3A00               	xorlw	0
  4718  09AD  1D03               	skipz
  4719  09AE  29B0               	goto	u4921
  4720  09AF  29B1               	goto	u4920
  4721  09B0                     u4921:
  4722  09B0  2959               	goto	l3140
  4723  09B1                     u4920:
  4724  09B1                     l198:
  4725  09B1  0008               	return
  4726  09B2                     __end_of_SendLCDString:
  4727                           
  4728                           	psect	text14
  4729  062A                     __ptext14:	
  4730 ;; *************** function _HandleKeypadReading *****************
  4731 ;; Defined at:
  4732 ;;		line 214 in file "main.c"
  4733 ;; Parameters:    Size  Location     Type
  4734 ;;  value           1    wreg     unsigned char 
  4735 ;; Auto vars:     Size  Location     Type
  4736 ;;  value           1   24[BANK0 ] unsigned char 
  4737 ;; Return value:  Size  Location     Type
  4738 ;;                  1    wreg      void 
  4739 ;; Registers used:
  4740 ;;		wreg, status,2, status,0, btemp+1, pclath, cstack
  4741 ;; Tracked objects:
  4742 ;;		On entry : 0/0
  4743 ;;		On exit  : 0/0
  4744 ;;		Unchanged: 0/0
  4745 ;; Data sizes:     COMMON   BANK0   BANK1   BANK3   BANK2
  4746 ;;      Params:         0       0       0       0       0
  4747 ;;      Locals:         0       1       0       0       0
  4748 ;;      Temps:          1       0       0       0       0
  4749 ;;      Totals:         1       1       0       0       0
  4750 ;;Total ram usage:        2 bytes
  4751 ;; Hardware stack levels used: 1
  4752 ;; Hardware stack levels required when called: 3
  4753 ;; This function calls:
  4754 ;;		___fladd
  4755 ;;		___flge
  4756 ;;		___flsub
  4757 ;; This function is called by:
  4758 ;;		_ManageDisplays
  4759 ;; This function uses a non-reentrant model
  4760 ;;
  4761                           
  4762                           
  4763                           ;psect for function _HandleKeypadReading
  4764  062A                     _HandleKeypadReading:
  4765                           
  4766                           ;incstack = 0
  4767                           ; Regs used in _HandleKeypadReading: [wreg+status,2+status,0+btemp+1+pclath+cstack]
  4768                           ;HandleKeypadReading@value stored from wreg
  4769  062A  1283               	bcf	3,5	;RP0=0, select bank0
  4770  062B  1303               	bcf	3,6	;RP1=0, select bank0
  4771  062C  00B8               	movwf	HandleKeypadReading@value
  4772  062D                     l3160:
  4773                           
  4774                           ;main.c: 214: void HandleKeypadReading(unsigned char value);main.c: 215: {;main.c: 216: 
      +                              if(value == 6)
  4775  062D  3006               	movlw	6
  4776  062E  0638               	xorwf	HandleKeypadReading@value,w
  4777  062F  1D03               	btfss	3,2
  4778  0630  2E32               	goto	u4931
  4779  0631  2E33               	goto	u4930
  4780  0632                     u4931:
  4781  0632  2E37               	goto	l146
  4782  0633                     u4930:
  4783  0633                     l3162:
  4784                           
  4785                           ;main.c: 217:         currentDisplay ++;
  4786  0633  3001               	movlw	1
  4787  0634  00F7               	movwf	??_HandleKeypadReading
  4788  0635  0877               	movf	??_HandleKeypadReading,w
  4789  0636  07F8               	addwf	_currentDisplay,f
  4790  0637                     l146:
  4791                           
  4792                           ;main.c: 219:     if(value == 4)
  4793  0637  3004               	movlw	4
  4794  0638  0638               	xorwf	HandleKeypadReading@value,w
  4795  0639  1D03               	btfss	3,2
  4796  063A  2E3C               	goto	u4941
  4797  063B  2E3D               	goto	u4940
  4798  063C                     u4941:
  4799  063C  2E3F               	goto	l147
  4800  063D                     u4940:
  4801  063D                     l3164:
  4802                           
  4803                           ;main.c: 220:         currentDisplay --;
  4804  063D  3001               	movlw	1
  4805  063E  02F8               	subwf	_currentDisplay,f
  4806  063F                     l147:
  4807                           
  4808                           ;main.c: 222:     if(value == 2 && currentDisplay == 3)
  4809  063F  3002               	movlw	2
  4810  0640  0638               	xorwf	HandleKeypadReading@value,w
  4811  0641  1D03               	btfss	3,2
  4812  0642  2E44               	goto	u4951
  4813  0643  2E45               	goto	u4950
  4814  0644                     u4951:
  4815  0644  2E6A               	goto	l3170
  4816  0645                     u4950:
  4817  0645                     l3166:
  4818  0645  3003               	movlw	3
  4819  0646  0678               	xorwf	_currentDisplay,w
  4820  0647  1D03               	btfss	3,2
  4821  0648  2E4A               	goto	u4961
  4822  0649  2E4B               	goto	u4960
  4823  064A                     u4961:
  4824  064A  2E6A               	goto	l3170
  4825  064B                     u4960:
  4826  064B                     l3168:
  4827                           
  4828                           ;main.c: 223:         setTemp += 0.1;
  4829  064B  303D               	movlw	61
  4830  064C  00A3               	movwf	___fladd@b+3
  4831  064D  30CC               	movlw	204
  4832  064E  00A2               	movwf	___fladd@b+2
  4833  064F  30CC               	movlw	204
  4834  0650  00A1               	movwf	___fladd@b+1
  4835  0651  30CD               	movlw	205
  4836  0652  00A0               	movwf	___fladd@b
  4837  0653  0869               	movf	_setTemp+3,w
  4838  0654  00A7               	movwf	___fladd@a+3
  4839  0655  0868               	movf	_setTemp+2,w
  4840  0656  00A6               	movwf	___fladd@a+2
  4841  0657  0867               	movf	_setTemp+1,w
  4842  0658  00A5               	movwf	___fladd@a+1
  4843  0659  0866               	movf	_setTemp,w
  4844  065A  00A4               	movwf	___fladd@a
  4845  065B  120A  118A  239A  120A  118A  	fcall	___fladd
  4846  0660  1283               	bcf	3,5	;RP0=0, select bank0
  4847  0661  1303               	bcf	3,6	;RP1=0, select bank0
  4848  0662  0823               	movf	?___fladd+3,w
  4849  0663  00E9               	movwf	_setTemp+3
  4850  0664  0822               	movf	?___fladd+2,w
  4851  0665  00E8               	movwf	_setTemp+2
  4852  0666  0821               	movf	?___fladd+1,w
  4853  0667  00E7               	movwf	_setTemp+1
  4854  0668  0820               	movf	?___fladd,w
  4855  0669  00E6               	movwf	_setTemp
  4856  066A                     l3170:
  4857                           
  4858                           ;main.c: 225:     if(value == 8 && currentDisplay == 3)
  4859  066A  3008               	movlw	8
  4860  066B  0638               	xorwf	HandleKeypadReading@value,w
  4861  066C  1D03               	btfss	3,2
  4862  066D  2E6F               	goto	u4971
  4863  066E  2E70               	goto	u4970
  4864  066F                     u4971:
  4865  066F  2E95               	goto	l3176
  4866  0670                     u4970:
  4867  0670                     l3172:
  4868  0670  3003               	movlw	3
  4869  0671  0678               	xorwf	_currentDisplay,w
  4870  0672  1D03               	btfss	3,2
  4871  0673  2E75               	goto	u4981
  4872  0674  2E76               	goto	u4980
  4873  0675                     u4981:
  4874  0675  2E95               	goto	l3176
  4875  0676                     u4980:
  4876  0676                     l3174:
  4877                           
  4878                           ;main.c: 226:         setTemp -= 0.1;
  4879  0676  303D               	movlw	61
  4880  0677  00B3               	movwf	___flsub@a+3
  4881  0678  30CC               	movlw	204
  4882  0679  00B2               	movwf	___flsub@a+2
  4883  067A  30CC               	movlw	204
  4884  067B  00B1               	movwf	___flsub@a+1
  4885  067C  30CD               	movlw	205
  4886  067D  00B0               	movwf	___flsub@a
  4887  067E  0869               	movf	_setTemp+3,w
  4888  067F  00B7               	movwf	___flsub@b+3
  4889  0680  0868               	movf	_setTemp+2,w
  4890  0681  00B6               	movwf	___flsub@b+2
  4891  0682  0867               	movf	_setTemp+1,w
  4892  0683  00B5               	movwf	___flsub@b+1
  4893  0684  0866               	movf	_setTemp,w
  4894  0685  00B4               	movwf	___flsub@b
  4895  0686  160A  118A  2665  120A  118A  	fcall	___flsub
  4896  068B  1283               	bcf	3,5	;RP0=0, select bank0
  4897  068C  1303               	bcf	3,6	;RP1=0, select bank0
  4898  068D  0833               	movf	?___flsub+3,w
  4899  068E  00E9               	movwf	_setTemp+3
  4900  068F  0832               	movf	?___flsub+2,w
  4901  0690  00E8               	movwf	_setTemp+2
  4902  0691  0831               	movf	?___flsub+1,w
  4903  0692  00E7               	movwf	_setTemp+1
  4904  0693  0830               	movf	?___flsub,w
  4905  0694  00E6               	movwf	_setTemp
  4906  0695                     l3176:
  4907                           
  4908                           ;main.c: 228:     if(currentDisplay >= 4)
  4909  0695  3004               	movlw	4
  4910  0696  0278               	subwf	_currentDisplay,w
  4911  0697  1C03               	skipc
  4912  0698  2E9A               	goto	u4991
  4913  0699  2E9B               	goto	u4990
  4914  069A                     u4991:
  4915  069A  2E9D               	goto	l3180
  4916  069B                     u4990:
  4917  069B                     l3178:
  4918                           
  4919                           ;main.c: 229:         currentDisplay = 1;
  4920  069B  01F8               	clrf	_currentDisplay
  4921  069C  0AF8               	incf	_currentDisplay,f
  4922  069D                     l3180:
  4923                           
  4924                           ;main.c: 231:     if(currentDisplay == 0)
  4925  069D  0878               	movf	_currentDisplay,w
  4926  069E  1D03               	btfss	3,2
  4927  069F  2EA1               	goto	u5001
  4928  06A0  2EA2               	goto	u5000
  4929  06A1                     u5001:
  4930  06A1  2EA6               	goto	l3184
  4931  06A2                     u5000:
  4932  06A2                     l3182:
  4933                           
  4934                           ;main.c: 232:         currentDisplay = 4 -1;
  4935  06A2  3003               	movlw	3
  4936  06A3  00F7               	movwf	??_HandleKeypadReading
  4937  06A4  0877               	movf	??_HandleKeypadReading,w
  4938  06A5  00F8               	movwf	_currentDisplay
  4939  06A6                     l3184:
  4940                           
  4941                           ;main.c: 234:     if(setTemp > maxSetTemp)
  4942  06A6  3042               	movlw	66
  4943  06A7  00A3               	movwf	___flge@ff1+3
  4944  06A8  300C               	movlw	12
  4945  06A9  00A2               	movwf	___flge@ff1+2
  4946  06AA  3000               	movlw	0
  4947  06AB  00A1               	movwf	___flge@ff1+1
  4948  06AC  3000               	movlw	0
  4949  06AD  00A0               	movwf	___flge@ff1
  4950  06AE  0869               	movf	_setTemp+3,w
  4951  06AF  00A7               	movwf	___flge@ff2+3
  4952  06B0  0868               	movf	_setTemp+2,w
  4953  06B1  00A6               	movwf	___flge@ff2+2
  4954  06B2  0867               	movf	_setTemp+1,w
  4955  06B3  00A5               	movwf	___flge@ff2+1
  4956  06B4  0866               	movf	_setTemp,w
  4957  06B5  00A4               	movwf	___flge@ff2
  4958  06B6  120A  158A  2390  120A  118A  	fcall	___flge
  4959  06BB  1803               	btfsc	3,0
  4960  06BC  2EBE               	goto	u5011
  4961  06BD  2EBF               	goto	u5010
  4962  06BE                     u5011:
  4963  06BE  2EC9               	goto	l3188
  4964  06BF                     u5010:
  4965  06BF                     l3186:
  4966                           
  4967                           ;main.c: 235:         setTemp = maxSetTemp;
  4968  06BF  3042               	movlw	66
  4969  06C0  1283               	bcf	3,5	;RP0=0, select bank0
  4970  06C1  1303               	bcf	3,6	;RP1=0, select bank0
  4971  06C2  00E9               	movwf	_setTemp+3
  4972  06C3  300C               	movlw	12
  4973  06C4  00E8               	movwf	_setTemp+2
  4974  06C5  3000               	movlw	0
  4975  06C6  00E7               	movwf	_setTemp+1
  4976  06C7  3000               	movlw	0
  4977  06C8  00E6               	movwf	_setTemp
  4978  06C9                     l3188:
  4979                           
  4980                           ;main.c: 237:     if(setTemp < minSetTemp)
  4981  06C9  1283               	bcf	3,5	;RP0=0, select bank0
  4982  06CA  1303               	bcf	3,6	;RP1=0, select bank0
  4983  06CB  0869               	movf	_setTemp+3,w
  4984  06CC  00A3               	movwf	___flge@ff1+3
  4985  06CD  0868               	movf	_setTemp+2,w
  4986  06CE  00A2               	movwf	___flge@ff1+2
  4987  06CF  0867               	movf	_setTemp+1,w
  4988  06D0  00A1               	movwf	___flge@ff1+1
  4989  06D1  0866               	movf	_setTemp,w
  4990  06D2  00A0               	movwf	___flge@ff1
  4991  06D3  3041               	movlw	65
  4992  06D4  00A7               	movwf	___flge@ff2+3
  4993  06D5  3040               	movlw	64
  4994  06D6  00A6               	movwf	___flge@ff2+2
  4995  06D7  3000               	movlw	0
  4996  06D8  00A5               	movwf	___flge@ff2+1
  4997  06D9  3000               	movlw	0
  4998  06DA  00A4               	movwf	___flge@ff2
  4999  06DB  120A  158A  2390  120A  118A  	fcall	___flge
  5000  06E0  1803               	btfsc	3,0
  5001  06E1  2EE3               	goto	u5021
  5002  06E2  2EE4               	goto	u5020
  5003  06E3                     u5021:
  5004  06E3  2EEE               	goto	l154
  5005  06E4                     u5020:
  5006  06E4                     l3190:
  5007                           
  5008                           ;main.c: 238:         setTemp = minSetTemp;
  5009  06E4  3041               	movlw	65
  5010  06E5  1283               	bcf	3,5	;RP0=0, select bank0
  5011  06E6  1303               	bcf	3,6	;RP1=0, select bank0
  5012  06E7  00E9               	movwf	_setTemp+3
  5013  06E8  3040               	movlw	64
  5014  06E9  00E8               	movwf	_setTemp+2
  5015  06EA  3000               	movlw	0
  5016  06EB  00E7               	movwf	_setTemp+1
  5017  06EC  3000               	movlw	0
  5018  06ED  00E6               	movwf	_setTemp
  5019  06EE                     l154:
  5020  06EE  0008               	return
  5021  06EF                     __end_of_HandleKeypadReading:
  5022                           
  5023                           	psect	text15
  5024  1665                     __ptext15:	
  5025 ;; *************** function ___flsub *****************
  5026 ;; Defined at:
  5027 ;;		line 242 in file "C:\Program Files\Microchip\xc8\v2.32\pic\sources\c90\common\sprcadd.c"
  5028 ;; Parameters:    Size  Location     Type
  5029 ;;  a               4   16[BANK0 ] void 
  5030 ;;  b               4   20[BANK0 ] void 
  5031 ;; Auto vars:     Size  Location     Type
  5032 ;;		None
  5033 ;; Return value:  Size  Location     Type
  5034 ;;                  4   16[BANK0 ] void 
  5035 ;; Registers used:
  5036 ;;		wreg, status,2, status,0, btemp+1, pclath, cstack
  5037 ;; Tracked objects:
  5038 ;;		On entry : 0/0
  5039 ;;		On exit  : 0/0
  5040 ;;		Unchanged: 0/0
  5041 ;; Data sizes:     COMMON   BANK0   BANK1   BANK3   BANK2
  5042 ;;      Params:         0       8       0       0       0
  5043 ;;      Locals:         0       0       0       0       0
  5044 ;;      Temps:          0       0       0       0       0
  5045 ;;      Totals:         0       8       0       0       0
  5046 ;;Total ram usage:        8 bytes
  5047 ;; Hardware stack levels used: 1
  5048 ;; Hardware stack levels required when called: 2
  5049 ;; This function calls:
  5050 ;;		___fladd
  5051 ;; This function is called by:
  5052 ;;		_HandleKeypadReading
  5053 ;;		_UpdateLCDViewWithNumber
  5054 ;; This function uses a non-reentrant model
  5055 ;;
  5056                           
  5057                           
  5058                           ;psect for function ___flsub
  5059  1665                     ___flsub:
  5060  1665                     l2990:	
  5061                           ;incstack = 0
  5062                           ; Regs used in ___flsub: [wreg+status,2+status,0+btemp+1+pclath+cstack]
  5063                           
  5064  1665  3080               	movlw	128
  5065  1666  1283               	bcf	3,5	;RP0=0, select bank0
  5066  1667  1303               	bcf	3,6	;RP1=0, select bank0
  5067  1668  06B3               	xorwf	___flsub@a+3,f
  5068  1669                     l2992:
  5069  1669  0837               	movf	___flsub@b+3,w
  5070  166A  00A3               	movwf	___fladd@b+3
  5071  166B  0836               	movf	___flsub@b+2,w
  5072  166C  00A2               	movwf	___fladd@b+2
  5073  166D  0835               	movf	___flsub@b+1,w
  5074  166E  00A1               	movwf	___fladd@b+1
  5075  166F  0834               	movf	___flsub@b,w
  5076  1670  00A0               	movwf	___fladd@b
  5077  1671  0833               	movf	___flsub@a+3,w
  5078  1672  00A7               	movwf	___fladd@a+3
  5079  1673  0832               	movf	___flsub@a+2,w
  5080  1674  00A6               	movwf	___fladd@a+2
  5081  1675  0831               	movf	___flsub@a+1,w
  5082  1676  00A5               	movwf	___fladd@a+1
  5083  1677  0830               	movf	___flsub@a,w
  5084  1678  00A4               	movwf	___fladd@a
  5085  1679  120A  118A  239A  160A  118A  	fcall	___fladd
  5086  167E  1283               	bcf	3,5	;RP0=0, select bank0
  5087  167F  1303               	bcf	3,6	;RP1=0, select bank0
  5088  1680  0823               	movf	?___fladd+3,w
  5089  1681  00B3               	movwf	?___flsub+3
  5090  1682  0822               	movf	?___fladd+2,w
  5091  1683  00B2               	movwf	?___flsub+2
  5092  1684  0821               	movf	?___fladd+1,w
  5093  1685  00B1               	movwf	?___flsub+1
  5094  1686  0820               	movf	?___fladd,w
  5095  1687  00B0               	movwf	?___flsub
  5096  1688                     l637:
  5097  1688  0008               	return
  5098  1689                     __end_of___flsub:
  5099                           
  5100                           	psect	text16
  5101  039A                     __ptext16:	
  5102 ;; *************** function ___fladd *****************
  5103 ;; Defined at:
  5104 ;;		line 10 in file "C:\Program Files\Microchip\xc8\v2.32\pic\sources\c90\common\sprcadd.c"
  5105 ;; Parameters:    Size  Location     Type
  5106 ;;  b               4    0[BANK0 ] void 
  5107 ;;  a               4    4[BANK0 ] void 
  5108 ;; Auto vars:     Size  Location     Type
  5109 ;;  grs             1    6[COMMON] unsigned char 
  5110 ;;  bexp            1    5[COMMON] unsigned char 
  5111 ;;  aexp            1    4[COMMON] unsigned char 
  5112 ;;  signs           1    3[COMMON] unsigned char 
  5113 ;; Return value:  Size  Location     Type
  5114 ;;                  4    0[BANK0 ] unsigned char 
  5115 ;; Registers used:
  5116 ;;		wreg, status,2, status,0, btemp+1
  5117 ;; Tracked objects:
  5118 ;;		On entry : 0/0
  5119 ;;		On exit  : 0/0
  5120 ;;		Unchanged: 0/0
  5121 ;; Data sizes:     COMMON   BANK0   BANK1   BANK3   BANK2
  5122 ;;      Params:         0       8       0       0       0
  5123 ;;      Locals:         4       0       0       0       0
  5124 ;;      Temps:          0       8       0       0       0
  5125 ;;      Totals:         4      16       0       0       0
  5126 ;;Total ram usage:       20 bytes
  5127 ;; Hardware stack levels used: 1
  5128 ;; Hardware stack levels required when called: 1
  5129 ;; This function calls:
  5130 ;;		Nothing
  5131 ;; This function is called by:
  5132 ;;		_HandleKeypadReading
  5133 ;;		_ReadHumidity
  5134 ;;		_ReadTemperature
  5135 ;;		___flsub
  5136 ;; This function uses a non-reentrant model
  5137 ;;
  5138                           
  5139                           
  5140                           ;psect for function ___fladd
  5141  039A                     ___fladd:
  5142  039A                     l2744:	
  5143                           ;incstack = 0
  5144                           ; Regs used in ___fladd: [wreg+status,2+status,0+btemp+1]
  5145                           
  5146  039A  1283               	bcf	3,5	;RP0=0, select bank0
  5147  039B  1303               	bcf	3,6	;RP1=0, select bank0
  5148  039C  0823               	movf	___fladd@b+3,w
  5149  039D  3980               	andlw	128
  5150  039E  00A8               	movwf	??___fladd
  5151  039F  0828               	movf	??___fladd,w
  5152  03A0  00F3               	movwf	___fladd@signs
  5153  03A1                     l2746:
  5154  03A1  0823               	movf	___fladd@b+3,w
  5155  03A2  00A8               	movwf	??___fladd
  5156  03A3  0728               	addwf	??___fladd,w
  5157  03A4  00A9               	movwf	??___fladd+1
  5158  03A5  0829               	movf	??___fladd+1,w
  5159  03A6  00F5               	movwf	___fladd@bexp
  5160  03A7                     l2748:
  5161  03A7  1FA2               	btfss	___fladd@b+2,7
  5162  03A8  2BAA               	goto	u4031
  5163  03A9  2BAB               	goto	u4030
  5164  03AA                     u4031:
  5165  03AA  2BAC               	goto	l2752
  5166  03AB                     u4030:
  5167  03AB                     l2750:
  5168  03AB  1475               	bsf	___fladd@bexp,0
  5169  03AC                     l2752:
  5170  03AC  0875               	movf	___fladd@bexp,w
  5171  03AD  1903               	btfsc	3,2
  5172  03AE  2BB0               	goto	u4041
  5173  03AF  2BB1               	goto	u4040
  5174  03B0                     u4041:
  5175  03B0  2BC1               	goto	l2762
  5176  03B1                     u4040:
  5177  03B1                     l2754:
  5178  03B1  0A75               	incf	___fladd@bexp,w
  5179  03B2  1D03               	btfss	3,2
  5180  03B3  2BB5               	goto	u4051
  5181  03B4  2BB6               	goto	u4050
  5182  03B5                     u4051:
  5183  03B5  2BBE               	goto	l2758
  5184  03B6                     u4050:
  5185  03B6                     l2756:
  5186  03B6  3000               	movlw	0
  5187  03B7  00A3               	movwf	___fladd@b+3
  5188  03B8  3000               	movlw	0
  5189  03B9  00A2               	movwf	___fladd@b+2
  5190  03BA  3000               	movlw	0
  5191  03BB  00A1               	movwf	___fladd@b+1
  5192  03BC  3000               	movlw	0
  5193  03BD  00A0               	movwf	___fladd@b
  5194  03BE                     l2758:
  5195  03BE  17A2               	bsf	___fladd@b+2,7
  5196  03BF                     l2760:
  5197  03BF  01A3               	clrf	___fladd@b+3
  5198  03C0  2BC9               	goto	l2764
  5199  03C1                     l2762:
  5200  03C1  3000               	movlw	0
  5201  03C2  00A3               	movwf	___fladd@b+3
  5202  03C3  3000               	movlw	0
  5203  03C4  00A2               	movwf	___fladd@b+2
  5204  03C5  3000               	movlw	0
  5205  03C6  00A1               	movwf	___fladd@b+1
  5206  03C7  3000               	movlw	0
  5207  03C8  00A0               	movwf	___fladd@b
  5208  03C9                     l2764:
  5209  03C9  0827               	movf	___fladd@a+3,w
  5210  03CA  3980               	andlw	128
  5211  03CB  00A8               	movwf	??___fladd
  5212  03CC  0828               	movf	??___fladd,w
  5213  03CD  00F4               	movwf	___fladd@aexp
  5214  03CE                     l2766:
  5215  03CE  0874               	movf	___fladd@aexp,w
  5216  03CF  0673               	xorwf	___fladd@signs,w
  5217  03D0  1903               	skipnz
  5218  03D1  2BD3               	goto	u4061
  5219  03D2  2BD4               	goto	u4060
  5220  03D3                     u4061:
  5221  03D3  2BD5               	goto	l2770
  5222  03D4                     u4060:
  5223  03D4                     l2768:
  5224  03D4  1773               	bsf	___fladd@signs,6
  5225  03D5                     l2770:
  5226  03D5  0827               	movf	___fladd@a+3,w
  5227  03D6  00A8               	movwf	??___fladd
  5228  03D7  0728               	addwf	??___fladd,w
  5229  03D8  00A9               	movwf	??___fladd+1
  5230  03D9  0829               	movf	??___fladd+1,w
  5231  03DA  00F4               	movwf	___fladd@aexp
  5232  03DB                     l2772:
  5233  03DB  1FA6               	btfss	___fladd@a+2,7
  5234  03DC  2BDE               	goto	u4071
  5235  03DD  2BDF               	goto	u4070
  5236  03DE                     u4071:
  5237  03DE  2BE0               	goto	l2776
  5238  03DF                     u4070:
  5239  03DF                     l2774:
  5240  03DF  1474               	bsf	___fladd@aexp,0
  5241  03E0                     l2776:
  5242  03E0  0874               	movf	___fladd@aexp,w
  5243  03E1  1903               	btfsc	3,2
  5244  03E2  2BE4               	goto	u4081
  5245  03E3  2BE5               	goto	u4080
  5246  03E4                     u4081:
  5247  03E4  2BF5               	goto	l2786
  5248  03E5                     u4080:
  5249  03E5                     l2778:
  5250  03E5  0A74               	incf	___fladd@aexp,w
  5251  03E6  1D03               	btfss	3,2
  5252  03E7  2BE9               	goto	u4091
  5253  03E8  2BEA               	goto	u4090
  5254  03E9                     u4091:
  5255  03E9  2BF2               	goto	l2782
  5256  03EA                     u4090:
  5257  03EA                     l2780:
  5258  03EA  3000               	movlw	0
  5259  03EB  00A7               	movwf	___fladd@a+3
  5260  03EC  3000               	movlw	0
  5261  03ED  00A6               	movwf	___fladd@a+2
  5262  03EE  3000               	movlw	0
  5263  03EF  00A5               	movwf	___fladd@a+1
  5264  03F0  3000               	movlw	0
  5265  03F1  00A4               	movwf	___fladd@a
  5266  03F2                     l2782:
  5267  03F2  17A6               	bsf	___fladd@a+2,7
  5268  03F3                     l2784:
  5269  03F3  01A7               	clrf	___fladd@a+3
  5270  03F4  2BFD               	goto	l591
  5271  03F5                     l2786:
  5272  03F5  3000               	movlw	0
  5273  03F6  00A7               	movwf	___fladd@a+3
  5274  03F7  3000               	movlw	0
  5275  03F8  00A6               	movwf	___fladd@a+2
  5276  03F9  3000               	movlw	0
  5277  03FA  00A5               	movwf	___fladd@a+1
  5278  03FB  3000               	movlw	0
  5279  03FC  00A4               	movwf	___fladd@a
  5280  03FD                     l591:
  5281  03FD  0875               	movf	___fladd@bexp,w
  5282  03FE  0274               	subwf	___fladd@aexp,w
  5283  03FF  1803               	skipnc
  5284  0400  2C02               	goto	u4101
  5285  0401  2C03               	goto	u4100
  5286  0402                     u4101:
  5287  0402  2C47               	goto	l2822
  5288  0403                     u4100:
  5289  0403                     l2788:
  5290  0403  1F73               	btfss	___fladd@signs,6
  5291  0404  2C06               	goto	u4111
  5292  0405  2C07               	goto	u4110
  5293  0406                     u4111:
  5294  0406  2C0B               	goto	l2792
  5295  0407                     u4110:
  5296  0407                     l2790:
  5297  0407  3080               	movlw	128
  5298  0408  00A8               	movwf	??___fladd
  5299  0409  0828               	movf	??___fladd,w
  5300  040A  06F3               	xorwf	___fladd@signs,f
  5301  040B                     l2792:
  5302  040B  0875               	movf	___fladd@bexp,w
  5303  040C  00A8               	movwf	??___fladd
  5304  040D  0828               	movf	??___fladd,w
  5305  040E  00F6               	movwf	___fladd@grs
  5306  040F                     l2794:
  5307  040F  0874               	movf	___fladd@aexp,w
  5308  0410  00A8               	movwf	??___fladd
  5309  0411  0828               	movf	??___fladd,w
  5310  0412  00F5               	movwf	___fladd@bexp
  5311  0413                     l2796:
  5312  0413  0876               	movf	___fladd@grs,w
  5313  0414  00A8               	movwf	??___fladd
  5314  0415  0828               	movf	??___fladd,w
  5315  0416  00F4               	movwf	___fladd@aexp
  5316  0417                     l2798:
  5317  0417  0820               	movf	___fladd@b,w
  5318  0418  00A8               	movwf	??___fladd
  5319  0419  0828               	movf	??___fladd,w
  5320  041A  00F6               	movwf	___fladd@grs
  5321  041B                     l2800:
  5322  041B  0824               	movf	___fladd@a,w
  5323  041C  00A8               	movwf	??___fladd
  5324  041D  0828               	movf	??___fladd,w
  5325  041E  00A0               	movwf	___fladd@b
  5326  041F                     l2802:
  5327  041F  0876               	movf	___fladd@grs,w
  5328  0420  00A8               	movwf	??___fladd
  5329  0421  0828               	movf	??___fladd,w
  5330  0422  00A4               	movwf	___fladd@a
  5331  0423                     l2804:
  5332  0423  0821               	movf	___fladd@b+1,w
  5333  0424  00A8               	movwf	??___fladd
  5334  0425  0828               	movf	??___fladd,w
  5335  0426  00F6               	movwf	___fladd@grs
  5336  0427                     l2806:
  5337  0427  0825               	movf	___fladd@a+1,w
  5338  0428  00A8               	movwf	??___fladd
  5339  0429  0828               	movf	??___fladd,w
  5340  042A  00A1               	movwf	___fladd@b+1
  5341  042B                     l2808:
  5342  042B  0876               	movf	___fladd@grs,w
  5343  042C  00A8               	movwf	??___fladd
  5344  042D  0828               	movf	??___fladd,w
  5345  042E  00A5               	movwf	___fladd@a+1
  5346  042F                     l2810:
  5347  042F  0822               	movf	___fladd@b+2,w
  5348  0430  00A8               	movwf	??___fladd
  5349  0431  0828               	movf	??___fladd,w
  5350  0432  00F6               	movwf	___fladd@grs
  5351  0433                     l2812:
  5352  0433  0826               	movf	___fladd@a+2,w
  5353  0434  00A8               	movwf	??___fladd
  5354  0435  0828               	movf	??___fladd,w
  5355  0436  00A2               	movwf	___fladd@b+2
  5356  0437                     l2814:
  5357  0437  0876               	movf	___fladd@grs,w
  5358  0438  00A8               	movwf	??___fladd
  5359  0439  0828               	movf	??___fladd,w
  5360  043A  00A6               	movwf	___fladd@a+2
  5361  043B                     l2816:
  5362  043B  0823               	movf	___fladd@b+3,w
  5363  043C  00A8               	movwf	??___fladd
  5364  043D  0828               	movf	??___fladd,w
  5365  043E  00F6               	movwf	___fladd@grs
  5366  043F                     l2818:
  5367  043F  0827               	movf	___fladd@a+3,w
  5368  0440  00A8               	movwf	??___fladd
  5369  0441  0828               	movf	??___fladd,w
  5370  0442  00A3               	movwf	___fladd@b+3
  5371  0443                     l2820:
  5372  0443  0876               	movf	___fladd@grs,w
  5373  0444  00A8               	movwf	??___fladd
  5374  0445  0828               	movf	??___fladd,w
  5375  0446  00A7               	movwf	___fladd@a+3
  5376  0447                     l2822:
  5377  0447  01F6               	clrf	___fladd@grs
  5378  0448                     l2824:
  5379  0448  0874               	movf	___fladd@aexp,w
  5380  0449  00A8               	movwf	??___fladd
  5381  044A  01A9               	clrf	??___fladd+1
  5382  044B  0829               	movf	??___fladd+1,w
  5383  044C  00AB               	movwf	??___fladd+3
  5384  044D  0875               	movf	___fladd@bexp,w
  5385  044E  0228               	subwf	??___fladd,w
  5386  044F  00AA               	movwf	??___fladd+2
  5387  0450  1C03               	skipc
  5388  0451  03AB               	decf	??___fladd+3,f
  5389  0452  082B               	movf	??___fladd+3,w
  5390  0453  3A80               	xorlw	128
  5391  0454  00FF               	movwf	btemp+1
  5392  0455  3080               	movlw	128
  5393  0456  027F               	subwf	btemp+1,w
  5394  0457  1D03               	skipz
  5395  0458  2C5B               	goto	u4125
  5396  0459  301A               	movlw	26
  5397  045A  022A               	subwf	??___fladd+2,w
  5398  045B                     u4125:
  5399  045B  1C03               	skipc
  5400  045C  2C5E               	goto	u4121
  5401  045D  2C5F               	goto	u4120
  5402  045E                     u4121:
  5403  045E  2CA0               	goto	l2840
  5404  045F                     u4120:
  5405  045F                     l2826:
  5406  045F  1283               	bcf	3,5	;RP0=0, select bank0
  5407  0460  1303               	bcf	3,6	;RP1=0, select bank0
  5408  0461  0823               	movf	___fladd@b+3,w
  5409  0462  0422               	iorwf	___fladd@b+2,w
  5410  0463  0421               	iorwf	___fladd@b+1,w
  5411  0464  0420               	iorwf	___fladd@b,w
  5412  0465  1D03               	skipz
  5413  0466  2C68               	goto	u4131
  5414  0467  2C6A               	goto	u4130
  5415  0468                     u4131:
  5416  0468  3001               	movlw	1
  5417  0469  2C6B               	goto	u4140
  5418  046A                     u4130:
  5419  046A  3000               	movlw	0
  5420  046B                     u4140:
  5421  046B  00A8               	movwf	??___fladd
  5422  046C  0828               	movf	??___fladd,w
  5423  046D  00F6               	movwf	___fladd@grs
  5424  046E  3000               	movlw	0
  5425  046F  00A3               	movwf	___fladd@b+3
  5426  0470  3000               	movlw	0
  5427  0471  00A2               	movwf	___fladd@b+2
  5428  0472  3000               	movlw	0
  5429  0473  00A1               	movwf	___fladd@b+1
  5430  0474  3000               	movlw	0
  5431  0475  00A0               	movwf	___fladd@b
  5432  0476  0874               	movf	___fladd@aexp,w
  5433  0477  00A8               	movwf	??___fladd
  5434  0478  0828               	movf	??___fladd,w
  5435  0479  00F5               	movwf	___fladd@bexp
  5436  047A  2CA6               	goto	l595
  5437  047B                     l597:
  5438  047B  1C76               	btfss	___fladd@grs,0
  5439  047C  2C7E               	goto	u4151
  5440  047D  2C7F               	goto	u4150
  5441  047E                     u4151:
  5442  047E  2C8A               	goto	l2830
  5443  047F                     u4150:
  5444  047F                     l2828:
  5445  047F  0876               	movf	___fladd@grs,w
  5446  0480  1283               	bcf	3,5	;RP0=0, select bank0
  5447  0481  1303               	bcf	3,6	;RP1=0, select bank0
  5448  0482  00A8               	movwf	??___fladd
  5449  0483  1003               	clrc
  5450  0484  0C28               	rrf	??___fladd,w
  5451  0485  3801               	iorlw	1
  5452  0486  00A9               	movwf	??___fladd+1
  5453  0487  0829               	movf	??___fladd+1,w
  5454  0488  00F6               	movwf	___fladd@grs
  5455  0489  2C8C               	goto	l2832
  5456  048A                     l2830:
  5457  048A  1003               	clrc
  5458  048B  0CF6               	rrf	___fladd@grs,f
  5459  048C                     l2832:
  5460  048C  1283               	bcf	3,5	;RP0=0, select bank0
  5461  048D  1303               	bcf	3,6	;RP1=0, select bank0
  5462  048E  1C20               	btfss	___fladd@b,0
  5463  048F  2C91               	goto	u4161
  5464  0490  2C92               	goto	u4160
  5465  0491                     u4161:
  5466  0491  2C93               	goto	l2836
  5467  0492                     u4160:
  5468  0492                     l2834:
  5469  0492  17F6               	bsf	___fladd@grs,7
  5470  0493                     l2836:
  5471  0493  3001               	movlw	1
  5472  0494  00A8               	movwf	??___fladd
  5473  0495                     u4175:
  5474  0495  0D23               	rlf	___fladd@b+3,w
  5475  0496  0CA3               	rrf	___fladd@b+3,f
  5476  0497  0CA2               	rrf	___fladd@b+2,f
  5477  0498  0CA1               	rrf	___fladd@b+1,f
  5478  0499  0CA0               	rrf	___fladd@b,f
  5479  049A  0BA8               	decfsz	??___fladd& (0+127),f
  5480  049B  2C95               	goto	u4175
  5481  049C                     l2838:
  5482  049C  3001               	movlw	1
  5483  049D  00A8               	movwf	??___fladd
  5484  049E  0828               	movf	??___fladd,w
  5485  049F  07F5               	addwf	___fladd@bexp,f
  5486  04A0                     l2840:
  5487  04A0  0874               	movf	___fladd@aexp,w
  5488  04A1  0275               	subwf	___fladd@bexp,w
  5489  04A2  1C03               	skipc
  5490  04A3  2CA5               	goto	u4181
  5491  04A4  2CA6               	goto	u4180
  5492  04A5                     u4181:
  5493  04A5  2C7B               	goto	l597
  5494  04A6                     u4180:
  5495  04A6                     l595:
  5496  04A6  1B73               	btfsc	___fladd@signs,6
  5497  04A7  2CA9               	goto	u4191
  5498  04A8  2CAA               	goto	u4190
  5499  04A9                     u4191:
  5500  04A9  2CF9               	goto	l2866
  5501  04AA                     u4190:
  5502  04AA                     l2842:
  5503  04AA  0875               	movf	___fladd@bexp,w
  5504  04AB  1D03               	btfss	3,2
  5505  04AC  2CAE               	goto	u4201
  5506  04AD  2CAF               	goto	u4200
  5507  04AE                     u4201:
  5508  04AE  2CBA               	goto	l2848
  5509  04AF                     u4200:
  5510  04AF                     l2844:
  5511  04AF  3000               	movlw	0
  5512  04B0  1283               	bcf	3,5	;RP0=0, select bank0
  5513  04B1  1303               	bcf	3,6	;RP1=0, select bank0
  5514  04B2  00A3               	movwf	?___fladd+3
  5515  04B3  3000               	movlw	0
  5516  04B4  00A2               	movwf	?___fladd+2
  5517  04B5  3000               	movlw	0
  5518  04B6  00A1               	movwf	?___fladd+1
  5519  04B7  3000               	movlw	0
  5520  04B8  00A0               	movwf	?___fladd
  5521  04B9  2E29               	goto	l604
  5522  04BA                     l2848:
  5523  04BA  1283               	bcf	3,5	;RP0=0, select bank0
  5524  04BB  1303               	bcf	3,6	;RP1=0, select bank0
  5525  04BC  0824               	movf	___fladd@a,w
  5526  04BD  07A0               	addwf	___fladd@b,f
  5527  04BE  0825               	movf	___fladd@a+1,w
  5528  04BF  1103               	clrz
  5529  04C0  1803               	skipnc
  5530  04C1  3E01               	addlw	1
  5531  04C2  1903               	skipnz
  5532  04C3  2CC5               	goto	u4211
  5533  04C4  07A1               	addwf	___fladd@b+1,f
  5534  04C5                     u4211:
  5535  04C5  0826               	movf	___fladd@a+2,w
  5536  04C6  1103               	clrz
  5537  04C7  1803               	skipnc
  5538  04C8  3E01               	addlw	1
  5539  04C9  1903               	skipnz
  5540  04CA  2CCC               	goto	u4212
  5541  04CB  07A2               	addwf	___fladd@b+2,f
  5542  04CC                     u4212:
  5543  04CC  0827               	movf	___fladd@a+3,w
  5544  04CD  1103               	clrz
  5545  04CE  1803               	skipnc
  5546  04CF  3E01               	addlw	1
  5547  04D0  1903               	skipnz
  5548  04D1  2CD3               	goto	u4213
  5549  04D2  07A3               	addwf	___fladd@b+3,f
  5550  04D3                     u4213:
  5551  04D3                     l2850:
  5552  04D3  1C23               	btfss	___fladd@b+3,0
  5553  04D4  2CD6               	goto	u4221
  5554  04D5  2CD7               	goto	u4220
  5555  04D6                     u4221:
  5556  04D6  2DAF               	goto	l2900
  5557  04D7                     u4220:
  5558  04D7                     l2852:
  5559  04D7  1C76               	btfss	___fladd@grs,0
  5560  04D8  2CDA               	goto	u4231
  5561  04D9  2CDB               	goto	u4230
  5562  04DA                     u4231:
  5563  04DA  2CE4               	goto	l2856
  5564  04DB                     u4230:
  5565  04DB                     l2854:
  5566  04DB  0876               	movf	___fladd@grs,w
  5567  04DC  00A8               	movwf	??___fladd
  5568  04DD  1003               	clrc
  5569  04DE  0C28               	rrf	??___fladd,w
  5570  04DF  3801               	iorlw	1
  5571  04E0  00A9               	movwf	??___fladd+1
  5572  04E1  0829               	movf	??___fladd+1,w
  5573  04E2  00F6               	movwf	___fladd@grs
  5574  04E3  2CE6               	goto	l2858
  5575  04E4                     l2856:
  5576  04E4  1003               	clrc
  5577  04E5  0CF6               	rrf	___fladd@grs,f
  5578  04E6                     l2858:
  5579  04E6  1C20               	btfss	___fladd@b,0
  5580  04E7  2CE9               	goto	u4241
  5581  04E8  2CEA               	goto	u4240
  5582  04E9                     u4241:
  5583  04E9  2CEB               	goto	l2862
  5584  04EA                     u4240:
  5585  04EA                     l2860:
  5586  04EA  17F6               	bsf	___fladd@grs,7
  5587  04EB                     l2862:
  5588  04EB  3001               	movlw	1
  5589  04EC  00A8               	movwf	??___fladd
  5590  04ED                     u4255:
  5591  04ED  0D23               	rlf	___fladd@b+3,w
  5592  04EE  0CA3               	rrf	___fladd@b+3,f
  5593  04EF  0CA2               	rrf	___fladd@b+2,f
  5594  04F0  0CA1               	rrf	___fladd@b+1,f
  5595  04F1  0CA0               	rrf	___fladd@b,f
  5596  04F2  0BA8               	decfsz	??___fladd& (0+127),f
  5597  04F3  2CED               	goto	u4255
  5598  04F4                     l2864:
  5599  04F4  3001               	movlw	1
  5600  04F5  00A8               	movwf	??___fladd
  5601  04F6  0828               	movf	??___fladd,w
  5602  04F7  07F5               	addwf	___fladd@bexp,f
  5603  04F8  2DAF               	goto	l2900
  5604  04F9                     l2866:
  5605  04F9  1283               	bcf	3,5	;RP0=0, select bank0
  5606  04FA  1303               	bcf	3,6	;RP1=0, select bank0
  5607  04FB  0823               	movf	___fladd@b+3,w
  5608  04FC  3A80               	xorlw	128
  5609  04FD  00FF               	movwf	btemp+1
  5610  04FE  0827               	movf	___fladd@a+3,w
  5611  04FF  3A80               	xorlw	128
  5612  0500  027F               	subwf	btemp+1,w
  5613  0501  1D03               	skipz
  5614  0502  2D0D               	goto	u4263
  5615  0503  0826               	movf	___fladd@a+2,w
  5616  0504  0222               	subwf	___fladd@b+2,w
  5617  0505  1D03               	skipz
  5618  0506  2D0D               	goto	u4263
  5619  0507  0825               	movf	___fladd@a+1,w
  5620  0508  0221               	subwf	___fladd@b+1,w
  5621  0509  1D03               	skipz
  5622  050A  2D0D               	goto	u4263
  5623  050B  0824               	movf	___fladd@a,w
  5624  050C  0220               	subwf	___fladd@b,w
  5625  050D                     u4263:
  5626  050D  1803               	skipnc
  5627  050E  2D10               	goto	u4261
  5628  050F  2D11               	goto	u4260
  5629  0510                     u4261:
  5630  0510  2D69               	goto	l2876
  5631  0511                     u4260:
  5632  0511                     l2868:
  5633  0511  30FF               	movlw	255
  5634  0512  00A8               	movwf	??___fladd
  5635  0513  30FF               	movlw	255
  5636  0514  00A9               	movwf	??___fladd+1
  5637  0515  30FF               	movlw	255
  5638  0516  00AA               	movwf	??___fladd+2
  5639  0517  30FF               	movlw	255
  5640  0518  00AB               	movwf	??___fladd+3
  5641  0519  0824               	movf	___fladd@a,w
  5642  051A  00AC               	movwf	??___fladd+4
  5643  051B  0825               	movf	___fladd@a+1,w
  5644  051C  00AD               	movwf	??___fladd+5
  5645  051D  0826               	movf	___fladd@a+2,w
  5646  051E  00AE               	movwf	??___fladd+6
  5647  051F  0827               	movf	___fladd@a+3,w
  5648  0520  00AF               	movwf	??___fladd+7
  5649  0521  0820               	movf	___fladd@b,w
  5650  0522  02AC               	subwf	??___fladd+4,f
  5651  0523  0821               	movf	___fladd@b+1,w
  5652  0524  1C03               	skipc
  5653  0525  0F21               	incfsz	___fladd@b+1,w
  5654  0526  2D28               	goto	u4271
  5655  0527  2D29               	goto	u4272
  5656  0528                     u4271:
  5657  0528  02AD               	subwf	??___fladd+5,f
  5658  0529                     u4272:
  5659  0529  0822               	movf	___fladd@b+2,w
  5660  052A  1C03               	skipc
  5661  052B  0F22               	incfsz	___fladd@b+2,w
  5662  052C  2D2E               	goto	u4273
  5663  052D  2D2F               	goto	u4274
  5664  052E                     u4273:
  5665  052E  02AE               	subwf	??___fladd+6,f
  5666  052F                     u4274:
  5667  052F  0823               	movf	___fladd@b+3,w
  5668  0530  1C03               	skipc
  5669  0531  0F23               	incfsz	___fladd@b+3,w
  5670  0532  2D34               	goto	u4275
  5671  0533  2D35               	goto	u4276
  5672  0534                     u4275:
  5673  0534  02AF               	subwf	??___fladd+7,f
  5674  0535                     u4276:
  5675  0535  082C               	movf	??___fladd+4,w
  5676  0536  07A8               	addwf	??___fladd,f
  5677  0537  082D               	movf	??___fladd+5,w
  5678  0538  1803               	skipnc
  5679  0539  0F2D               	incfsz	??___fladd+5,w
  5680  053A  2D3C               	goto	u4280
  5681  053B  2D3D               	goto	u4281
  5682  053C                     u4280:
  5683  053C  07A9               	addwf	??___fladd+1,f
  5684  053D                     u4281:
  5685  053D  082E               	movf	??___fladd+6,w
  5686  053E  1803               	skipnc
  5687  053F  0F2E               	incfsz	??___fladd+6,w
  5688  0540  2D42               	goto	u4282
  5689  0541  2D43               	goto	u4283
  5690  0542                     u4282:
  5691  0542  07AA               	addwf	??___fladd+2,f
  5692  0543                     u4283:
  5693  0543  082F               	movf	??___fladd+7,w
  5694  0544  1803               	skipnc
  5695  0545  0A2F               	incf	??___fladd+7,w
  5696  0546  07AB               	addwf	??___fladd+3,f
  5697  0547  082B               	movf	??___fladd+3,w
  5698  0548  00A3               	movwf	___fladd@b+3
  5699  0549  082A               	movf	??___fladd+2,w
  5700  054A  00A2               	movwf	___fladd@b+2
  5701  054B  0829               	movf	??___fladd+1,w
  5702  054C  00A1               	movwf	___fladd@b+1
  5703  054D  0828               	movf	??___fladd,w
  5704  054E  00A0               	movwf	___fladd@b
  5705  054F                     l2870:
  5706  054F  3080               	movlw	128
  5707  0550  00A8               	movwf	??___fladd
  5708  0551  0828               	movf	??___fladd,w
  5709  0552  06F3               	xorwf	___fladd@signs,f
  5710  0553  09F6               	comf	___fladd@grs,f
  5711  0554  0AF6               	incf	___fladd@grs,f
  5712  0555                     l2872:
  5713  0555  0876               	movf	___fladd@grs,w
  5714  0556  1D03               	btfss	3,2
  5715  0557  2D59               	goto	u4291
  5716  0558  2D5A               	goto	u4290
  5717  0559                     u4291:
  5718  0559  2D77               	goto	l612
  5719  055A                     u4290:
  5720  055A                     l2874:
  5721  055A  3001               	movlw	1
  5722  055B  07A0               	addwf	___fladd@b,f
  5723  055C  3000               	movlw	0
  5724  055D  1803               	skipnc
  5725  055E  3001               	movlw	1
  5726  055F  07A1               	addwf	___fladd@b+1,f
  5727  0560  3000               	movlw	0
  5728  0561  1803               	skipnc
  5729  0562  3001               	movlw	1
  5730  0563  07A2               	addwf	___fladd@b+2,f
  5731  0564  3000               	movlw	0
  5732  0565  1803               	skipnc
  5733  0566  3001               	movlw	1
  5734  0567  07A3               	addwf	___fladd@b+3,f
  5735  0568  2D77               	goto	l612
  5736  0569                     l2876:
  5737  0569  0824               	movf	___fladd@a,w
  5738  056A  02A0               	subwf	___fladd@b,f
  5739  056B  0825               	movf	___fladd@a+1,w
  5740  056C  1C03               	skipc
  5741  056D  0F25               	incfsz	___fladd@a+1,w
  5742  056E  02A1               	subwf	___fladd@b+1,f
  5743  056F  0826               	movf	___fladd@a+2,w
  5744  0570  1C03               	skipc
  5745  0571  0F26               	incfsz	___fladd@a+2,w
  5746  0572  02A2               	subwf	___fladd@b+2,f
  5747  0573  0827               	movf	___fladd@a+3,w
  5748  0574  1C03               	skipc
  5749  0575  0F27               	incfsz	___fladd@a+3,w
  5750  0576  02A3               	subwf	___fladd@b+3,f
  5751  0577                     l612:
  5752  0577  0823               	movf	___fladd@b+3,w
  5753  0578  0422               	iorwf	___fladd@b+2,w
  5754  0579  0421               	iorwf	___fladd@b+1,w
  5755  057A  0420               	iorwf	___fladd@b,w
  5756  057B  1D03               	skipz
  5757  057C  2D7E               	goto	u4301
  5758  057D  2D7F               	goto	u4300
  5759  057E                     u4301:
  5760  057E  2DAB               	goto	l2898
  5761  057F                     u4300:
  5762  057F                     l2878:
  5763  057F  0876               	movf	___fladd@grs,w
  5764  0580  1D03               	btfss	3,2
  5765  0581  2D83               	goto	u4311
  5766  0582  2D84               	goto	u4310
  5767  0583                     u4311:
  5768  0583  2DAB               	goto	l2898
  5769  0584                     u4310:
  5770  0584                     l2880:
  5771  0584  3000               	movlw	0
  5772  0585  00A3               	movwf	?___fladd+3
  5773  0586  3000               	movlw	0
  5774  0587  00A2               	movwf	?___fladd+2
  5775  0588  3000               	movlw	0
  5776  0589  00A1               	movwf	?___fladd+1
  5777  058A  3000               	movlw	0
  5778  058B  00A0               	movwf	?___fladd
  5779  058C  2E29               	goto	l604
  5780  058D                     l2884:
  5781  058D  3001               	movlw	1
  5782  058E  00A8               	movwf	??___fladd
  5783  058F                     u4325:
  5784  058F  1003               	clrc
  5785  0590  0DA0               	rlf	___fladd@b,f
  5786  0591  0DA1               	rlf	___fladd@b+1,f
  5787  0592  0DA2               	rlf	___fladd@b+2,f
  5788  0593  0DA3               	rlf	___fladd@b+3,f
  5789  0594  0BA8               	decfsz	??___fladd,f
  5790  0595  2D8F               	goto	u4325
  5791  0596                     l2886:
  5792  0596  1FF6               	btfss	___fladd@grs,7
  5793  0597  2D99               	goto	u4331
  5794  0598  2D9A               	goto	u4330
  5795  0599                     u4331:
  5796  0599  2D9B               	goto	l616
  5797  059A                     u4330:
  5798  059A                     l2888:
  5799  059A  1420               	bsf	___fladd@b,0
  5800  059B                     l616:
  5801  059B  1C76               	btfss	___fladd@grs,0
  5802  059C  2D9E               	goto	u4341
  5803  059D  2D9F               	goto	u4340
  5804  059E                     u4341:
  5805  059E  2DA2               	goto	l2892
  5806  059F                     u4340:
  5807  059F                     l2890:
  5808  059F  1403               	setc
  5809  05A0  0DF6               	rlf	___fladd@grs,f
  5810  05A1  2DA4               	goto	l2894
  5811  05A2                     l2892:
  5812  05A2  1003               	clrc
  5813  05A3  0DF6               	rlf	___fladd@grs,f
  5814  05A4                     l2894:
  5815  05A4  0875               	movf	___fladd@bexp,w
  5816  05A5  1903               	btfsc	3,2
  5817  05A6  2DA8               	goto	u4351
  5818  05A7  2DA9               	goto	u4350
  5819  05A8                     u4351:
  5820  05A8  2DAB               	goto	l2898
  5821  05A9                     u4350:
  5822  05A9                     l2896:
  5823  05A9  3001               	movlw	1
  5824  05AA  02F5               	subwf	___fladd@bexp,f
  5825  05AB                     l2898:
  5826  05AB  1FA2               	btfss	___fladd@b+2,7
  5827  05AC  2DAE               	goto	u4361
  5828  05AD  2DAF               	goto	u4360
  5829  05AE                     u4361:
  5830  05AE  2D8D               	goto	l2884
  5831  05AF                     u4360:
  5832  05AF                     l2900:
  5833  05AF  01F4               	clrf	___fladd@aexp
  5834  05B0                     l2902:
  5835  05B0  1FF6               	btfss	___fladd@grs,7
  5836  05B1  2DB3               	goto	u4371
  5837  05B2  2DB4               	goto	u4370
  5838  05B3                     u4371:
  5839  05B3  2DC2               	goto	l2910
  5840  05B4                     u4370:
  5841  05B4                     l2904:
  5842  05B4  0876               	movf	___fladd@grs,w
  5843  05B5  397F               	andlw	127
  5844  05B6  1903               	btfsc	3,2
  5845  05B7  2DB9               	goto	u4381
  5846  05B8  2DBA               	goto	u4380
  5847  05B9                     u4381:
  5848  05B9  2DBD               	goto	l622
  5849  05BA                     u4380:
  5850  05BA                     l2906:
  5851  05BA  01F4               	clrf	___fladd@aexp
  5852  05BB  0AF4               	incf	___fladd@aexp,f
  5853  05BC  2DC2               	goto	l2910
  5854  05BD                     l622:
  5855  05BD  1C20               	btfss	___fladd@b,0
  5856  05BE  2DC0               	goto	u4391
  5857  05BF  2DC1               	goto	u4390
  5858  05C0                     u4391:
  5859  05C0  2DC2               	goto	l2910
  5860  05C1                     u4390:
  5861  05C1  2DBA               	goto	l2906
  5862  05C2                     l2910:
  5863  05C2  0874               	movf	___fladd@aexp,w
  5864  05C3  1903               	btfsc	3,2
  5865  05C4  2DC6               	goto	u4401
  5866  05C5  2DC7               	goto	u4400
  5867  05C6                     u4401:
  5868  05C6  2DFB               	goto	l625
  5869  05C7                     u4400:
  5870  05C7                     l2912:
  5871  05C7  3001               	movlw	1
  5872  05C8  07A0               	addwf	___fladd@b,f
  5873  05C9  3000               	movlw	0
  5874  05CA  1803               	skipnc
  5875  05CB  3001               	movlw	1
  5876  05CC  07A1               	addwf	___fladd@b+1,f
  5877  05CD  3000               	movlw	0
  5878  05CE  1803               	skipnc
  5879  05CF  3001               	movlw	1
  5880  05D0  07A2               	addwf	___fladd@b+2,f
  5881  05D1  3000               	movlw	0
  5882  05D2  1803               	skipnc
  5883  05D3  3001               	movlw	1
  5884  05D4  07A3               	addwf	___fladd@b+3,f
  5885  05D5                     l2914:
  5886  05D5  1C23               	btfss	___fladd@b+3,0
  5887  05D6  2DD8               	goto	u4411
  5888  05D7  2DD9               	goto	u4410
  5889  05D8                     u4411:
  5890  05D8  2DFB               	goto	l625
  5891  05D9                     u4410:
  5892  05D9                     l2916:
  5893  05D9  0820               	movf	___fladd@b,w
  5894  05DA  00A8               	movwf	??___fladd
  5895  05DB  0821               	movf	___fladd@b+1,w
  5896  05DC  00A9               	movwf	??___fladd+1
  5897  05DD  0822               	movf	___fladd@b+2,w
  5898  05DE  00AA               	movwf	??___fladd+2
  5899  05DF  0823               	movf	___fladd@b+3,w
  5900  05E0  00AB               	movwf	??___fladd+3
  5901  05E1  3001               	movlw	1
  5902  05E2  00AC               	movwf	??___fladd+4
  5903  05E3                     u4425:
  5904  05E3  0D2B               	rlf	??___fladd+3,w
  5905  05E4  0CAB               	rrf	??___fladd+3,f
  5906  05E5  0CAA               	rrf	??___fladd+2,f
  5907  05E6  0CA9               	rrf	??___fladd+1,f
  5908  05E7  0CA8               	rrf	??___fladd,f
  5909  05E8                     u4420:
  5910  05E8  0BAC               	decfsz	??___fladd+4,f
  5911  05E9  2DE3               	goto	u4425
  5912  05EA  082B               	movf	??___fladd+3,w
  5913  05EB  00A3               	movwf	___fladd@b+3
  5914  05EC  082A               	movf	??___fladd+2,w
  5915  05ED  00A2               	movwf	___fladd@b+2
  5916  05EE  0829               	movf	??___fladd+1,w
  5917  05EF  00A1               	movwf	___fladd@b+1
  5918  05F0  0828               	movf	??___fladd,w
  5919  05F1  00A0               	movwf	___fladd@b
  5920  05F2  0A75               	incf	___fladd@bexp,w
  5921  05F3  1903               	btfsc	3,2
  5922  05F4  2DF6               	goto	u4431
  5923  05F5  2DF7               	goto	u4430
  5924  05F6                     u4431:
  5925  05F6  2DFB               	goto	l625
  5926  05F7                     u4430:
  5927  05F7                     l2918:
  5928  05F7  3001               	movlw	1
  5929  05F8  00A8               	movwf	??___fladd
  5930  05F9  0828               	movf	??___fladd,w
  5931  05FA  07F5               	addwf	___fladd@bexp,f
  5932  05FB                     l625:
  5933  05FB  0A75               	incf	___fladd@bexp,w
  5934  05FC  1903               	btfsc	3,2
  5935  05FD  2DFF               	goto	u4441
  5936  05FE  2E00               	goto	u4440
  5937  05FF                     u4441:
  5938  05FF  2E05               	goto	l2922
  5939  0600                     u4440:
  5940  0600                     l2920:
  5941  0600  0875               	movf	___fladd@bexp,w
  5942  0601  1D03               	btfss	3,2
  5943  0602  2E04               	goto	u4451
  5944  0603  2E05               	goto	u4450
  5945  0604                     u4451:
  5946  0604  2E13               	goto	l2928
  5947  0605                     u4450:
  5948  0605                     l2922:
  5949  0605  3000               	movlw	0
  5950  0606  00A3               	movwf	___fladd@b+3
  5951  0607  3000               	movlw	0
  5952  0608  00A2               	movwf	___fladd@b+2
  5953  0609  3000               	movlw	0
  5954  060A  00A1               	movwf	___fladd@b+1
  5955  060B  3000               	movlw	0
  5956  060C  00A0               	movwf	___fladd@b
  5957  060D                     l2924:
  5958  060D  0875               	movf	___fladd@bexp,w
  5959  060E  1D03               	btfss	3,2
  5960  060F  2E11               	goto	u4461
  5961  0610  2E12               	goto	u4460
  5962  0611                     u4461:
  5963  0611  2E13               	goto	l2928
  5964  0612                     u4460:
  5965  0612                     l2926:
  5966  0612  01F3               	clrf	___fladd@signs
  5967  0613                     l2928:
  5968  0613  1C75               	btfss	___fladd@bexp,0
  5969  0614  2E16               	goto	u4471
  5970  0615  2E17               	goto	u4470
  5971  0616                     u4471:
  5972  0616  2E19               	goto	l2932
  5973  0617                     u4470:
  5974  0617                     l2930:
  5975  0617  17A2               	bsf	___fladd@b+2,7
  5976  0618  2E1D               	goto	l633
  5977  0619                     l2932:
  5978  0619  307F               	movlw	127
  5979  061A  00A8               	movwf	??___fladd
  5980  061B  0828               	movf	??___fladd,w
  5981  061C  05A2               	andwf	___fladd@b+2,f
  5982  061D                     l633:
  5983  061D  0875               	movf	___fladd@bexp,w
  5984  061E  00A8               	movwf	??___fladd
  5985  061F  1003               	clrc
  5986  0620  0C28               	rrf	??___fladd,w
  5987  0621  00A9               	movwf	??___fladd+1
  5988  0622  0829               	movf	??___fladd+1,w
  5989  0623  00A3               	movwf	___fladd@b+3
  5990  0624                     l2934:
  5991  0624  1FF3               	btfss	___fladd@signs,7
  5992  0625  2E27               	goto	u4481
  5993  0626  2E28               	goto	u4480
  5994  0627                     u4481:
  5995  0627  2E29               	goto	l634
  5996  0628                     u4480:
  5997  0628                     l2936:
  5998  0628  17A3               	bsf	___fladd@b+3,7
  5999  0629                     l634:
  6000  0629                     l604:
  6001  0629  0008               	return
  6002  062A                     __end_of___fladd:
  6003                           
  6004                           	psect	text17
  6005  0B90                     __ptext17:	
  6006 ;; *************** function ___flge *****************
  6007 ;; Defined at:
  6008 ;;		line 4 in file "C:\Program Files\Microchip\xc8\v2.32\pic\sources\c90\common\flge.c"
  6009 ;; Parameters:    Size  Location     Type
  6010 ;;  ff1             4    0[BANK0 ] unsigned char 
  6011 ;;  ff2             4    4[BANK0 ] unsigned char 
  6012 ;; Auto vars:     Size  Location     Type
  6013 ;;		None
  6014 ;; Return value:  Size  Location     Type
  6015 ;;		None               void
  6016 ;; Registers used:
  6017 ;;		wreg, status,2, status,0
  6018 ;; Tracked objects:
  6019 ;;		On entry : 0/0
  6020 ;;		On exit  : 0/0
  6021 ;;		Unchanged: 0/0
  6022 ;; Data sizes:     COMMON   BANK0   BANK1   BANK3   BANK2
  6023 ;;      Params:         0       8       0       0       0
  6024 ;;      Locals:         0       0       0       0       0
  6025 ;;      Temps:          4       0       0       0       0
  6026 ;;      Totals:         4       8       0       0       0
  6027 ;;Total ram usage:       12 bytes
  6028 ;; Hardware stack levels used: 1
  6029 ;; Hardware stack levels required when called: 1
  6030 ;; This function calls:
  6031 ;;		Nothing
  6032 ;; This function is called by:
  6033 ;;		_HandleKeypadReading
  6034 ;;		_ReadHumidity
  6035 ;;		_ReadTemperature
  6036 ;;		_UpdateLCDViewWithNumber
  6037 ;; This function uses a non-reentrant model
  6038 ;;
  6039                           
  6040                           
  6041                           ;psect for function ___flge
  6042  0B90                     ___flge:
  6043  0B90                     l2970:	
  6044                           ;incstack = 0
  6045                           ; Regs used in ___flge: [wreg+status,2+status,0]
  6046                           
  6047  0B90  3000               	movlw	0
  6048  0B91  1283               	bcf	3,5	;RP0=0, select bank0
  6049  0B92  1303               	bcf	3,6	;RP1=0, select bank0
  6050  0B93  0520               	andwf	___flge@ff1,w
  6051  0B94  00F3               	movwf	??___flge
  6052  0B95  3000               	movlw	0
  6053  0B96  0521               	andwf	___flge@ff1+1,w
  6054  0B97  00F4               	movwf	??___flge+1
  6055  0B98  3080               	movlw	128
  6056  0B99  0522               	andwf	___flge@ff1+2,w
  6057  0B9A  00F5               	movwf	??___flge+2
  6058  0B9B  307F               	movlw	127
  6059  0B9C  0523               	andwf	___flge@ff1+3,w
  6060  0B9D  00F6               	movwf	??___flge+3
  6061  0B9E  0876               	movf	??___flge+3,w
  6062  0B9F  0475               	iorwf	??___flge+2,w
  6063  0BA0  0474               	iorwf	??___flge+1,w
  6064  0BA1  0473               	iorwf	??___flge,w
  6065  0BA2  1D03               	skipz
  6066  0BA3  2BA5               	goto	u4541
  6067  0BA4  2BA6               	goto	u4540
  6068  0BA5                     u4541:
  6069  0BA5  2BAE               	goto	l472
  6070  0BA6                     u4540:
  6071  0BA6                     l2972:
  6072  0BA6  3000               	movlw	0
  6073  0BA7  00A3               	movwf	___flge@ff1+3
  6074  0BA8  3000               	movlw	0
  6075  0BA9  00A2               	movwf	___flge@ff1+2
  6076  0BAA  3000               	movlw	0
  6077  0BAB  00A1               	movwf	___flge@ff1+1
  6078  0BAC  3000               	movlw	0
  6079  0BAD  00A0               	movwf	___flge@ff1
  6080  0BAE                     l472:
  6081  0BAE  3000               	movlw	0
  6082  0BAF  0524               	andwf	___flge@ff2,w
  6083  0BB0  00F3               	movwf	??___flge
  6084  0BB1  3000               	movlw	0
  6085  0BB2  0525               	andwf	___flge@ff2+1,w
  6086  0BB3  00F4               	movwf	??___flge+1
  6087  0BB4  3080               	movlw	128
  6088  0BB5  0526               	andwf	___flge@ff2+2,w
  6089  0BB6  00F5               	movwf	??___flge+2
  6090  0BB7  307F               	movlw	127
  6091  0BB8  0527               	andwf	___flge@ff2+3,w
  6092  0BB9  00F6               	movwf	??___flge+3
  6093  0BBA  0876               	movf	??___flge+3,w
  6094  0BBB  0475               	iorwf	??___flge+2,w
  6095  0BBC  0474               	iorwf	??___flge+1,w
  6096  0BBD  0473               	iorwf	??___flge,w
  6097  0BBE  1D03               	skipz
  6098  0BBF  2BC1               	goto	u4551
  6099  0BC0  2BC2               	goto	u4550
  6100  0BC1                     u4551:
  6101  0BC1  2BCA               	goto	l2976
  6102  0BC2                     u4550:
  6103  0BC2                     l2974:
  6104  0BC2  3000               	movlw	0
  6105  0BC3  00A7               	movwf	___flge@ff2+3
  6106  0BC4  3000               	movlw	0
  6107  0BC5  00A6               	movwf	___flge@ff2+2
  6108  0BC6  3000               	movlw	0
  6109  0BC7  00A5               	movwf	___flge@ff2+1
  6110  0BC8  3000               	movlw	0
  6111  0BC9  00A4               	movwf	___flge@ff2
  6112  0BCA                     l2976:
  6113  0BCA  1FA3               	btfss	___flge@ff1+3,7
  6114  0BCB  2BCD               	goto	u4561
  6115  0BCC  2BCE               	goto	u4560
  6116  0BCD                     u4561:
  6117  0BCD  2BF2               	goto	l2980
  6118  0BCE                     u4560:
  6119  0BCE                     l2978:
  6120  0BCE  3000               	movlw	0
  6121  0BCF  00F3               	movwf	??___flge
  6122  0BD0  3000               	movlw	0
  6123  0BD1  00F4               	movwf	??___flge+1
  6124  0BD2  3000               	movlw	0
  6125  0BD3  00F5               	movwf	??___flge+2
  6126  0BD4  3080               	movlw	128
  6127  0BD5  00F6               	movwf	??___flge+3
  6128  0BD6  0820               	movf	___flge@ff1,w
  6129  0BD7  02F3               	subwf	??___flge,f
  6130  0BD8  0821               	movf	___flge@ff1+1,w
  6131  0BD9  1C03               	skipc
  6132  0BDA  0F21               	incfsz	___flge@ff1+1,w
  6133  0BDB  2BDD               	goto	u4571
  6134  0BDC  2BDE               	goto	u4572
  6135  0BDD                     u4571:
  6136  0BDD  02F4               	subwf	??___flge+1,f
  6137  0BDE                     u4572:
  6138  0BDE  0822               	movf	___flge@ff1+2,w
  6139  0BDF  1C03               	skipc
  6140  0BE0  0F22               	incfsz	___flge@ff1+2,w
  6141  0BE1  2BE3               	goto	u4573
  6142  0BE2  2BE4               	goto	u4574
  6143  0BE3                     u4573:
  6144  0BE3  02F5               	subwf	??___flge+2,f
  6145  0BE4                     u4574:
  6146  0BE4  0823               	movf	___flge@ff1+3,w
  6147  0BE5  1C03               	skipc
  6148  0BE6  0F23               	incfsz	___flge@ff1+3,w
  6149  0BE7  2BE9               	goto	u4575
  6150  0BE8  2BEA               	goto	u4576
  6151  0BE9                     u4575:
  6152  0BE9  02F6               	subwf	??___flge+3,f
  6153  0BEA                     u4576:
  6154  0BEA  0876               	movf	??___flge+3,w
  6155  0BEB  00A3               	movwf	___flge@ff1+3
  6156  0BEC  0875               	movf	??___flge+2,w
  6157  0BED  00A2               	movwf	___flge@ff1+2
  6158  0BEE  0874               	movf	??___flge+1,w
  6159  0BEF  00A1               	movwf	___flge@ff1+1
  6160  0BF0  0873               	movf	??___flge,w
  6161  0BF1  00A0               	movwf	___flge@ff1
  6162  0BF2                     l2980:
  6163  0BF2  1FA7               	btfss	___flge@ff2+3,7
  6164  0BF3  2BF5               	goto	u4581
  6165  0BF4  2BF6               	goto	u4580
  6166  0BF5                     u4581:
  6167  0BF5  2C1A               	goto	l475
  6168  0BF6                     u4580:
  6169  0BF6                     l2982:
  6170  0BF6  3000               	movlw	0
  6171  0BF7  00F3               	movwf	??___flge
  6172  0BF8  3000               	movlw	0
  6173  0BF9  00F4               	movwf	??___flge+1
  6174  0BFA  3000               	movlw	0
  6175  0BFB  00F5               	movwf	??___flge+2
  6176  0BFC  3080               	movlw	128
  6177  0BFD  00F6               	movwf	??___flge+3
  6178  0BFE  0824               	movf	___flge@ff2,w
  6179  0BFF  02F3               	subwf	??___flge,f
  6180  0C00  0825               	movf	___flge@ff2+1,w
  6181  0C01  1C03               	skipc
  6182  0C02  0F25               	incfsz	___flge@ff2+1,w
  6183  0C03  2C05               	goto	u4591
  6184  0C04  2C06               	goto	u4592
  6185  0C05                     u4591:
  6186  0C05  02F4               	subwf	??___flge+1,f
  6187  0C06                     u4592:
  6188  0C06  0826               	movf	___flge@ff2+2,w
  6189  0C07  1C03               	skipc
  6190  0C08  0F26               	incfsz	___flge@ff2+2,w
  6191  0C09  2C0B               	goto	u4593
  6192  0C0A  2C0C               	goto	u4594
  6193  0C0B                     u4593:
  6194  0C0B  02F5               	subwf	??___flge+2,f
  6195  0C0C                     u4594:
  6196  0C0C  0827               	movf	___flge@ff2+3,w
  6197  0C0D  1C03               	skipc
  6198  0C0E  0F27               	incfsz	___flge@ff2+3,w
  6199  0C0F  2C11               	goto	u4595
  6200  0C10  2C12               	goto	u4596
  6201  0C11                     u4595:
  6202  0C11  02F6               	subwf	??___flge+3,f
  6203  0C12                     u4596:
  6204  0C12  0876               	movf	??___flge+3,w
  6205  0C13  00A7               	movwf	___flge@ff2+3
  6206  0C14  0875               	movf	??___flge+2,w
  6207  0C15  00A6               	movwf	___flge@ff2+2
  6208  0C16  0874               	movf	??___flge+1,w
  6209  0C17  00A5               	movwf	___flge@ff2+1
  6210  0C18  0873               	movf	??___flge,w
  6211  0C19  00A4               	movwf	___flge@ff2
  6212  0C1A                     l475:
  6213  0C1A  3080               	movlw	128
  6214  0C1B  06A3               	xorwf	___flge@ff1+3,f
  6215  0C1C  3080               	movlw	128
  6216  0C1D  06A7               	xorwf	___flge@ff2+3,f
  6217  0C1E  0827               	movf	___flge@ff2+3,w
  6218  0C1F  0223               	subwf	___flge@ff1+3,w
  6219  0C20  1D03               	skipz
  6220  0C21  2C2C               	goto	u4605
  6221  0C22  0826               	movf	___flge@ff2+2,w
  6222  0C23  0222               	subwf	___flge@ff1+2,w
  6223  0C24  1D03               	skipz
  6224  0C25  2C2C               	goto	u4605
  6225  0C26  0825               	movf	___flge@ff2+1,w
  6226  0C27  0221               	subwf	___flge@ff1+1,w
  6227  0C28  1D03               	skipz
  6228  0C29  2C2C               	goto	u4605
  6229  0C2A  0824               	movf	___flge@ff2,w
  6230  0C2B  0220               	subwf	___flge@ff1,w
  6231  0C2C                     u4605:
  6232  0C2C  1803               	skipnc
  6233  0C2D  2C2F               	goto	u4601
  6234  0C2E  2C30               	goto	u4600
  6235  0C2F                     u4601:
  6236  0C2F  2C32               	goto	l2986
  6237  0C30                     u4600:
  6238  0C30                     l2984:
  6239  0C30  1003               	clrc
  6240  0C31  2C33               	goto	l476
  6241  0C32                     l2986:
  6242  0C32  1403               	setc
  6243  0C33                     l476:
  6244  0C33  0008               	return
  6245  0C34                     __end_of___flge:
  6246                           
  6247                           	psect	text18
  6248  0882                     __ptext18:	
  6249 ;; *************** function _InitPic *****************
  6250 ;; Defined at:
  6251 ;;		line 259 in file "main.c"
  6252 ;; Parameters:    Size  Location     Type
  6253 ;;		None
  6254 ;; Auto vars:     Size  Location     Type
  6255 ;;		None
  6256 ;; Return value:  Size  Location     Type
  6257 ;;                  1    wreg      void 
  6258 ;; Registers used:
  6259 ;;		wreg, status,2
  6260 ;; Tracked objects:
  6261 ;;		On entry : 0/0
  6262 ;;		On exit  : 0/0
  6263 ;;		Unchanged: 0/0
  6264 ;; Data sizes:     COMMON   BANK0   BANK1   BANK3   BANK2
  6265 ;;      Params:         0       0       0       0       0
  6266 ;;      Locals:         0       0       0       0       0
  6267 ;;      Temps:          0       0       0       0       0
  6268 ;;      Totals:         0       0       0       0       0
  6269 ;;Total ram usage:        0 bytes
  6270 ;; Hardware stack levels used: 1
  6271 ;; Hardware stack levels required when called: 1
  6272 ;; This function calls:
  6273 ;;		Nothing
  6274 ;; This function is called by:
  6275 ;;		_main
  6276 ;; This function uses a non-reentrant model
  6277 ;;
  6278                           
  6279                           
  6280                           ;psect for function _InitPic
  6281  0882                     _InitPic:
  6282  0882                     l2508:	
  6283                           ;incstack = 0
  6284                           ; Regs used in _InitPic: [wreg+status,2]
  6285                           
  6286                           
  6287                           ;main.c: 261:     TRISC = 0x00;
  6288  0882  1683               	bsf	3,5	;RP0=1, select bank1
  6289  0883  1303               	bcf	3,6	;RP1=0, select bank1
  6290  0884  0187               	clrf	7	;volatile
  6291                           
  6292                           ;main.c: 262:     TRISE = 0x00;
  6293  0885  0189               	clrf	9	;volatile
  6294  0886                     l2510:
  6295                           
  6296                           ;main.c: 263:     INTCON = 0xA0;
  6297  0886  30A0               	movlw	160
  6298  0887  008B               	movwf	11	;volatile
  6299  0888                     l2512:
  6300                           
  6301                           ;main.c: 264:     OPTION_REG = 0x06;
  6302  0888  3006               	movlw	6
  6303  0889  0081               	movwf	1	;volatile
  6304  088A                     l2514:
  6305                           
  6306                           ;main.c: 265:     TMR0 = 6;
  6307  088A  3006               	movlw	6
  6308  088B  1283               	bcf	3,5	;RP0=0, select bank0
  6309  088C  1303               	bcf	3,6	;RP1=0, select bank0
  6310  088D  0081               	movwf	1	;volatile
  6311  088E                     l160:
  6312  088E  0008               	return
  6313  088F                     __end_of_InitPic:
  6314                           
  6315                           	psect	text19
  6316  09B2                     __ptext19:	
  6317 ;; *************** function _InitLCD *****************
  6318 ;; Defined at:
  6319 ;;		line 241 in file "main.c"
  6320 ;; Parameters:    Size  Location     Type
  6321 ;;		None
  6322 ;; Auto vars:     Size  Location     Type
  6323 ;;		None
  6324 ;; Return value:  Size  Location     Type
  6325 ;;                  1    wreg      void 
  6326 ;; Registers used:
  6327 ;;		wreg, status,2, status,0, pclath, cstack
  6328 ;; Tracked objects:
  6329 ;;		On entry : 0/0
  6330 ;;		On exit  : 0/0
  6331 ;;		Unchanged: 0/0
  6332 ;; Data sizes:     COMMON   BANK0   BANK1   BANK3   BANK2
  6333 ;;      Params:         0       0       0       0       0
  6334 ;;      Locals:         0       0       0       0       0
  6335 ;;      Temps:          0       2       0       0       0
  6336 ;;      Totals:         0       2       0       0       0
  6337 ;;Total ram usage:        2 bytes
  6338 ;; Hardware stack levels used: 1
  6339 ;; Hardware stack levels required when called: 2
  6340 ;; This function calls:
  6341 ;;		_SendLCD
  6342 ;; This function is called by:
  6343 ;;		_main
  6344 ;; This function uses a non-reentrant model
  6345 ;;
  6346                           
  6347                           
  6348                           ;psect for function _InitLCD
  6349  09B2                     _InitLCD:
  6350  09B2                     l3232:	
  6351                           ;incstack = 0
  6352                           ; Regs used in _InitLCD: [wreg+status,2+status,0+pclath+cstack]
  6353                           
  6354                           
  6355                           ;main.c: 243:     PORTE = PORTE & 0x02;
  6356  09B2  1283               	bcf	3,5	;RP0=0, select bank0
  6357  09B3  1303               	bcf	3,6	;RP1=0, select bank0
  6358  09B4  0809               	movf	9,w	;volatile
  6359  09B5  3902               	andlw	2
  6360  09B6  0089               	movwf	9	;volatile
  6361                           
  6362                           ;main.c: 244:     PORTE = PORTE & 0x04;
  6363  09B7  0809               	movf	9,w	;volatile
  6364  09B8  3904               	andlw	4
  6365  09B9  0089               	movwf	9	;volatile
  6366  09BA                     l3234:
  6367                           
  6368                           ;main.c: 245:     _delay((unsigned long)((20)*(16000000/4000.0)));
  6369  09BA  3068               	movlw	104
  6370  09BB  1283               	bcf	3,5	;RP0=0, select bank0
  6371  09BC  1303               	bcf	3,6	;RP1=0, select bank0
  6372  09BD  00A1               	movwf	??_InitLCD+1
  6373  09BE  30E3               	movlw	227
  6374  09BF  00A0               	movwf	??_InitLCD
  6375  09C0                     u5197:
  6376  09C0  0BA0               	decfsz	??_InitLCD,f
  6377  09C1  29C0               	goto	u5197
  6378  09C2  0BA1               	decfsz	??_InitLCD+1,f
  6379  09C3  29C0               	goto	u5197
  6380  09C4  29C5               	nop2
  6381  09C5                     l3236:
  6382                           
  6383                           ;main.c: 246:     PORTE = PORTE | 0x02;
  6384  09C5  1283               	bcf	3,5	;RP0=0, select bank0
  6385  09C6  1303               	bcf	3,6	;RP1=0, select bank0
  6386  09C7  0809               	movf	9,w	;volatile
  6387  09C8  3802               	iorlw	2
  6388  09C9  0089               	movwf	9	;volatile
  6389  09CA                     l3238:
  6390                           
  6391                           ;main.c: 247:     SendLCD(0x38, 0x00);
  6392  09CA  01F3               	clrf	SendLCD@type
  6393  09CB  3038               	movlw	56
  6394  09CC  160A  118A  2706  120A  158A  	fcall	_SendLCD
  6395  09D1                     l3240:
  6396                           
  6397                           ;main.c: 248:     _delay((unsigned long)((5)*(16000000/4000.0)));
  6398  09D1  301A               	movlw	26
  6399  09D2  1283               	bcf	3,5	;RP0=0, select bank0
  6400  09D3  1303               	bcf	3,6	;RP1=0, select bank0
  6401  09D4  00A1               	movwf	??_InitLCD+1
  6402  09D5  30F7               	movlw	247
  6403  09D6  00A0               	movwf	??_InitLCD
  6404  09D7                     u5207:
  6405  09D7  0BA0               	decfsz	??_InitLCD,f
  6406  09D8  29D7               	goto	u5207
  6407  09D9  0BA1               	decfsz	??_InitLCD+1,f
  6408  09DA  29D7               	goto	u5207
  6409  09DB  29DC               	nop2
  6410                           
  6411                           ;main.c: 249:     SendLCD(0x38, 0x00);
  6412  09DC  01F3               	clrf	SendLCD@type
  6413  09DD  3038               	movlw	56
  6414  09DE  160A  118A  2706  120A  158A  	fcall	_SendLCD
  6415  09E3                     l3242:
  6416                           
  6417                           ;main.c: 250:     _delay((unsigned long)((1)*(16000000/4000.0)));
  6418  09E3  3006               	movlw	6
  6419  09E4  1283               	bcf	3,5	;RP0=0, select bank0
  6420  09E5  1303               	bcf	3,6	;RP1=0, select bank0
  6421  09E6  00A1               	movwf	??_InitLCD+1
  6422  09E7  302F               	movlw	47
  6423  09E8  00A0               	movwf	??_InitLCD
  6424  09E9                     u5217:
  6425  09E9  0BA0               	decfsz	??_InitLCD,f
  6426  09EA  29E9               	goto	u5217
  6427  09EB  0BA1               	decfsz	??_InitLCD+1,f
  6428  09EC  29E9               	goto	u5217
  6429  09ED  29EE               	nop2
  6430  09EE                     l3244:
  6431                           
  6432                           ;main.c: 251:     SendLCD(0x38, 0x00);
  6433  09EE  01F3               	clrf	SendLCD@type
  6434  09EF  3038               	movlw	56
  6435  09F0  160A  118A  2706  120A  158A  	fcall	_SendLCD
  6436  09F5                     l3246:
  6437                           
  6438                           ;main.c: 252:     SendLCD(0x0F, 0x00);
  6439  09F5  01F3               	clrf	SendLCD@type
  6440  09F6  300F               	movlw	15
  6441  09F7  160A  118A  2706  120A  158A  	fcall	_SendLCD
  6442  09FC                     l3248:
  6443                           
  6444                           ;main.c: 253:     SendLCD(0x01, 0x00);
  6445  09FC  01F3               	clrf	SendLCD@type
  6446  09FD  3001               	movlw	1
  6447  09FE  160A  118A  2706  120A  158A  	fcall	_SendLCD
  6448  0A03                     l3250:
  6449                           
  6450                           ;main.c: 254:     SendLCD(0x0E, 0x00);
  6451  0A03  01F3               	clrf	SendLCD@type
  6452  0A04  300E               	movlw	14
  6453  0A05  160A  118A  2706  120A  158A  	fcall	_SendLCD
  6454  0A0A                     l3252:
  6455                           
  6456                           ;main.c: 255:     SendLCD(0x80, 0x00);
  6457  0A0A  01F3               	clrf	SendLCD@type
  6458  0A0B  3080               	movlw	128
  6459  0A0C  160A  118A  2706  120A  158A  	fcall	_SendLCD
  6460  0A11                     l3254:
  6461                           
  6462                           ;main.c: 256:     SendLCD(0x0C, 0x00);
  6463  0A11  01F3               	clrf	SendLCD@type
  6464  0A12  300C               	movlw	12
  6465  0A13  160A  118A  2706  120A  158A  	fcall	_SendLCD
  6466  0A18                     l157:
  6467  0A18  0008               	return
  6468  0A19                     __end_of_InitLCD:
  6469                           
  6470                           	psect	text20
  6471  1706                     __ptext20:	
  6472 ;; *************** function _SendLCD *****************
  6473 ;; Defined at:
  6474 ;;		line 312 in file "main.c"
  6475 ;; Parameters:    Size  Location     Type
  6476 ;;  data            1    wreg     unsigned char 
  6477 ;;  type            1    3[COMMON] unsigned char 
  6478 ;; Auto vars:     Size  Location     Type
  6479 ;;  data            1    6[COMMON] unsigned char 
  6480 ;; Return value:  Size  Location     Type
  6481 ;;                  1    wreg      void 
  6482 ;; Registers used:
  6483 ;;		wreg, status,2, status,0
  6484 ;; Tracked objects:
  6485 ;;		On entry : 0/0
  6486 ;;		On exit  : 0/0
  6487 ;;		Unchanged: 0/0
  6488 ;; Data sizes:     COMMON   BANK0   BANK1   BANK3   BANK2
  6489 ;;      Params:         1       0       0       0       0
  6490 ;;      Locals:         1       0       0       0       0
  6491 ;;      Temps:          2       0       0       0       0
  6492 ;;      Totals:         4       0       0       0       0
  6493 ;;Total ram usage:        4 bytes
  6494 ;; Hardware stack levels used: 1
  6495 ;; Hardware stack levels required when called: 1
  6496 ;; This function calls:
  6497 ;;		Nothing
  6498 ;; This function is called by:
  6499 ;;		_InitLCD
  6500 ;;		_ManageDisplays
  6501 ;;		_SendLCDString
  6502 ;;		_UpdateLCDViewWithNumber
  6503 ;;		_UpdateLCDView
  6504 ;; This function uses a non-reentrant model
  6505 ;;
  6506                           
  6507                           
  6508                           ;psect for function _SendLCD
  6509  1706                     _SendLCD:
  6510                           
  6511                           ;incstack = 0
  6512                           ; Regs used in _SendLCD: [wreg+status,2+status,0]
  6513                           ;SendLCD@data stored from wreg
  6514  1706  00F6               	movwf	SendLCD@data
  6515  1707                     l2938:
  6516                           
  6517                           ;main.c: 312: void SendLCD(char data,char type);main.c: 313: {;main.c: 314:     TRISD = 
      +                          0x00;
  6518  1707  1683               	bsf	3,5	;RP0=1, select bank1
  6519  1708  1303               	bcf	3,6	;RP1=0, select bank1
  6520  1709  0188               	clrf	8	;volatile
  6521                           
  6522                           ;main.c: 315:     TRISE = 0x00;
  6523  170A  0189               	clrf	9	;volatile
  6524  170B                     l2940:
  6525                           
  6526                           ;main.c: 316:     PORTE |= 0x02;
  6527  170B  1283               	bcf	3,5	;RP0=0, select bank0
  6528  170C  1303               	bcf	3,6	;RP1=0, select bank0
  6529  170D  1489               	bsf	9,1	;volatile
  6530  170E                     l2942:
  6531                           
  6532                           ;main.c: 317:     PORTD = data;
  6533  170E  0876               	movf	SendLCD@data,w
  6534  170F  0088               	movwf	8	;volatile
  6535  1710                     l2944:
  6536                           
  6537                           ;main.c: 318:     if(type) PORTE |= 0x04;
  6538  1710  0873               	movf	SendLCD@type,w
  6539  1711  1903               	btfsc	3,2
  6540  1712  2F14               	goto	u4491
  6541  1713  2F15               	goto	u4490
  6542  1714                     u4491:
  6543  1714  2F17               	goto	l2948
  6544  1715                     u4490:
  6545  1715                     l2946:
  6546  1715  1509               	bsf	9,2	;volatile
  6547  1716  2F1B               	goto	l2950
  6548  1717                     l2948:
  6549  1717  30FB               	movlw	251
  6550  1718  00F4               	movwf	??_SendLCD
  6551  1719  0874               	movf	??_SendLCD,w
  6552  171A  0589               	andwf	9,f	;volatile
  6553  171B                     l2950:
  6554                           
  6555                           ;main.c: 320:     _delay((unsigned long)((3)*(16000000/4000.0)));
  6556  171B  3010               	movlw	16
  6557  171C  00F5               	movwf	??_SendLCD+1
  6558  171D  3094               	movlw	148
  6559  171E  00F4               	movwf	??_SendLCD
  6560  171F                     u5227:
  6561  171F  0BF4               	decfsz	??_SendLCD,f
  6562  1720  2F1F               	goto	u5227
  6563  1721  0BF5               	decfsz	??_SendLCD+1,f
  6564  1722  2F1F               	goto	u5227
  6565  1723  0000               	nop
  6566  1724                     l2952:
  6567                           
  6568                           ;main.c: 321:     PORTE &= ~0x02;
  6569  1724  30FD               	movlw	253
  6570  1725  00F4               	movwf	??_SendLCD
  6571  1726  0874               	movf	??_SendLCD,w
  6572  1727  1283               	bcf	3,5	;RP0=0, select bank0
  6573  1728  1303               	bcf	3,6	;RP1=0, select bank0
  6574  1729  0589               	andwf	9,f	;volatile
  6575                           
  6576                           ;main.c: 322:     _delay((unsigned long)((3)*(16000000/4000.0)));
  6577  172A  3010               	movlw	16
  6578  172B  00F5               	movwf	??_SendLCD+1
  6579  172C  3094               	movlw	148
  6580  172D  00F4               	movwf	??_SendLCD
  6581  172E                     u5237:
  6582  172E  0BF4               	decfsz	??_SendLCD,f
  6583  172F  2F2E               	goto	u5237
  6584  1730  0BF5               	decfsz	??_SendLCD+1,f
  6585  1731  2F2E               	goto	u5237
  6586  1732  0000               	nop
  6587  1733                     l2954:
  6588                           
  6589                           ;main.c: 323:     PORTE |= 0x02;
  6590  1733  1283               	bcf	3,5	;RP0=0, select bank0
  6591  1734  1303               	bcf	3,6	;RP1=0, select bank0
  6592  1735  1489               	bsf	9,1	;volatile
  6593  1736                     l188:
  6594  1736  0008               	return
  6595  1737                     __end_of_SendLCD:
  6596                           
  6597                           	psect	text21
  6598  0A19                     __ptext21:	
  6599 ;; *************** function _CheckKeypad *****************
  6600 ;; Defined at:
  6601 ;;		line 167 in file "main.c"
  6602 ;; Parameters:    Size  Location     Type
  6603 ;;		None
  6604 ;; Auto vars:     Size  Location     Type
  6605 ;;		None
  6606 ;; Return value:  Size  Location     Type
  6607 ;;                  1    wreg      unsigned char 
  6608 ;; Registers used:
  6609 ;;		wreg, fsr0l, fsr0h, status,2, status,0, btemp+1, pclath
  6610 ;; Tracked objects:
  6611 ;;		On entry : 0/0
  6612 ;;		On exit  : 0/0
  6613 ;;		Unchanged: 0/0
  6614 ;; Data sizes:     COMMON   BANK0   BANK1   BANK3   BANK2
  6615 ;;      Params:         0       0       0       0       0
  6616 ;;      Locals:         0       0       0       0       0
  6617 ;;      Temps:          2       0       0       0       0
  6618 ;;      Totals:         2       0       0       0       0
  6619 ;;Total ram usage:        2 bytes
  6620 ;; Hardware stack levels used: 2
  6621 ;; Hardware stack levels required when called: 1
  6622 ;; This function calls:
  6623 ;;		Nothing
  6624 ;; This function is called by:
  6625 ;;		_main
  6626 ;; This function uses a non-reentrant model
  6627 ;;
  6628                           
  6629                           
  6630                           ;psect for function _CheckKeypad
  6631  0A19                     _CheckKeypad:
  6632  0A19                     l2540:	
  6633                           ;incstack = 0
  6634                           ; Regs used in _CheckKeypad: [wreg-fsr0h+status,2+status,0+btemp+1+pclath]
  6635                           
  6636                           
  6637                           ;main.c: 169:     TRISB &= ~0x07;
  6638  0A19  30F8               	movlw	248
  6639  0A1A  00F3               	movwf	??_CheckKeypad
  6640  0A1B  0873               	movf	??_CheckKeypad,w
  6641  0A1C  1683               	bsf	3,5	;RP0=1, select bank1
  6642  0A1D  1303               	bcf	3,6	;RP1=0, select bank1
  6643  0A1E  0586               	andwf	6,f	;volatile
  6644                           
  6645                           ;main.c: 170:     TRISD |= 0x0F;
  6646  0A1F  300F               	movlw	15
  6647  0A20  00F3               	movwf	??_CheckKeypad
  6648  0A21  0873               	movf	??_CheckKeypad,w
  6649  0A22  0488               	iorwf	8,f	;volatile
  6650  0A23                     l2542:
  6651                           
  6652                           ;main.c: 171:     for(colScan = 0; colScan < 3; colScan++)
  6653  0A23  01FA               	clrf	_colScan
  6654  0A24                     l2548:
  6655                           
  6656                           ;main.c: 172:     {;main.c: 173:         PORTB |= 0x07;
  6657  0A24  3007               	movlw	7
  6658  0A25  00F3               	movwf	??_CheckKeypad
  6659  0A26  0873               	movf	??_CheckKeypad,w
  6660  0A27  1283               	bcf	3,5	;RP0=0, select bank0
  6661  0A28  1303               	bcf	3,6	;RP1=0, select bank0
  6662  0A29  0486               	iorwf	6,f	;volatile
  6663  0A2A                     l2550:
  6664                           
  6665                           ;main.c: 174:         PORTB &= colMask[colScan];
  6666  0A2A  087A               	movf	_colScan,w
  6667  0A2B  3E1B               	addlw	low ((_colMask-__stringbase)| (0+32768))
  6668  0A2C  0084               	movwf	4
  6669  0A2D  120A  158A  2000  120A  158A  	fcall	stringdir
  6670  0A32  00F3               	movwf	??_CheckKeypad
  6671  0A33  0873               	movf	??_CheckKeypad,w
  6672  0A34  0586               	andwf	6,f	;volatile
  6673  0A35                     l2552:
  6674                           
  6675                           ;main.c: 175:         _delay((unsigned long)((15)*(16000000/4000000.0)));
  6676  0A35  3013               	movlw	19
  6677  0A36  00F3               	movwf	??_CheckKeypad
  6678  0A37                     u5247:
  6679  0A37  0BF3               	decfsz	??_CheckKeypad,f
  6680  0A38  2A37               	goto	u5247
  6681  0A39  2A3A               	nop2
  6682  0A3A                     l2554:
  6683                           
  6684                           ;main.c: 176:         for( rowScan = 0; rowScan < 4; rowScan++)
  6685  0A3A  01F9               	clrf	_rowScan
  6686  0A3B                     l2560:
  6687                           
  6688                           ;main.c: 177:         {;main.c: 178:             if(!(PORTD & rowMask[rowScan]))
  6689  0A3B  0879               	movf	_rowScan,w
  6690  0A3C  3E17               	addlw	low ((_rowMask-__stringbase)| (0+32768))
  6691  0A3D  0084               	movwf	4
  6692  0A3E  120A  158A  2000  120A  158A  	fcall	stringdir
  6693  0A43  1283               	bcf	3,5	;RP0=0, select bank0
  6694  0A44  1303               	bcf	3,6	;RP1=0, select bank0
  6695  0A45  0508               	andwf	8,w	;volatile
  6696  0A46  1D03               	btfss	3,2
  6697  0A47  2A49               	goto	u3731
  6698  0A48  2A4A               	goto	u3730
  6699  0A49                     u3731:
  6700  0A49  2A6E               	goto	l2572
  6701  0A4A                     u3730:
  6702  0A4A                     l2562:
  6703                           
  6704                           ;main.c: 179:             {;main.c: 180:                 flags |= 0x02;
  6705  0A4A  14E1               	bsf	_flags,1
  6706  0A4B                     l2564:
  6707                           
  6708                           ;main.c: 181:                 if(counterAntibouncing > 20)
  6709  0A4B  085C               	movf	_counterAntibouncing+1,w
  6710  0A4C  3A80               	xorlw	128
  6711  0A4D  00FF               	movwf	btemp+1
  6712  0A4E  3080               	movlw	128
  6713  0A4F  027F               	subwf	btemp+1,w
  6714  0A50  1D03               	skipz
  6715  0A51  2A54               	goto	u3745
  6716  0A52  3015               	movlw	21
  6717  0A53  025B               	subwf	_counterAntibouncing,w
  6718  0A54                     u3745:
  6719  0A54  1C03               	skipc
  6720  0A55  2A57               	goto	u3741
  6721  0A56  2A58               	goto	u3740
  6722  0A57                     u3741:
  6723  0A57  2A6E               	goto	l2572
  6724  0A58                     u3740:
  6725  0A58                     l2566:
  6726                           
  6727                           ;main.c: 182:                 {;main.c: 183:                     keyValue = rowScan+(4*c
      +                          olScan);
  6728  0A58  087A               	movf	_colScan,w
  6729  0A59  00F3               	movwf	??_CheckKeypad
  6730  0A5A  3002               	movlw	2
  6731  0A5B                     u3755:
  6732  0A5B  1003               	clrc
  6733  0A5C  0DF3               	rlf	??_CheckKeypad,f
  6734  0A5D  3EFF               	addlw	-1
  6735  0A5E  1D03               	skipz
  6736  0A5F  2A5B               	goto	u3755
  6737  0A60  0879               	movf	_rowScan,w
  6738  0A61  0773               	addwf	??_CheckKeypad,w
  6739  0A62  00F4               	movwf	??_CheckKeypad+1
  6740  0A63  0874               	movf	??_CheckKeypad+1,w
  6741  0A64  1283               	bcf	3,5	;RP0=0, select bank0
  6742  0A65  1303               	bcf	3,6	;RP1=0, select bank0
  6743  0A66  00ED               	movwf	_keyValue
  6744                           
  6745                           ;main.c: 184:                     flags &= ~0x02;
  6746  0A67  30FD               	movlw	253
  6747  0A68  00F3               	movwf	??_CheckKeypad
  6748  0A69  0873               	movf	??_CheckKeypad,w
  6749  0A6A  05E1               	andwf	_flags,f
  6750  0A6B                     l2568:
  6751                           
  6752                           ;main.c: 185:                     counterAntibouncing = 0;
  6753  0A6B  01DB               	clrf	_counterAntibouncing
  6754  0A6C  01DC               	clrf	_counterAntibouncing+1
  6755  0A6D                     l2570:
  6756                           
  6757                           ;main.c: 186:                     flags |= 0x01;
  6758  0A6D  1461               	bsf	_flags,0
  6759  0A6E                     l2572:
  6760                           
  6761                           ;main.c: 189:         }
  6762  0A6E  3001               	movlw	1
  6763  0A6F  00F3               	movwf	??_CheckKeypad
  6764  0A70  0873               	movf	??_CheckKeypad,w
  6765  0A71  07F9               	addwf	_rowScan,f
  6766  0A72                     l2574:
  6767  0A72  3004               	movlw	4
  6768  0A73  0279               	subwf	_rowScan,w
  6769  0A74  1C03               	skipc
  6770  0A75  2A77               	goto	u3761
  6771  0A76  2A78               	goto	u3760
  6772  0A77                     u3761:
  6773  0A77  2A3B               	goto	l2560
  6774  0A78                     u3760:
  6775  0A78                     l2576:
  6776                           
  6777                           ;main.c: 190:     }
  6778  0A78  3001               	movlw	1
  6779  0A79  00F3               	movwf	??_CheckKeypad
  6780  0A7A  0873               	movf	??_CheckKeypad,w
  6781  0A7B  07FA               	addwf	_colScan,f
  6782  0A7C                     l2578:
  6783  0A7C  3003               	movlw	3
  6784  0A7D  027A               	subwf	_colScan,w
  6785  0A7E  1C03               	skipc
  6786  0A7F  2A81               	goto	u3771
  6787  0A80  2A82               	goto	u3770
  6788  0A81                     u3771:
  6789  0A81  2A24               	goto	l2548
  6790  0A82                     u3770:
  6791  0A82                     l2580:
  6792                           
  6793                           ;main.c: 191:     return keypad[keyValue];
  6794  0A82  1283               	bcf	3,5	;RP0=0, select bank0
  6795  0A83  1303               	bcf	3,6	;RP1=0, select bank0
  6796  0A84  086D               	movf	_keyValue,w
  6797  0A85  3E01               	addlw	low ((_keypad-__stringbase)| (0+32768))
  6798  0A86  0084               	movwf	4
  6799  0A87  120A  158A  2000  120A  158A  	fcall	stringdir
  6800  0A8C                     l134:
  6801  0A8C  0008               	return
  6802  0A8D                     __end_of_CheckKeypad:
  6803                           
  6804                           	psect	text22
  6805  1773                     __ptext22:	
  6806 ;; *************** function _CheckAlarmButton *****************
  6807 ;; Defined at:
  6808 ;;		line 144 in file "main.c"
  6809 ;; Parameters:    Size  Location     Type
  6810 ;;		None
  6811 ;; Auto vars:     Size  Location     Type
  6812 ;;		None
  6813 ;; Return value:  Size  Location     Type
  6814 ;;                  1    wreg      void 
  6815 ;; Registers used:
  6816 ;;		wreg, status,2, status,0
  6817 ;; Tracked objects:
  6818 ;;		On entry : 0/0
  6819 ;;		On exit  : 0/0
  6820 ;;		Unchanged: 0/0
  6821 ;; Data sizes:     COMMON   BANK0   BANK1   BANK3   BANK2
  6822 ;;      Params:         0       0       0       0       0
  6823 ;;      Locals:         0       0       0       0       0
  6824 ;;      Temps:          2       0       0       0       0
  6825 ;;      Totals:         2       0       0       0       0
  6826 ;;Total ram usage:        2 bytes
  6827 ;; Hardware stack levels used: 1
  6828 ;; Hardware stack levels required when called: 1
  6829 ;; This function calls:
  6830 ;;		Nothing
  6831 ;; This function is called by:
  6832 ;;		_main
  6833 ;; This function uses a non-reentrant model
  6834 ;;
  6835                           
  6836                           
  6837                           ;psect for function _CheckAlarmButton
  6838  1773                     _CheckAlarmButton:
  6839  1773                     l2604:	
  6840                           ;incstack = 0
  6841                           ; Regs used in _CheckAlarmButton: [wreg+status,2+status,0]
  6842                           
  6843                           
  6844                           ;main.c: 146:     TRISB |= 0x04;
  6845  1773  1683               	bsf	3,5	;RP0=1, select bank1
  6846  1774  1303               	bcf	3,6	;RP1=0, select bank1
  6847  1775  1506               	bsf	6,2	;volatile
  6848  1776                     l2606:
  6849                           
  6850                           ;main.c: 147:     TRISC = 0x00;
  6851  1776  0187               	clrf	7	;volatile
  6852  1777                     l2608:
  6853                           
  6854                           ;main.c: 149:     if(!(PORTB & 0x04) && oldRA5)
  6855  1777  1283               	bcf	3,5	;RP0=0, select bank0
  6856  1778  1303               	bcf	3,6	;RP1=0, select bank0
  6857  1779  1906               	btfsc	6,2	;volatile
  6858  177A  2F7C               	goto	u3821
  6859  177B  2F7D               	goto	u3820
  6860  177C                     u3821:
  6861  177C  2F8C               	goto	l118
  6862  177D                     u3820:
  6863  177D                     l2610:
  6864  177D  085D               	movf	_oldRA5,w
  6865  177E  1903               	btfsc	3,2
  6866  177F  2F81               	goto	u3831
  6867  1780  2F82               	goto	u3830
  6868  1781                     u3831:
  6869  1781  2F8C               	goto	l118
  6870  1782                     u3830:
  6871  1782                     l2612:
  6872                           
  6873                           ;main.c: 150:     {;main.c: 151:         oldRA5 = 0;
  6874  1782  01DD               	clrf	_oldRA5
  6875  1783                     l2614:
  6876                           
  6877                           ;main.c: 152:         if(alarmOn)
  6878  1783  085E               	movf	_alarmOn,w
  6879  1784  1903               	btfsc	3,2
  6880  1785  2F87               	goto	u3841
  6881  1786  2F88               	goto	u3840
  6882  1787                     u3841:
  6883  1787  2F8A               	goto	l119
  6884  1788                     u3840:
  6885  1788                     l2616:
  6886                           
  6887                           ;main.c: 153:         {;main.c: 154:             alarmOn = 0;
  6888  1788  01DE               	clrf	_alarmOn
  6889                           
  6890                           ;main.c: 155:         }
  6891  1789  2F8C               	goto	l118
  6892  178A                     l119:	
  6893                           ;main.c: 156:         else alarmOn = 1;
  6894                           
  6895  178A  01DE               	clrf	_alarmOn
  6896  178B  0ADE               	incf	_alarmOn,f
  6897  178C                     l118:	
  6898                           ;main.c: 157:     }
  6899                           
  6900                           
  6901                           ;main.c: 158:     if((PORTB & 0x04) && !oldRA5)
  6902  178C  1D06               	btfss	6,2	;volatile
  6903  178D  2F8F               	goto	u3851
  6904  178E  2F90               	goto	u3850
  6905  178F                     u3851:
  6906  178F  2FAB               	goto	l2628
  6907  1790                     u3850:
  6908  1790                     l2618:
  6909  1790  085D               	movf	_oldRA5,w
  6910  1791  1D03               	btfss	3,2
  6911  1792  2F94               	goto	u3861
  6912  1793  2F95               	goto	u3860
  6913  1794                     u3861:
  6914  1794  2FAB               	goto	l2628
  6915  1795                     u3860:
  6916  1795                     l2620:
  6917                           
  6918                           ;main.c: 159:     {;main.c: 160:         _delay((unsigned long)((10)*(16000000/4000.0)))
      +                          ;
  6919  1795  3034               	movlw	52
  6920  1796  00F4               	movwf	??_CheckAlarmButton+1
  6921  1797  30F1               	movlw	241
  6922  1798  00F3               	movwf	??_CheckAlarmButton
  6923  1799                     u5257:
  6924  1799  0BF3               	decfsz	??_CheckAlarmButton,f
  6925  179A  2F99               	goto	u5257
  6926  179B  0BF4               	decfsz	??_CheckAlarmButton+1,f
  6927  179C  2F99               	goto	u5257
  6928  179D  2F9E               	nop2
  6929  179E                     l2622:
  6930                           
  6931                           ;main.c: 161:         if((PORTB & 0x04) && !oldRA5) oldRA5 = 1;
  6932  179E  1283               	bcf	3,5	;RP0=0, select bank0
  6933  179F  1303               	bcf	3,6	;RP1=0, select bank0
  6934  17A0  1D06               	btfss	6,2	;volatile
  6935  17A1  2FA3               	goto	u3871
  6936  17A2  2FA4               	goto	u3870
  6937  17A3                     u3871:
  6938  17A3  2FAB               	goto	l2628
  6939  17A4                     u3870:
  6940  17A4                     l2624:
  6941  17A4  085D               	movf	_oldRA5,w
  6942  17A5  1D03               	btfss	3,2
  6943  17A6  2FA8               	goto	u3881
  6944  17A7  2FA9               	goto	u3880
  6945  17A8                     u3881:
  6946  17A8  2FAB               	goto	l2628
  6947  17A9                     u3880:
  6948  17A9                     l2626:
  6949  17A9  01DD               	clrf	_oldRA5
  6950  17AA  0ADD               	incf	_oldRA5,f
  6951  17AB                     l2628:
  6952                           
  6953                           ;main.c: 163:     if(alarmOn) PORTC |= 0x02;
  6954  17AB  085E               	movf	_alarmOn,w
  6955  17AC  1903               	btfsc	3,2
  6956  17AD  2FAF               	goto	u3891
  6957  17AE  2FB0               	goto	u3890
  6958  17AF                     u3891:
  6959  17AF  2FB2               	goto	l2632
  6960  17B0                     u3890:
  6961  17B0                     l2630:
  6962  17B0  1487               	bsf	7,1	;volatile
  6963  17B1  2FB6               	goto	l125
  6964  17B2                     l2632:
  6965  17B2  30FD               	movlw	253
  6966  17B3  00F3               	movwf	??_CheckAlarmButton
  6967  17B4  0873               	movf	??_CheckAlarmButton,w
  6968  17B5  0587               	andwf	7,f	;volatile
  6969  17B6                     l125:
  6970  17B6  0008               	return
  6971  17B7                     __end_of_CheckAlarmButton:
  6972                           
  6973                           	psect	text23
  6974  1689                     __ptext23:	
  6975 ;; *************** function _ISR *****************
  6976 ;; Defined at:
  6977 ;;		line 129 in file "main.c"
  6978 ;; Parameters:    Size  Location     Type
  6979 ;;		None
  6980 ;; Auto vars:     Size  Location     Type
  6981 ;;		None
  6982 ;; Return value:  Size  Location     Type
  6983 ;;                  1    wreg      void 
  6984 ;; Registers used:
  6985 ;;		wreg, status,2, status,0
  6986 ;; Tracked objects:
  6987 ;;		On entry : 0/0
  6988 ;;		On exit  : 0/0
  6989 ;;		Unchanged: 0/0
  6990 ;; Data sizes:     COMMON   BANK0   BANK1   BANK3   BANK2
  6991 ;;      Params:         0       0       0       0       0
  6992 ;;      Locals:         0       0       0       0       0
  6993 ;;      Temps:          3       0       0       0       0
  6994 ;;      Totals:         3       0       0       0       0
  6995 ;;Total ram usage:        3 bytes
  6996 ;; Hardware stack levels used: 1
  6997 ;; This function calls:
  6998 ;;		Nothing
  6999 ;; This function is called by:
  7000 ;;		Interrupt level 1
  7001 ;; This function uses a non-reentrant model
  7002 ;;
  7003                           
  7004                           
  7005                           ;psect for function _ISR
  7006  1689                     _ISR:
  7007  1689                     i1l2710:
  7008                           
  7009                           ;main.c: 131:     if(INTCON & 0x04)
  7010  1689  1D0B               	btfss	11,2	;volatile
  7011  168A  2E8C               	goto	u400_21
  7012  168B  2E8D               	goto	u400_20
  7013  168C                     u400_21:
  7014  168C  2EAB               	goto	i1l115
  7015  168D                     u400_20:
  7016  168D                     i1l2712:
  7017                           
  7018                           ;main.c: 132:     {;main.c: 133:         if(flags & 0x02)
  7019  168D  1283               	bcf	3,5	;RP0=0, select bank0
  7020  168E  1303               	bcf	3,6	;RP1=0, select bank0
  7021  168F  1CE1               	btfss	_flags,1
  7022  1690  2E92               	goto	u401_21
  7023  1691  2E93               	goto	u401_20
  7024  1692                     u401_21:
  7025  1692  2E99               	goto	i1l2716
  7026  1693                     u401_20:
  7027  1693                     i1l2714:
  7028                           
  7029                           ;main.c: 134:             counterAntibouncing++;
  7030  1693  3001               	movlw	1
  7031  1694  07DB               	addwf	_counterAntibouncing,f
  7032  1695  1803               	skipnc
  7033  1696  0ADC               	incf	_counterAntibouncing+1,f
  7034  1697  3000               	movlw	0
  7035  1698  07DC               	addwf	_counterAntibouncing+1,f
  7036  1699                     i1l2716:
  7037                           
  7038                           ;main.c: 136:         INTCON &= ~0x04;
  7039  1699  30FB               	movlw	251
  7040  169A  00F0               	movwf	??_ISR
  7041  169B  0870               	movf	??_ISR,w
  7042  169C  058B               	andwf	11,f	;volatile
  7043  169D                     i1l2718:
  7044                           
  7045                           ;main.c: 137:         TMR0 = 6;
  7046  169D  3006               	movlw	6
  7047  169E  0081               	movwf	1	;volatile
  7048  169F                     i1l2720:
  7049                           
  7050                           ;main.c: 138:         postScalerTemp++;
  7051  169F  3001               	movlw	1
  7052  16A0  07D9               	addwf	_postScalerTemp,f
  7053  16A1  1803               	skipnc
  7054  16A2  0ADA               	incf	_postScalerTemp+1,f
  7055  16A3  3000               	movlw	0
  7056  16A4  07DA               	addwf	_postScalerTemp+1,f
  7057  16A5                     i1l2722:
  7058                           
  7059                           ;main.c: 139:         postScalerHum++;
  7060  16A5  3001               	movlw	1
  7061  16A6  07D7               	addwf	_postScalerHum,f
  7062  16A7  1803               	skipnc
  7063  16A8  0AD8               	incf	_postScalerHum+1,f
  7064  16A9  3000               	movlw	0
  7065  16AA  07D8               	addwf	_postScalerHum+1,f
  7066  16AB                     i1l115:
  7067  16AB  0872               	movf	??_ISR+2,w
  7068  16AC  008A               	movwf	10
  7069  16AD  0E71               	swapf	??_ISR+1,w
  7070  16AE  0083               	movwf	3
  7071  16AF  0EFE               	swapf	btemp,f
  7072  16B0  0E7E               	swapf	btemp,w
  7073  16B1  0009               	retfie
  7074  16B2                     __end_of_ISR:
  7075  007E                     btemp	set	126	;btemp
  7076  007E                     wtemp0	set	126
  7077                           
  7078                           	psect	intentry
  7079  0004                     __pintentry:	
  7080                           ;incstack = 0
  7081                           ; Regs used in _ISR: [wreg+status,2+status,0]
  7082                           
  7083  0004                     interrupt_function:
  7084  007E                     saved_w	set	btemp
  7085  0004  00FE               	movwf	btemp
  7086  0005  0E03               	swapf	3,w
  7087  0006  00F1               	movwf	??_ISR+1
  7088  0007  080A               	movf	10,w
  7089  0008  00F2               	movwf	??_ISR+2
  7090  0009  160A  118A  2E89   	ljmp	_ISR
  7091                           
  7092                           	psect	config
  7093                           
  7094                           ;Config register CONFIG @ 0x2007
  7095                           ;	Oscillator Selection bits
  7096                           ;	FOSC = HS, HS oscillator
  7097                           ;	Watchdog Timer Enable bit
  7098                           ;	WDTE = OFF, WDT disabled
  7099                           ;	Power-up Timer Enable bit
  7100                           ;	PWRTE = ON, PWRT enabled
  7101                           ;	Brown-out Reset Enable bit
  7102                           ;	BOREN = ON, BOR enabled
  7103                           ;	Low-Voltage (Single-Supply) In-Circuit Serial Programming Enable bit
  7104                           ;	LVP = ON, RB3/PGM pin has PGM function; low-voltage programming enabled
  7105                           ;	Data EEPROM Memory Code Protection bit
  7106                           ;	CPD = OFF, Data EEPROM code protection off
  7107                           ;	Flash Program Memory Write Enable bits
  7108                           ;	WRT = OFF, Write protection off; all program memory may be written to by EECON control
  7109                           ;	In-Circuit Debugger Mode bit
  7110                           ;	DEBUG = 0x1, unprogrammed default
  7111                           ;	Flash Program Memory Code Protection bit
  7112                           ;	CP = OFF, Code protection off
  7113  2007                     	org	8199
  7114  2007  3FF2               	dw	16370

Data Sizes:
    Strings     93
    Constant    29
    Data        20
    BSS         22
    Persistent  0
    Stack       0

Auto Spaces:
    Space          Size  Autos    Used
    COMMON           14      8      11
    BANK0            80     47      78
    BANK1            80      0       8
    BANK3            96      0       0
    BANK2            96      0       0

Pointer List with Targets:

    SendLCDString@string	PTR const unsigned char  size(1) Largest target is 33
		 -> STR_5(CODE[17]), STR_4(CODE[33]), STR_3(CODE[28]), STR_2(CODE[1]), 
		 -> STR_1(CODE[15]), 

    displays	PTR const unsigned char [4] size(1) Largest target is 33
		 -> STR_5(CODE[17]), STR_4(CODE[33]), STR_3(CODE[28]), STR_2(CODE[1]), 

    startDisplay	PTR const unsigned char  size(1) Largest target is 15
		 -> STR_1(CODE[15]), 


Critical Paths under _main in COMMON

    _main->_SendLCDString
    _ReadTemperature->___fladd
    _ReadTemperature->___flge
    _ReadHumidity->___fladd
    _ReadHumidity->___flge
    _ManageDisplays->_HandleKeypadReading
    _ManageDisplays->_SendLCDString
    _UpdateLCDViewWithNumber->___fldiv
    ___xxtofl->___wmul
    ___fltol->___fldiv
    ___flmul->__Umul8_16
    _SendLCDString->_SendLCD
    _HandleKeypadReading->___fladd
    _HandleKeypadReading->___flge
    ___flsub->___fladd
    ___flsub->___wmul
    _InitLCD->_SendLCD

Critical Paths under _ISR in COMMON

    None.

Critical Paths under _main in BANK0

    _main->_ManageDisplays
    _UpdateTempHumDisplay->_UpdateLCDViewWithNumber
    _ReadTemperature->___fladd
    _ReadHumidity->___fladd
    _ManageDisplays->_UpdateLCDViewWithNumber
    _UpdateLCDViewWithNumber->___fltol
    ___xxtofl->___wmul
    ___fltol->___fldiv
    ___flmul->__Umul8_16
    _HandleKeypadReading->___flsub
    ___flsub->___fladd
    ___flsub->___xxtofl

Critical Paths under _ISR in BANK0

    None.

Critical Paths under _main in BANK1

    None.

Critical Paths under _ISR in BANK1

    None.

Critical Paths under _main in BANK3

    None.

Critical Paths under _ISR in BANK3

    None.

Critical Paths under _main in BANK2

    None.

Critical Paths under _ISR in BANK2

    None.

Call Graph Tables:

 ---------------------------------------------------------------------------------
 (Depth) Function   	        Calls       Base Space   Used Autos Params    Refs
 ---------------------------------------------------------------------------------
 (0) _main                                                 1     1      0   58671
                                             46 BANK0      1     1      0
                   _CheckAlarmButton
                        _CheckKeypad
                            _InitLCD
                            _InitPic
                     _ManageDisplays
                       _ReadHumidity
                    _ReadTemperature
                      _SendLCDString
               _UpdateTempHumDisplay
 ---------------------------------------------------------------------------------
 (1) _UpdateTempHumDisplay                                 0     0      0   15719
            _UpdateLCDViewWithNumber
                             ___fleq
 ---------------------------------------------------------------------------------
 (2) ___fleq                                              12     4      8     490
                                              3 COMMON     4     4      0
                                              0 BANK0      8     0      8
 ---------------------------------------------------------------------------------
 (1) _ReadTemperature                                      0     0      0    4828
                            ___fladd
                             ___flge
 ---------------------------------------------------------------------------------
 (1) _ReadHumidity                                         0     0      0    4828
                            ___fladd
                             ___flge
 ---------------------------------------------------------------------------------
 (1) _ManageDisplays                                       1     1      0   28962
                                             45 BANK0      1     1      0
                _HandleKeypadReading
                            _SendLCD
                      _SendLCDString
            _UpdateLCDViewWithNumber
 ---------------------------------------------------------------------------------
 (2) _UpdateLCDViewWithNumber                             13     9      4   15229
                                             32 BANK0     13     9      4
                            _SendLCD
                            ___fldiv
                             ___flge
                            ___flmul
                            ___flsub
                            ___fltol
                             ___wmul
                           ___xxtofl
 ---------------------------------------------------------------------------------
 (3) ___xxtofl                                            14    10      4     822
                                              2 BANK0     14    10      4
                             ___wmul (ARG)
 ---------------------------------------------------------------------------------
 (3) ___wmul                                               6     2      4     606
                                              3 COMMON     4     0      4
                                              0 BANK0      2     2      0
 ---------------------------------------------------------------------------------
 (3) ___fltol                                             11     7      4     533
                                             21 BANK0     11     7      4
                            ___fldiv (ARG)
 ---------------------------------------------------------------------------------
 (3) ___flmul                                             26    18      8    2417
                                              5 BANK0     26    18      8
                          __Umul8_16
 ---------------------------------------------------------------------------------
 (4) __Umul8_16                                            9     7      2     799
                                              3 COMMON     4     2      2
                                              0 BANK0      5     5      0
 ---------------------------------------------------------------------------------
 (3) ___fldiv                                             26    18      8    2403
                                              3 COMMON     5     5      0
                                              0 BANK0     21    13      8
 ---------------------------------------------------------------------------------
 (1) _SendLCDString                                        3     3      0    2382
                                              7 COMMON     1     1      0
                                              0 BANK0      2     2      0
                            _SendLCD
 ---------------------------------------------------------------------------------
 (2) _HandleKeypadReading                                  2     2      0    9399
                                              7 COMMON     1     1      0
                                             24 BANK0      1     1      0
                            ___fladd
                             ___flge
                            ___flsub
 ---------------------------------------------------------------------------------
 (3) ___flsub                                              8     0      8    4447
                                             16 BANK0      8     0      8
                            ___fladd
                             ___wmul (ARG)
                           ___xxtofl (ARG)
 ---------------------------------------------------------------------------------
 (4) ___fladd                                             20    12      8    3662
                                              3 COMMON     4     4      0
                                              0 BANK0     16     8      8
 ---------------------------------------------------------------------------------
 (3) ___flge                                              12     4      8    1166
                                              3 COMMON     4     4      0
                                              0 BANK0      8     0      8
 ---------------------------------------------------------------------------------
 (1) _InitPic                                              0     0      0       0
 ---------------------------------------------------------------------------------
 (1) _InitLCD                                              2     2      0    1952
                                              0 BANK0      2     2      0
                            _SendLCD
 ---------------------------------------------------------------------------------
 (3) _SendLCD                                              4     3      1    1952
                                              3 COMMON     4     3      1
 ---------------------------------------------------------------------------------
 (2) _CheckKeypad                                          2     2      0       0
                                              3 COMMON     2     2      0
 ---------------------------------------------------------------------------------
 (1) _CheckAlarmButton                                     2     2      0       0
                                              3 COMMON     2     2      0
 ---------------------------------------------------------------------------------
 Estimated maximum stack depth 4
 ---------------------------------------------------------------------------------
 (Depth) Function   	        Calls       Base Space   Used Autos Params    Refs
 ---------------------------------------------------------------------------------
 (5) _ISR                                                  3     3      0       0
                                              0 COMMON     3     3      0
 ---------------------------------------------------------------------------------
 Estimated maximum stack depth 5
 ---------------------------------------------------------------------------------

 Call Graph Graphs:

 _main (ROOT)
   _CheckAlarmButton
   _CheckKeypad
   _InitLCD
     _SendLCD
   _InitPic
   _ManageDisplays
     _HandleKeypadReading
       ___fladd
       ___flge
       ___flsub
         ___fladd
         ___wmul (ARG)
         ___xxtofl (ARG)
           ___wmul (ARG)
     _SendLCD
     _SendLCDString
       _SendLCD
     _UpdateLCDViewWithNumber
       _SendLCD
       ___fldiv
       ___flge
       ___flmul
         __Umul8_16
       ___flsub
       ___fltol
         ___fldiv (ARG)
       ___wmul
       ___xxtofl
   _ReadHumidity
     ___fladd
     ___flge
   _ReadTemperature
     ___fladd
     ___flge
   _SendLCDString
   _UpdateTempHumDisplay
     _UpdateLCDViewWithNumber
     ___fleq

 _ISR (ROOT)

 Address spaces:
Name               Size   Autos  Total    Cost      Usage
BANK3               60      0       0       9        0.0%
BITBANK3            60      0       0       8        0.0%
SFR3                 0      0       0       4        0.0%
BITSFR3              0      0       0       4        0.0%
BANK2               60      0       0      11        0.0%
BITBANK2            60      0       0      10        0.0%
SFR2                 0      0       0       5        0.0%
BITSFR2              0      0       0       5        0.0%
BANK1               50      0       8       7       10.0%
BITBANK1            50      0       0       6        0.0%
SFR1                 0      0       0       2        0.0%
BITSFR1              0      0       0       2        0.0%
BANK0               50     2F      4E       5       97.5%
BITBANK0            50      0       0       4        0.0%
SFR0                 0      0       0       1        0.0%
BITSFR0              0      0       0       1        0.0%
COMMON               E      8       B       1       78.6%
BITCOMMON            E      0       0       0        0.0%
CODE                 0      0       0       0        0.0%
DATA                 0      0      61      12        0.0%
ABS                  0      0      61       3        0.0%
NULL                 0      0       0       0        0.0%
STACK                0      0       0       2        0.0%
EEDATA             100      0       0       0        0.0%


Microchip Technology PIC Macro Assembler V2.32 build 20210201212658 
Symbol Table                                                                                   Wed Jun 15 17:08:06 2022

                    ___fldiv@aexp 0034                      ___fldiv@bexp 0033                                 pc 0002  
                    ___fldiv@sign 002C     UpdateLCDViewWithNumber@number 0040                                fsr 0004  
             ___wmul@multiplicand 0075               __Umul8_16@word_mpld 0022                               l300 1705  
                             l212 0B8F                               l125 17B6                               l118 178C  
                             l134 0A8C                               l119 178A                               l207 0FFF  
                             l160 088E                               l154 06EE                               l146 0637  
                             l147 063F                               l157 0A18                               l165 1772  
                             l183 0953                               l177 08FA                               l188 1736  
                             l612 0577                               l604 0629                               l622 05BD  
                             l198 09B1                               l472 0BAE                               l616 059B  
                             l633 061D                               l625 05FB                               l634 0629  
                             l706 16C8                               l298 16EB                               l475 0C1A  
                             l491 0AF3                               l731 0713                               l467 07C9  
                             l476 0C33                               l708 16DA                               l484 0B08  
                             l468 07E5                               l637 1688                               l733 07AA  
                             l469 07FA                               l494 0B08                               l591 03FD  
                             l671 0E04                               l663 0D82                               l647 0C90  
                             l744 0774                               l649 0E10                               l745 0780  
                             l737 0758              _UpdateTempHumDisplay 0B09                               l595 04A6  
                             l597 047B                               l669 0DF4                               l693 0305  
                             l687 0399                               l699 038D                               _ISR 1689  
                    _startDisplay 006A                               fsr0 0004                               indf 0000  
                    ___flmul@aexp 0037                      ___flmul@bexp 0038                      ___flmul@sign 0032  
                    ___flmul@temp 003D                      ___flmul@prod 0039                              ?_ISR 0070  
                    ___fltol@exp1 003F                              l3000 0C41                              l3010 0C58  
                            l3002 0C45                              l3100 0D6B                              l3020 0C6E  
                            l3012 0C59                              l3004 0C46                              l2300 01DC  
                            l2060 0AC3                              l2052 0AA3                              l3110 0D9A  
                            l3102 0D7F                              l3030 0C85                              l3022 0C72  
                            l3006 0C4B                              l3014 0C5B                              l2310 0289  
                            l2302 01F9                              l2230 0039                              l2062 0AC7  
                            l2070 0AE1                              l2054 0AB8                              l2046 0A8D  
                            l3120 0DD8                              l3112 0D9E                              l3040 0CA8  
                            l3032 0C86                              l3024 0C73                              l3016 0C63  
                            l3008 0C50                              l2320 02D5                              l2312 02B1  
                            l2304 0226                              l2240 0050                              l2232 0040  
                            l2080 0AFD                              l2056 0AB9                              l2048 0A9A  
                            l2400 0778                              l3200 0E8B                              l3130 0DFE  
                            l3122 0DE7                              l3114 0DB7                              l3106 0D87  
                            l3050 0CBF                              l3026 0C78                              l3034 0C88  
                            l3018 0C68                              l2330 02EA                              l2322 02D6  
                            l2314 02BA                              l2306 0236                              l2250 006C  
                            l2242 0055                              l2234 0046                              l2058 0AC1  
                            l2410 07A2                              l2402 0782                              l3210 0F0C  
                            l3202 0E90                              l3140 0959                              l3132 0E00  
                            l3124 0DEB                              l3108 0D8C                              l3116 0DBD  
                            l3060 0CEB                              l3052 0CD1                              l3036 0C98  
                            l3044 0CB1                              l3028 0C7D                              l2340 030F  
                            l2332 02EE                              l2324 02DF                              l2316 02C8  
                            l2308 0263                              l2260 0081                              l2252 0072  
                            l2244 005D                              l2236 004A                              l2076 0AE8  
                            l2068 0ACF                              l2404 0798                              l3212 0F15  
                            l3204 0E99                              l3300 1764                              l3220 07AB  
                            l2510 0886                              l3150 0982                              l3142 095F  
                            l3126 0DF3                              l3118 0DCA                              l3062 0CF0  
                            l3070 0D10                              l3054 0CD9                              l3046 0CB6  
                            l3038 0CA4                              l2350 034D                              l2342 031D  
                            l2334 0302                              l2318 02D1                              l2326 02E5  
                            l2270 009D                              l2262 0089                              l2254 0076  
                            l2246 005F                              l2238 004B                              l2078 0AF8  
                            l2406 079D                              l3214 0F59                              l3206 0EDD  
                            l3222 07C1                              l3310 17E0                              l3302 17B7  
                            l3240 09D1                              l3232 09B2                              l2512 0888  
                            l3160 062D                              l3144 096E                              l3128 0DFA  
                            l3080 0D3B                              l3072 0D22                              l3064 0D02  
                            l3056 0CE1                              l2360 0381                              l2352 0358  
                            l2344 0321                              l2328 02E9                              l2280 00E0  
                            l2264 008B                              l2256 0077                              l2248 0067  
                            l2408 07A1                              l3216 0F8C                              l3208 0F07  
                            l3224 07DD                              l3312 17E6                              l3304 17C1  
                            l2610 177D                              l3250 0A03                              l3242 09E3  
                            l3234 09BA                              l2514 088A                              l3170 066A  
                            l3162 0633                              l3154 0994                              l3146 0975  
                            l3138 0957                              l3090 0D53                              l3082 0D43  
                            l3074 0D23                              l3066 0D06                              l3058 0CE9  
                            l2362 0385                              l2354 0367                              l2346 033A  
                            l2338 030A                              l2290 0169                              l2282 00FC  
                            l2274 00A6                              l2266 0093                              l2258 007C  
                            l2370 06F2                              l3218 0FC2                              l3226 07F7  
                            l3314 17EB                              l3306 17C7                              l2620 1795  
                            l2612 1782                              l2604 1773                              l2540 0A19  
                            l3252 0A0A                              l3244 09EE                              l3236 09C5  
                            l2508 0882                              l3180 069D                              l3172 0670  
                            l3164 063D                              l3148 097B                              l3092 0D5C  
                            l3084 0D45                              l3076 0D31                              l3068 0D07  
                            l2364 0386                              l2356 0371                              l2348 0340  
                            l2292 0179                              l2284 0128                              l2276 00B6  
                            l2268 0098                              l2372 06F7                              l3260 08CC  
                            l3228 07F9                              l3316 17F1                              l3308 17DB  
                            l2630 17B0                              l2622 179E                              l2614 1783  
                            l2606 1776                              l2550 0A2A                              l2542 0A23  
                            l3254 0A11                              l3246 09F5                              l3238 09CA  
                            l3190 06E4                              l3182 06A2                              l3174 0676  
                            l3166 0645                              l3158 09A4                              l3086 0D4E  
                            l3094 0D62                              l3078 0D35                              l2366 0391  
                            l2358 0373                              l2294 0196                              l2286 0144  
                            l2278 00C3                              l2390 0741                              l2382 0724  
                            l2374 06FB                              l3262 08D7                              l3270 0925  
                            l3318 17F6                              l2632 17B2                              l2624 17A4  
                            l2616 1788                              l2608 1777                              l2560 0A3B  
                            l2552 0A35                              l3248 09FC                              l2800 041B  
                            l3184 06A6                              l3176 0695                              l3168 064B  
                            l3096 0D66                              l3088 0D52                              l2296 01A6  
                            l2288 0160                              l2392 074F                              l2384 0729  
                            l2376 070B                              l3192 0E14                              l3264 08F8  
                            l3256 08A2                              l3272 0930                              l3280 0B42  
                            l2626 17A9                              l2618 1790                              l2570 0A6D  
                            l2562 0A4A                              l2554 0A3A                              l2810 042F  
                            l2802 041F                              l3186 06BF                              l3178 069B  
                            l3098 0D67                              l2298 01C3                              l2394 075F  
                            l2386 0736                              l2378 071B                              l3194 0E36  
                            l3290 173F                              l3258 08B1                              l3274 0951  
                            l3266 08FB                              l3282 0B5A                              l2628 17AB  
                            l2580 0A82                              l2564 0A4B                              l2572 0A6E  
                            l2548 0A24                              l2900 05AF                              l2820 0443  
                            l2812 0433                              l2804 0423                              l3188 06C9  
                            l2396 076A                              l2388 073D                              l3196 0E3E  
                            l3292 1747                              l3268 090A                              l3284 0B75  
                            l3276 0B09                              l2574 0A72                              l2566 0A58  
                            l2910 05C2                              l2902 05B0                              l2830 048A  
                            l2814 0437                              l2806 0427                              l2822 0447  
                            l2750 03AB                              l2398 076E                              l3198 0E5F  
                            l3294 174E                              l3286 0B85                              l3278 0B32  
                            l2576 0A78                              l2568 0A6B                              l2920 0600  
                            l2912 05C7                              l2904 05B4                              l2832 048C  
                            l2840 04A0                              l2824 0448                              l2816 043B  
                            l2808 042B                              l2760 03BF                              l2752 03AC  
                            l2744 039A                              l3296 1758                              l3288 1737  
                            l2578 0A7C                              l2930 0617                              l2922 0605  
                            l2914 05D5                              l2906 05BA                              l2850 04D3  
                            l2842 04AA                              l2834 0492                              l2826 045F  
                            l2818 043F                              l2770 03D5                              l2754 03B1  
                            l2762 03C1                              l2746 03A1                              l3298 175E  
                            l2940 170B                              l2932 0619                              l2924 060D  
                            l2916 05D9                              l2860 04EA                              l2852 04D7  
                            l2844 04AF                              l2836 0493                              l2828 047F  
                            l2780 03EA                              l2772 03DB                              l2764 03C9  
                            l2756 03B6                              l2748 03A7                              l1980 16B5  
                            l2950 171B                              l2942 170E                              l2934 0624  
                            l2926 0612                              l2918 05F7                              l2870 054F  
                            l2862 04EB                              l2854 04DB                              l2838 049C  
                            l2790 0407                              l2782 03F2                              l2774 03DF  
                            l2766 03CE                              l2758 03BE                              l1990 16D6  
                            l1982 16B7                              l2952 1724                              l2944 1710  
                            l2936 0628                              l2928 0613                              l2880 0584  
                            l2872 0555                              l2864 04F4                              l2856 04E4  
                            l2848 04BA                              l2792 040B                              l2784 03F3  
                            l2776 03E0                              l2768 03D4                              l1984 16BE  
                            l2960 16E3                              l2954 1733                              l2946 1715  
                            l2938 1707                              l2970 0B90                              l2890 059F  
                            l2874 055A                              l2858 04E6                              l2866 04F9  
                            l2794 040F                              l2778 03E5                              l2786 03F5  
                            l1986 16C2                              l2962 16F2                              l2948 1717  
                            l2980 0BF2                              l2972 0BA6                              l2892 05A2  
                            l2884 058D                              l2868 0511                              l2876 0569  
                            l2796 0413                              l2788 0403                              l1988 16D1  
                            l2964 16F9                              l2956 16DB                              l2982 0BF6  
                            l2974 0BC2                              l2894 05A4                              l2886 0596  
                            l2878 057F                              l2798 0417                              l2990 1665  
                            l2966 16FF                              l2958 16DF                              l2984 0C30  
                            l2976 0BCA                              l2896 05A9                              l2888 059A  
                            l2992 1669                              l2986 0C32                              l2978 0BCE  
                            l2898 05AB                              l2996 0C34                              l2998 0C3B  
                            STR_1 0871                              STR_2 0843                              STR_3 0844  
                            STR_4 0823                              STR_5 0860                              u3100 009D  
                            u3101 009C                              u3030 004A                              u3111 00EE  
                            u3031 0049                              u3112 00F5                              u3040 0050  
                            u3201 0218                              u3121 010A                              u3113 00FC  
                            u3041 004F                              u3202 021F                              u3122 0111  
                            u3050 0055                              u3211 0245                              u3203 0226  
                            u3131 0136                              u3123 0118                              u3051 0054  
                            u4100 0403                              u2500 16D6                              u3300 02E9  
                            u3220 026F                              u3212 024C                              u3132 013D  
                            u3060 0076                              u4101 0402                              u2501 16D5  
                            u3301 02E8                              u3213 0253                              u3141 0152  
                            u3133 0144                              u3061 0075                              u4110 0407  
                            u4030 03AB                              u3310 02EE                              u3142 0159  
                            u3070 007C                              u4111 0406                              u4031 03AA  
                            u3311 02ED                              u3231 027B                              u3143 0160  
                            u3071 007B                              u4200 04AF                              u4120 045F  
                            u4040 03B1                              u5000 06A2                              u3320 0302  
                            u3240 0297                              u3232 0282                              u3080 0081  
                            u3400 06F7                              u4201 04AE                              u4121 045E  
                            u4041 03B0                              u5001 06A1                              u3321 0301  
                            u3233 0289                              u3225 026A                              u3161 0188  
                            u3081 0080                              u3401 06F6                              u4130 046A  
                            u4050 03B6                              u5010 06BF                              u3330 0309  
                            u3162 018F                              u3090 0098                              u3410 06FB  
                            u4211 04C5                              u4131 0468                              u4051 03B5  
                            u5011 06BE                              u3331 0308                              u3251 02A3  
                            u3171 01B5                              u3163 0196                              u3155 0162  
                            u3091 0097                              u3411 06FA                              u4300 057F  
                            u4220 04D7                              u4212 04CC                              u4140 046B  
                            u4060 03D4                              u5020 06E4                              u3340 030F  
                            u3252 02AA                              u3172 01BC                              u3500 0778  
                            u3420 071B                              u5100 08CC                              u4301 057E  
                            u4221 04D6                              u4213 04D3                              u4125 045B  
                            u4061 03D3                              u5021 06E3                              u3341 030E  
                            u3253 02B1                              u3245 0292                              u3173 01C3  
                            u3501 0777                              u3421 071A                              u5101 08CB  
                            u4310 0584                              u4230 04DB                              u4150 047F  
                            u4070 03DF                              u3350 0321                              u2710 0AF8  
                            u2630 0A9A                              u3510 078D                              u5030 0E36  
                            u5110 090A                              u4311 0583                              u4231 04DA  
                            u4151 047E                              u4071 03DE                              u3351 0320  
                            u3191 01EB                              u2711 0AF7                              u2631 0A99  
                            u5031 0E35                              u5111 0909                              u4400 05C7  
                            u4240 04EA                              u4160 0492                              u4080 03E5  
                            u2480 16C2                              u3360 0330                              u3280 02D5  
                            u3192 01F2                              u2720 0AFD                              u2640 0AB1  
                            u3520 079D                              u3440 073C                              u5040 0E90  
                            u5120 0925                              u4401 05C6                              u4241 04E9  
                            u4161 0491                              u4081 03E4                              u2481 16C1  
                            u3281 02D4                              u3265 02B3                              u3193 01F9  
                            u3185 01C5                              u2721 0AFC                              u2705 0AEA  
                            u3521 079C                              u3441 073B                              u5041 0E8F  
                            u5121 0924                              u4410 05D9                              u4330 059A  
                            u4090 03EA                              u3370 034D                              u2650 0AC7  
                            u3530 07A1                              u5050 0F0C                              u5130 0B32  
                            u4411 05D8                              u4331 0599                              u4091 03E9  
                            u3371 034C                              u3275 02CA                              u2651 0AC6  
                            u3531 07A0                              u3515 0788                              u3435 072E  
                            u5051 0F0B                              u5115 0906                              u5131 0B31  
                            u4420 05E8                              u4340 059F                              u4260 0511  
                            u4180 04A6                              u3380 0367                              u2660 0ACE  
                            u4500 16E3                              u3460 075E                              u5060 07C1  
                            u5140 0B75                              u4341 059E                              u4325 058F  
                            u4261 0510                              u4181 04A5                              u3381 0366  
                            u3365 032B                              u2661 0ACD                              u2645 0AAC  
                            u4501 16E2                              u3461 075D                              u5061 07C0  
                            u5141 0B74                              u4430 05F7                              u4350 05A9  
                            u4190 04AA                              u3390 0385                              u5150 1747  
                            u5070 07DD                              u5207 09D7                              u4431 05F6  
                            u4351 05A8                              u4271 0528                              u4263 050D  
                            u4255 04ED                              u4191 04A9                              u4175 0495  
                            u2495 16C9                              u3391 0384                              u3375 0349  
                            u3295 02D8                              u3455 0750                              u5151 1746  
                            u5071 07DC                              u4600 0C30                              u4440 0600  
                            u4360 05AF                              u4280 053C                              u4272 0529  
                            u2680 0AE0                              u3480 076E                              u5160 1764  
                            u5080 07F7                              u5217 09E9                              u4601 0C2F  
                            u4441 05FF                              u4425 05E3                              u4361 05AE  
                            u4281 053D                              u4273 052E                              u3385 0363  
                            u2681 0ADF                              u3481 076D                              u5161 1763  
                            u5081 07F6                              u3730 0A4A                              u4450 0605  
                            u4370 05B4                              u4290 055A                              u4282 0542  
                            u4274 052F                              u4610 0C45                              u2690 0AE7  
                            u4530 16FF                              u3490 0774                              u5090 08B1  
                            u5170 17E6                              u3731 0A49                              u5227 171F  
                            u4451 0604                              u4371 05B3                              u4291 0559  
                            u4283 0543                              u4275 0534                              u4611 0C44  
                            u2691 0AE6                              u2675 0AD0                              u4531 16FE  
                            u4515 16EC                              u3491 0773                              u3475 0763  
                            u5091 08B0                              u5171 17E5                              u3820 177D  
                            u3740 0A58                              u4540 0BA6                              u4460 0612  
                            u4380 05BA                              u4276 0535                              u4620 0C4B  
                            u5180 17F1                              u3821 177C                              u3741 0A57  
                            u5237 172E                              u4605 0C2C                              u4541 0BA5  
                            u4461 0611                              u4381 05B9                              u4621 0C4A  
                            u4525 16F3                              u5085 07F3                              u5181 17F0  
                            u3830 1782                              u4550 0BC2                              u4470 0617  
                            u4390 05C1                              u4630 0C50                              u3831 1781  
                            u5247 0A37                              u4551 0BC1                              u4471 0616  
                            u4391 05C0                              u4631 0C4F                              u5095 08AD  
                            u3840 1788                              u3760 0A78                              u4560 0BCE  
                            u4480 0628                              u4800 0D66                              u4720 0D06  
                            u4640 0C72                              u5257 1799                              u3841 1787  
                            u3761 0A77                              u3745 0A54                              u4561 0BCD  
                            u4481 0627                              u4801 0D65                              u4721 0D05  
                            u4705 0CF2                              u4641 0C71                              u3850 1790  
                            u3770 0A82                              u4490 1715                              u4810 0D6B  
                            u4650 0C78                              u3851 178F                              u3771 0A81  
                            u3755 0A5B                              u4491 1714                              u4571 0BDD  
                            u4811 0D6A                              u4715 0CFB                              u4651 0C77  
                            u3860 1795                              u4580 0BF6                              u4572 0BDE  
                            u4900 095F                              u4820 0D7F                              u4740 0D22  
                            u4660 0C7D                              u3861 1794                              u5197 09C0  
                            u4581 0BF5                              u4573 0BE3                              u4901 095E  
                            u4821 0D7E                              u4741 0D21                              u4661 0C7C  
                            u3870 17A4                              u4574 0BE4                              u4910 097B  
                            u4830 0D86                              u4750 0D3B                              u4670 0C98  
                            u3871 17A3                              u4591 0C05                              u4575 0BE9  
                            u4911 097A                              u4831 0D85                              u4751 0D3A  
                            u4735 0D09                              u4671 0C97                              u3880 17A9  
                            u4592 0C06                              u4576 0BEA                              u4920 09B1  
                            u4840 0D8C                              u4760 0D43                              u4680 0CB6  
                            u3881 17A8                              u4593 0C0B                              u4921 09B0  
                            u4841 0D8B                              u4761 0D42                              u4745 0D1E  
                            u4681 0CB5                              u3890 17B0                              u4594 0C0C  
                            u4930 0633                              u4850 0D9E                              u4690 0CF0  
                            u3891 17AF                              u4595 0C11                              u4931 0632  
                            u4851 0D9D                              u4691 0CEF                              u4596 0C12  
                            u4940 063D                              u4860 0DAD                              u4780 0D52  
                            u4941 063C                              u4781 0D51                              u4950 0645  
                            u4870 0DCA                              u4951 0644                              u4871 0DC9  
                            u4775 0D47                              u4960 064B                              u4880 0DE7  
                            u4961 064A                              u4881 0DE6                              u4865 0DA8  
                            u4970 0670                              u4890 0DFE                              u4971 066F  
                            u4891 0DFD                              u4875 0DC6                              u4795 0D55  
                            u4980 0676                              u4981 0675                              u4885 0DE3  
                            u4990 069B                              u4991 069A                              _TMR0 0001  
                            _main 17B7                              btemp 007E                              start 000C  
     UpdateLCDViewWithNumber@tens 004C         __size_of_CheckAlarmButton 0044       UpdateLCDViewWithNumber@unit 004A  
                 ___fldiv@new_exp 002D                   __end_of_InitLCD 0A19                   __end_of_InitPic 088F  
                           ??_ISR 0070                   __end_of_SendLCD 1737                       _CheckKeypad 0A19  
                   ?_ReadHumidity 0070                     ___fltol@sign1 003E             ?_UpdateTempHumDisplay 0070  
                 __end_of___fladd 062A                             ?_main 0070                   __end_of___fldiv 0E11  
                 __end_of___flmul 039A                   __end_of___flsub 1689                   __end_of___fltol 0B09  
                           i1l115 16AB                             _PORTB 0006                             _PORTC 0007  
                           _PORTD 0008                             _PORTE 0009                             _TRISB 0086  
                           _TRISC 0087                             _TRISD 0088                             _TRISE 0089  
                 __end_of_colMask 0823          __size_of_ReadTemperature 0059   __end_of_UpdateLCDViewWithNumber 1000  
                           _flags 0061                             pclath 000A               _HandleKeypadReading 062A  
                 __end_of_rowMask 0820                             status 0003                             wtemp0 007E  
                 __initialization 000F                      __end_of_main 1800                  ??_ManageDisplays 004D  
                  ??_ReadHumidity 0077              ?_HandleKeypadReading 0070                            ??_main 004E  
          __size_of_SendLCDString 005E                            i1l2710 1689                            i1l2720 169F  
                          i1l2712 168D                            i1l2722 16A5                            i1l2714 1693  
                          i1l2716 1699                            i1l2718 169D                            u400_20 168D  
                          u400_21 168C                            u401_20 1693                            _INTCON 000B  
                          u401_21 1692                       SendLCD@data 0076                  __end_of___xxtofl 07AB  
                     SendLCD@type 0073                         ??_InitLCD 0020                         ??_InitPic 0073  
                       ??_SendLCD 0074                            ___flge 0B90                            ___fleq 07AB  
                       ??___fladd 0028                            ___wmul 16DB                         ??___fldiv 0073  
                       ??___flmul 002D                         ??___flsub 0077                         ??___fltol 0039  
           ??_HandleKeypadReading 0077                            _oldRA5 005D                            _keypad 0806  
          ??_UpdateTempHumDisplay 0078                __size_of__Umul8_16 0029                            saved_w 007E  
                _counterClockWise 0812                        ___flge@ff1 0020                        ___flge@ff2 0024  
                    ___xxtofl@arg 002C                      ___xxtofl@exp 002B                      ___xxtofl@val 0022  
                      ___fleq@ff1 0020                        ___fleq@ff2 0024           __end_of__initialization 0035  
                   _SendLCDString 0954                 ??_ReadTemperature 0077                        ___fltol@f1 0035  
                _CheckAlarmButton 1773                    __pcstackCOMMON 0070                      __pidataBANK0 1659  
                    __pidataBANK1 1651  __size_of_UpdateLCDViewWithNumber 01EF                        __pbssBANK0 004F  
                  ?_SendLCDString 0070              __end_of_ReadHumidity 08FB                 __end_of__Umul8_16 16DB  
                      __pmaintext 17B7                           ?___flge 0020                           ?___fleq 0020  
                         ?___wmul 0073                     _keypadReading 0060                        __pintentry 0004  
                    ?_CheckKeypad 0070                         ?___xxtofl 0022                        __stringtab 0800  
                         _InitLCD 09B2                           _InitPic 0882                        _maxSetTemp 006B  
                         _SendLCD 1706                 __end_of_clockWise 081C                        _oldDisplay 005F  
                      _minSetTemp 006C                   __size_of___flge 00A4                   __size_of___fleq 0050  
                         ___fladd 039A                           ___fldiv 0C34                           ___flmul 0039  
                         ___flsub 1665                           ___fltol 0A8D                   __size_of___wmul 002B  
                         _alarmOn 005E                           _colMask 0820                           _colScan 007A  
                         __ptext1 0B09                           __ptext2 07AB                           __ptext3 08FB  
                         __ptext4 08A2                           __ptext5 1737                           __ptext6 0E11  
                         __ptext7 06EF                           __ptext8 16DB                           __ptext9 0A8D  
                    __size_of_ISR 0029                        ??___xxtofl 0026                           _setTemp 0066  
                         _rowMask 081C                           _rowScan 0079                   ??_SendLCDString 0077  
                         clrloop0 164A              end_of_initialization 0035               SendLCDString@string 0020  
         _UpdateLCDViewWithNumber 0E11          HandleKeypadReading@value 0038          __end_of_counterClockWise 0817  
                     ___fladd@grs 0076          __end_of_CheckAlarmButton 17B7                     ___xxtofl@sign 002A  
                 _ReadTemperature 08FB             __size_of_ReadHumidity 0059                       ___fldiv@grs 002F  
                     ___fldiv@rem 0028                       ___flmul@grs 0033       __end_of_HandleKeypadReading 06EF  
                  __end_of___flge 0C34                    __end_of___fleq 07FB                    SendLCDString@i 0021  
                  __end_of___wmul 1706                      _ReadHumidity 08A2              __size_of_CheckKeypad 0074  
                  __end_of_keypad 0812     __size_of_UpdateTempHumDisplay 0087               start_initialization 000F  
                     __end_of_ISR 16B2           __size_of_ManageDisplays 003C         ??_UpdateLCDViewWithNumber 0044  
  UpdateLCDViewWithNumber@decimal 0049                    _currentDisplay 0078                          ??___flge 0073  
                        ??___fleq 0073                          ??___wmul 0077                        init_fetch0 088F  
                       __Umul8_16 16B2                       __pdataBANK0 0062                       __pdataBANK1 00A0  
         __end_of_ReadTemperature 0954                         ___fladd@a 0024                         ___fladd@b 0020  
                       ___fldiv@a 0020                         ___fldiv@b 0024                         ___flmul@a 0029  
                       ___flmul@b 0025                       __pbssCOMMON 0078                         ___flsub@a 0030  
                       ___flsub@b 0034                         ___latbits 0002                     __pcstackBANK0 0020  
               __size_of___xxtofl 00BC                          ?_InitLCD 0070                    _oldTemperature 004F  
                        ?_InitPic 0070                          ?_SendLCD 0073                          ?___fladd 0020  
                        ?___fldiv 0020                          ?___flmul 0025                          ?___flsub 0030  
                        ?___fltol 0035                         _clockWise 0817                        ?__Umul8_16 0073  
                       __pstrings 0800                 interrupt_function 0004                    ___wmul@product 0020  
                       clear_ram0 1649                  ?_ReadTemperature 0070                       __stringbase 0805  
               ___wmul@multiplier 0073                    _ManageDisplays 1737                 ?_CheckAlarmButton 0070  
              ??_CheckAlarmButton 0073             __end_of_SendLCDString 09B2                  __size_of_InitLCD 0067  
                __size_of_InitPic 000D                  __size_of_SendLCD 0031                       ??__Umul8_16 0075  
                __size_of___fladd 0290                  __size_of___fldiv 01DD                  __size_of___flmul 0361  
                __size_of___flsub 0024                  __size_of___fltol 007C   UpdateLCDViewWithNumber@hundreds 004B  
              __end_of__stringtab 0806                    _postScalerTemp 0059                       _oldHumidity 00A4  
          __end_of_ManageDisplays 1773                          ___xxtofl 06EF   UpdateLCDViewWithNumber@position 0048  
                        __ptext10 0039                          __ptext11 16B2                          __ptext20 1706  
                        __ptext12 0C34                          __ptext21 0A19                          __ptext13 0954  
                        __ptext22 1773                          __ptext14 062A                          __ptext23 1689  
                        __ptext15 1665                          __ptext16 039A                          __ptext17 0B90  
                        __ptext18 0882                          __ptext19 09B2                          _displays 00A0  
                        _keyValue 006D      __end_of_UpdateTempHumDisplay 0B90                     __size_of_main 0049  
                        _humidity 0062                     ??_CheckKeypad 0073      __size_of_HandleKeypadReading 00C5  
                 ?_ManageDisplays 0070                          init_ram0 0893                     _postScalerHum 0057  
                        intlevel1 0000                         stringcode 0800            __Umul8_16@multiplicand 0073  
                      _OPTION_REG 0081                       _temperature 0053               __end_of_CheckKeypad 0A8D  
             _counterAntibouncing 005B                          stringdir 0800                          stringtab 0800  
                   ___fladd@signs 0073          ?_UpdateLCDViewWithNumber 0040                      ___fladd@aexp 0074  
                    ___fladd@bexp 0075              __Umul8_16@multiplier 0024                 __Umul8_16@product 0020  
